ARM GAS  C:\Users\dulan\AppData\Local\Temp\cc1yQeub.s 			page 1


   1              		.syntax unified
   2              		.cpu cortex-m3
   3              		.fpu softvfp
   4              		.eabi_attribute 20, 1
   5              		.eabi_attribute 21, 1
   6              		.eabi_attribute 23, 3
   7              		.eabi_attribute 24, 1
   8              		.eabi_attribute 25, 1
   9              		.eabi_attribute 26, 1
  10              		.eabi_attribute 30, 1
  11              		.eabi_attribute 34, 1
  12              		.eabi_attribute 18, 4
  13              		.thumb
  14              		.syntax unified
  15              		.file	"main.c"
  16              		.text
  17              	.Ltext0:
  18              		.cfi_sections	.debug_frame
  19              		.section	.text.isr_2_handler,"ax",%progbits
  20              		.align	2
  21              		.global	isr_2_handler
  22              		.thumb
  23              		.thumb_func
  24              		.type	isr_2_handler, %function
  25              	isr_2_handler:
  26              	.LFB65:
  27              		.file 1 "main.c"
   1:main.c        **** /* ========================================
   2:main.c        ****  *
   3:main.c        ****  * Copyright YOUR COMPANY, THE YEAR
   4:main.c        ****  * All Rights Reserved
   5:main.c        ****  * UNPUBLISHED, LICENSED SOFTWARE.
   6:main.c        ****  *
   7:main.c        ****  * CONFIDENTIAL AND PROPRIETARY INFORMATION
   8:main.c        ****  * WHICH IS THE PROPERTY OF your company.
   9:main.c        ****  *
  10:main.c        ****  * ========================================
  11:main.c        **** */
  12:main.c        **** /* ========================================
  13:main.c        ****  * Fully working code: 
  14:main.c        ****  * PWM      : 
  15:main.c        ****  * Encoder  : 
  16:main.c        ****  * ADC      :
  17:main.c        ****  * USB      : port displays speed and position.
  18:main.c        ****  * CMD: "PW xx"
  19:main.c        ****  * Copyright Univ of Auckland, 2016
  20:main.c        ****  * All Rights Reserved
  21:main.c        ****  * UNPUBLISHED, LICENSED SOFTWARE.
  22:main.c        ****  *
  23:main.c        ****  * CONFIDENTIAL AND PROPRIETARY INFORMATION
  24:main.c        ****  * WHICH IS THE PROPERTY OF Univ of Auckland.
  25:main.c        ****  *
  26:main.c        ****  * ========================================
  27:main.c        **** */
  28:main.c        **** #include <stdio.h>
  29:main.c        **** #include <string.h>
  30:main.c        **** #include <stdlib.h>
ARM GAS  C:\Users\dulan\AppData\Local\Temp\cc1yQeub.s 			page 2


  31:main.c        **** #include <project.h>
  32:main.c        **** #include <stdbool.h>
  33:main.c        **** #include <math.h>
  34:main.c        **** #include "project.h"
  35:main.c        **** #include <cytypes.h> // Include the appropriate header for your platform
  36:main.c        **** 
  37:main.c        **** //distance calculation paras
  38:main.c        **** int32 encoderCounts_M1 = 0;  
  39:main.c        **** int32 encoderCounts_M2 = 0;  
  40:main.c        **** int32 CPR = 228;  // Adjusted for 4x resolution(228/4)
  41:main.c        **** float wheelCircumference_cm = (M_PI*64.46)/10;// wheel circumference wheelDiameter_mm = 64.46)
  42:main.c        **** double timeInterval_s = 10.924;  // Effective time interval( (timer period )2.731*4)
  43:main.c        **** float32  distance_M1 = 0;
  44:main.c        **** float32  distance_M2 = 0;
  45:main.c        **** float32  current_distance_M1 = 0;
  46:main.c        **** float32  current_distance_M2 = 0;
  47:main.c        **** float32 target_diatance = 0;//cm
  48:main.c        **** float32 speed_M1 = 0;
  49:main.c        **** float32 speed_M2 = 0;
  50:main.c        **** int32 encoder_value_sum_M1 = 0;
  51:main.c        **** int32 encoder_value_sum_M2 = 0;
  52:main.c        **** uint8 counter = 1;
  53:main.c        **** 
  54:main.c        **** // Define states for the state machine
  55:main.c        **** typedef enum {
  56:main.c        ****     GO_STRAIGHT,
  57:main.c        ****     TURN_LEFT,
  58:main.c        ****     TURN_RIGHT,
  59:main.c        ****     RIGHT_ADJUST,
  60:main.c        ****     LEFT_ADJUST,
  61:main.c        ****     STOP,
  62:main.c        **** } RobotState;
  63:main.c        **** 
  64:main.c        **** RobotState current_state = STOP;// intialse state
  65:main.c        **** 
  66:main.c        **** uint32 count = 0;
  67:main.c        **** uint32 turn_counter = 0;
  68:main.c        **** bool left_on=false;
  69:main.c        **** bool right_on;
  70:main.c        **** bool middle_on;
  71:main.c        **** bool turn_complete;
  72:main.c        **** 
  73:main.c        **** uint8 comp0_sum;
  74:main.c        **** uint8 comp1_sum;
  75:main.c        **** uint8 comp2_sum;
  76:main.c        **** uint8 comp3_sum;
  77:main.c        **** 
  78:main.c        **** uint8 PWM_R;
  79:main.c        **** uint8 PWM_L;
  80:main.c        **** 
  81:main.c        **** 
  82:main.c        **** CY_ISR(isr_3_handler) {
  83:main.c        ****     if (counter < 20){
  84:main.c        ****         counter++;
  85:main.c        ****     }else{
  86:main.c        ****         counter = 1;
  87:main.c        ****         // Encoder counts (negative due to counterclockwise rotation)
ARM GAS  C:\Users\dulan\AppData\Local\Temp\cc1yQeub.s 			page 3


  88:main.c        ****         encoderCounts_M1 = abs(QuadDec_M1_GetCounter());//QuadDec_M1_GetCounter();
  89:main.c        ****         encoderCounts_M2 = abs(QuadDec_M2_GetCounter());
  90:main.c        ****         
  91:main.c        ****         // sum of encodercounts
  92:main.c        ****         encoder_value_sum_M1 += encoderCounts_M1;
  93:main.c        ****         encoder_value_sum_M2 += encoderCounts_M2;
  94:main.c        ****         
  95:main.c        ****         // distance calculations 
  96:main.c        ****         distance_M1 = (encoder_value_sum_M1/CPR) * wheelCircumference_cm;
  97:main.c        ****         distance_M2 = (encoder_value_sum_M2/CPR) * wheelCircumference_cm;
  98:main.c        **** 
  99:main.c        ****         //reset the encoder counters 
 100:main.c        ****         QuadDec_M1_SetCounter(0);
 101:main.c        ****         QuadDec_M2_SetCounter(0);     
 102:main.c        ****     }
 103:main.c        ****         Timer_1_ReadStatusRegister();
 104:main.c        **** }
 105:main.c        **** 
 106:main.c        **** 
 107:main.c        **** CY_ISR(isr_2_handler) {
  28              		.loc 1 107 0
  29              		.cfi_startproc
  30              		@ args = 0, pretend = 0, frame = 0
  31              		@ frame_needed = 0, uses_anonymous_args = 0
  32              		@ link register save eliminated.
 108:main.c        ****     //every 1ms 
 109:main.c        ****     if(left_on==true){
  33              		.loc 1 109 0
  34 0000 0E4B     		ldr	r3, .L4
  35 0002 1B78     		ldrb	r3, [r3]	@ zero_extendqisi2
  36 0004 C3B1     		cbz	r3, .L1
 110:main.c        ****         if(turn_counter==0){
  37              		.loc 1 110 0
  38 0006 0D4B     		ldr	r3, .L4
  39 0008 5B68     		ldr	r3, [r3, #4]
  40 000a 2BB9     		cbnz	r3, .L3
 111:main.c        ****             PWM_L=50;
  41              		.loc 1 111 0
  42 000c 3221     		movs	r1, #50
  43 000e 0C4A     		ldr	r2, .L4+4
  44 0010 1170     		strb	r1, [r2]
 112:main.c        ****             PWM_R=80; 
  45              		.loc 1 112 0
  46 0012 5021     		movs	r1, #80
  47 0014 0B4A     		ldr	r2, .L4+8
  48 0016 1170     		strb	r1, [r2]
  49              	.L3:
 113:main.c        ****            // LED_1_Write(1);
 114:main.c        ****         }
 115:main.c        ****         turn_counter++;
  50              		.loc 1 115 0
  51 0018 0133     		adds	r3, r3, #1
  52 001a 084A     		ldr	r2, .L4
  53 001c 5360     		str	r3, [r2, #4]
 116:main.c        ****         if(turn_counter==650){
  54              		.loc 1 116 0
  55 001e 40F28A22 		movw	r2, #650
ARM GAS  C:\Users\dulan\AppData\Local\Temp\cc1yQeub.s 			page 4


  56 0022 9342     		cmp	r3, r2
  57 0024 08D1     		bne	.L1
 117:main.c        ****             left_on=false;
  58              		.loc 1 117 0
  59 0026 054B     		ldr	r3, .L4
  60 0028 0022     		movs	r2, #0
  61 002a 1A70     		strb	r2, [r3]
 118:main.c        ****             PWM_L=50;
  62              		.loc 1 118 0
  63 002c 3221     		movs	r1, #50
  64 002e 0448     		ldr	r0, .L4+4
  65 0030 0170     		strb	r1, [r0]
 119:main.c        ****             PWM_R=50;
  66              		.loc 1 119 0
  67 0032 0448     		ldr	r0, .L4+8
  68 0034 0170     		strb	r1, [r0]
 120:main.c        ****             turn_counter=0;
  69              		.loc 1 120 0
  70 0036 5A60     		str	r2, [r3, #4]
  71              	.L1:
  72 0038 7047     		bx	lr
  73              	.L5:
  74 003a 00BF     		.align	2
  75              	.L4:
  76 003c 00000000 		.word	.LANCHOR0
  77 0040 00000000 		.word	PWM_L
  78 0044 00000000 		.word	PWM_R
  79              		.cfi_endproc
  80              	.LFE65:
  81              		.size	isr_2_handler, .-isr_2_handler
  82              		.global	__aeabi_i2f
  83              		.global	__aeabi_fmul
  84              		.section	.text.isr_3_handler,"ax",%progbits
  85              		.align	2
  86              		.global	isr_3_handler
  87              		.thumb
  88              		.thumb_func
  89              		.type	isr_3_handler, %function
  90              	isr_3_handler:
  91              	.LFB64:
  82:main.c        ****     if (counter < 20){
  92              		.loc 1 82 0
  93              		.cfi_startproc
  94              		@ args = 0, pretend = 0, frame = 0
  95              		@ frame_needed = 0, uses_anonymous_args = 0
  96 0000 F8B5     		push	{r3, r4, r5, r6, r7, lr}
  97              		.cfi_def_cfa_offset 24
  98              		.cfi_offset 3, -24
  99              		.cfi_offset 4, -20
 100              		.cfi_offset 5, -16
 101              		.cfi_offset 6, -12
 102              		.cfi_offset 7, -8
 103              		.cfi_offset 14, -4
  83:main.c        ****         counter++;
 104              		.loc 1 83 0
 105 0002 1D4B     		ldr	r3, .L10
 106 0004 1B78     		ldrb	r3, [r3]	@ zero_extendqisi2
ARM GAS  C:\Users\dulan\AppData\Local\Temp\cc1yQeub.s 			page 5


 107 0006 132B     		cmp	r3, #19
 108 0008 03D8     		bhi	.L7
  84:main.c        ****     }else{
 109              		.loc 1 84 0
 110 000a 0133     		adds	r3, r3, #1
 111 000c 1A4A     		ldr	r2, .L10
 112 000e 1370     		strb	r3, [r2]
 113 0010 2EE0     		b	.L8
 114              	.L7:
  86:main.c        ****         // Encoder counts (negative due to counterclockwise rotation)
 115              		.loc 1 86 0
 116 0012 194E     		ldr	r6, .L10
 117 0014 0123     		movs	r3, #1
 118 0016 3370     		strb	r3, [r6]
  88:main.c        ****         encoderCounts_M2 = abs(QuadDec_M2_GetCounter());
 119              		.loc 1 88 0
 120 0018 FFF7FEFF 		bl	QuadDec_M1_GetCounter
 121              	.LVL0:
 122 001c 0028     		cmp	r0, #0
 123 001e B8BF     		it	lt
 124 0020 4042     		rsblt	r0, r0, #0
 125 0022 164C     		ldr	r4, .L10+4
 126 0024 A060     		str	r0, [r4, #8]
  89:main.c        ****         
 127              		.loc 1 89 0
 128 0026 FFF7FEFF 		bl	QuadDec_M2_GetCounter
 129              	.LVL1:
 130 002a 0028     		cmp	r0, #0
 131 002c B8BF     		it	lt
 132 002e 4042     		rsblt	r0, r0, #0
 133 0030 E060     		str	r0, [r4, #12]
  92:main.c        ****         encoder_value_sum_M2 += encoderCounts_M2;
 134              		.loc 1 92 0
 135 0032 2269     		ldr	r2, [r4, #16]
 136 0034 A368     		ldr	r3, [r4, #8]
 137 0036 1A44     		add	r2, r2, r3
 138 0038 2261     		str	r2, [r4, #16]
  93:main.c        ****         
 139              		.loc 1 93 0
 140 003a 6369     		ldr	r3, [r4, #20]
 141 003c C518     		adds	r5, r0, r3
 142 003e 6561     		str	r5, [r4, #20]
  96:main.c        ****         distance_M2 = (encoder_value_sum_M2/CPR) * wheelCircumference_cm;
 143              		.loc 1 96 0
 144 0040 7768     		ldr	r7, [r6, #4]
 145 0042 B668     		ldr	r6, [r6, #8]	@ float
 146 0044 92FBF7F0 		sdiv	r0, r2, r7
 147 0048 FFF7FEFF 		bl	__aeabi_i2f
 148              	.LVL2:
 149 004c 3146     		mov	r1, r6
 150 004e FFF7FEFF 		bl	__aeabi_fmul
 151              	.LVL3:
 152 0052 A061     		str	r0, [r4, #24]	@ float
  97:main.c        **** 
 153              		.loc 1 97 0
 154 0054 95FBF7F0 		sdiv	r0, r5, r7
 155 0058 FFF7FEFF 		bl	__aeabi_i2f
ARM GAS  C:\Users\dulan\AppData\Local\Temp\cc1yQeub.s 			page 6


 156              	.LVL4:
 157 005c 3146     		mov	r1, r6
 158 005e FFF7FEFF 		bl	__aeabi_fmul
 159              	.LVL5:
 160 0062 E061     		str	r0, [r4, #28]	@ float
 100:main.c        ****         QuadDec_M2_SetCounter(0);     
 161              		.loc 1 100 0
 162 0064 0020     		movs	r0, #0
 163 0066 FFF7FEFF 		bl	QuadDec_M1_SetCounter
 164              	.LVL6:
 101:main.c        ****     }
 165              		.loc 1 101 0
 166 006a 0020     		movs	r0, #0
 167 006c FFF7FEFF 		bl	QuadDec_M2_SetCounter
 168              	.LVL7:
 169              	.L8:
 103:main.c        **** }
 170              		.loc 1 103 0
 171 0070 FFF7FEFF 		bl	Timer_1_ReadStatusRegister
 172              	.LVL8:
 173 0074 F8BD     		pop	{r3, r4, r5, r6, r7, pc}
 174              	.L11:
 175 0076 00BF     		.align	2
 176              	.L10:
 177 0078 00000000 		.word	.LANCHOR1
 178 007c 00000000 		.word	.LANCHOR0
 179              		.cfi_endproc
 180              	.LFE64:
 181              		.size	isr_3_handler, .-isr_3_handler
 182              		.section	.text.isr_1_handler,"ax",%progbits
 183              		.align	2
 184              		.global	isr_1_handler
 185              		.thumb
 186              		.thumb_func
 187              		.type	isr_1_handler, %function
 188              	isr_1_handler:
 189              	.LFB66:
 121:main.c        ****             //LED_1_Write(0);
 122:main.c        ****         }
 123:main.c        ****         
 124:main.c        ****     }
 125:main.c        **** }
 126:main.c        **** 
 127:main.c        **** 
 128:main.c        **** CY_ISR(isr_1_handler) {
 190              		.loc 1 128 0
 191              		.cfi_startproc
 192              		@ args = 0, pretend = 0, frame = 0
 193              		@ frame_needed = 0, uses_anonymous_args = 0
 194 0000 08B5     		push	{r3, lr}
 195              		.cfi_def_cfa_offset 8
 196              		.cfi_offset 3, -8
 197              		.cfi_offset 14, -4
 129:main.c        ****     //every 1ms 
 130:main.c        ****     
 131:main.c        ****     //sum up comp values every 1ms
 132:main.c        ****     comp0_sum+=Comp_0_GetCompare();
ARM GAS  C:\Users\dulan\AppData\Local\Temp\cc1yQeub.s 			page 7


 198              		.loc 1 132 0
 199 0002 FFF7FEFF 		bl	Comp_0_GetCompare
 200              	.LVL9:
 201 0006 164A     		ldr	r2, .L15
 202 0008 1378     		ldrb	r3, [r2]	@ zero_extendqisi2
 203 000a 1844     		add	r0, r0, r3
 204 000c 1070     		strb	r0, [r2]
 133:main.c        ****     comp1_sum+=Comp_1_GetCompare();
 205              		.loc 1 133 0
 206 000e FFF7FEFF 		bl	Comp_1_GetCompare
 207              	.LVL10:
 208 0012 144A     		ldr	r2, .L15+4
 209 0014 1378     		ldrb	r3, [r2]	@ zero_extendqisi2
 210 0016 1844     		add	r0, r0, r3
 211 0018 1070     		strb	r0, [r2]
 134:main.c        ****     comp2_sum+=Comp_2_GetCompare();
 212              		.loc 1 134 0
 213 001a FFF7FEFF 		bl	Comp_2_GetCompare
 214              	.LVL11:
 215 001e 124A     		ldr	r2, .L15+8
 216 0020 1378     		ldrb	r3, [r2]	@ zero_extendqisi2
 217 0022 1844     		add	r0, r0, r3
 218 0024 1070     		strb	r0, [r2]
 135:main.c        ****     comp3_sum+=Comp_3_GetCompare();
 219              		.loc 1 135 0
 220 0026 FFF7FEFF 		bl	Comp_3_GetCompare
 221              	.LVL12:
 222 002a 104A     		ldr	r2, .L15+12
 223 002c 1378     		ldrb	r3, [r2]	@ zero_extendqisi2
 224 002e 1844     		add	r0, r0, r3
 225 0030 1070     		strb	r0, [r2]
 136:main.c        ****     
 137:main.c        ****     
 138:main.c        ****     if(count==8){
 226              		.loc 1 138 0
 227 0032 0F4B     		ldr	r3, .L15+16
 228 0034 1B6A     		ldr	r3, [r3, #32]
 229 0036 082B     		cmp	r3, #8
 230 0038 0AD1     		bne	.L13
 139:main.c        ****         //reset to check again every 8ms
 140:main.c        ****         comp0_sum=0;
 231              		.loc 1 140 0
 232 003a 0023     		movs	r3, #0
 233 003c 084A     		ldr	r2, .L15
 234 003e 1370     		strb	r3, [r2]
 141:main.c        ****         comp1_sum=0;
 235              		.loc 1 141 0
 236 0040 084A     		ldr	r2, .L15+4
 237 0042 1370     		strb	r3, [r2]
 142:main.c        ****         comp2_sum=0;
 238              		.loc 1 142 0
 239 0044 084A     		ldr	r2, .L15+8
 240 0046 1370     		strb	r3, [r2]
 143:main.c        ****         comp3_sum=0;
 241              		.loc 1 143 0
 242 0048 084A     		ldr	r2, .L15+12
 243 004a 1370     		strb	r3, [r2]
ARM GAS  C:\Users\dulan\AppData\Local\Temp\cc1yQeub.s 			page 8


 144:main.c        ****         count=0;
 244              		.loc 1 144 0
 245 004c 084A     		ldr	r2, .L15+16
 246 004e 1362     		str	r3, [r2, #32]
 247              	.L13:
 145:main.c        ****     }
 146:main.c        ****    
 147:main.c        **** 
 148:main.c        ****     count++;
 248              		.loc 1 148 0
 249 0050 074A     		ldr	r2, .L15+16
 250 0052 136A     		ldr	r3, [r2, #32]
 251 0054 0133     		adds	r3, r3, #1
 252 0056 1362     		str	r3, [r2, #32]
 149:main.c        ****     Timer_1_ReadStatusRegister();
 253              		.loc 1 149 0
 254 0058 FFF7FEFF 		bl	Timer_1_ReadStatusRegister
 255              	.LVL13:
 256 005c 08BD     		pop	{r3, pc}
 257              	.L16:
 258 005e 00BF     		.align	2
 259              	.L15:
 260 0060 00000000 		.word	comp0_sum
 261 0064 00000000 		.word	comp1_sum
 262 0068 00000000 		.word	comp2_sum
 263 006c 00000000 		.word	comp3_sum
 264 0070 00000000 		.word	.LANCHOR0
 265              		.cfi_endproc
 266              	.LFE66:
 267              		.size	isr_1_handler, .-isr_1_handler
 268              		.section	.text.stop,"ax",%progbits
 269              		.align	2
 270              		.global	stop
 271              		.thumb
 272              		.thumb_func
 273              		.type	stop, %function
 274              	stop:
 275              	.LFB67:
 150:main.c        **** }
 151:main.c        **** 
 152:main.c        **** void stop(){
 276              		.loc 1 152 0
 277              		.cfi_startproc
 278              		@ args = 0, pretend = 0, frame = 0
 279              		@ frame_needed = 0, uses_anonymous_args = 0
 280              		@ link register save eliminated.
 153:main.c        ****     PWM_R=50;
 281              		.loc 1 153 0
 282 0000 3223     		movs	r3, #50
 283 0002 024A     		ldr	r2, .L18
 284 0004 1370     		strb	r3, [r2]
 154:main.c        ****     PWM_L=50;
 285              		.loc 1 154 0
 286 0006 024A     		ldr	r2, .L18+4
 287 0008 1370     		strb	r3, [r2]
 288 000a 7047     		bx	lr
 289              	.L19:
ARM GAS  C:\Users\dulan\AppData\Local\Temp\cc1yQeub.s 			page 9


 290              		.align	2
 291              	.L18:
 292 000c 00000000 		.word	PWM_R
 293 0010 00000000 		.word	PWM_L
 294              		.cfi_endproc
 295              	.LFE67:
 296              		.size	stop, .-stop
 297              		.section	.text.turnLeft,"ax",%progbits
 298              		.align	2
 299              		.global	turnLeft
 300              		.thumb
 301              		.thumb_func
 302              		.type	turnLeft, %function
 303              	turnLeft:
 304              	.LFB68:
 155:main.c        **** }
 156:main.c        **** void turnLeft(){
 305              		.loc 1 156 0
 306              		.cfi_startproc
 307              		@ args = 0, pretend = 0, frame = 0
 308              		@ frame_needed = 0, uses_anonymous_args = 0
 309              		@ link register save eliminated.
 157:main.c        ****     
 158:main.c        ****     if(turn_complete){
 310              		.loc 1 158 0
 311 0000 034B     		ldr	r3, .L22
 312 0002 1B78     		ldrb	r3, [r3]	@ zero_extendqisi2
 313 0004 13B1     		cbz	r3, .L20
 159:main.c        ****        left_on=false;
 314              		.loc 1 159 0
 315 0006 0022     		movs	r2, #0
 316 0008 024B     		ldr	r3, .L22+4
 317 000a 1A70     		strb	r2, [r3]
 318              	.L20:
 319 000c 7047     		bx	lr
 320              	.L23:
 321 000e 00BF     		.align	2
 322              	.L22:
 323 0010 00000000 		.word	turn_complete
 324 0014 00000000 		.word	.LANCHOR0
 325              		.cfi_endproc
 326              	.LFE68:
 327              		.size	turnLeft, .-turnLeft
 328              		.section	.text.goStraight,"ax",%progbits
 329              		.align	2
 330              		.global	goStraight
 331              		.thumb
 332              		.thumb_func
 333              		.type	goStraight, %function
 334              	goStraight:
 335              	.LFB69:
 160:main.c        ****     }
 161:main.c        ****     
 162:main.c        **** }
 163:main.c        **** 
 164:main.c        **** void goStraight(){
 336              		.loc 1 164 0
ARM GAS  C:\Users\dulan\AppData\Local\Temp\cc1yQeub.s 			page 10


 337              		.cfi_startproc
 338              		@ args = 0, pretend = 0, frame = 0
 339              		@ frame_needed = 0, uses_anonymous_args = 0
 340              		@ link register save eliminated.
 165:main.c        ****     //comp0==>middle left comp1==>middle right
 166:main.c        ****     if(comp0_sum>0 && comp1_sum==0){//s_ML out of line
 341              		.loc 1 166 0
 342 0000 0F4B     		ldr	r3, .L28
 343 0002 1B78     		ldrb	r3, [r3]	@ zero_extendqisi2
 344 0004 3BB1     		cbz	r3, .L25
 345              		.loc 1 166 0 is_stmt 0 discriminator 1
 346 0006 0F4A     		ldr	r2, .L28+4
 347 0008 1278     		ldrb	r2, [r2]	@ zero_extendqisi2
 348 000a 22B9     		cbnz	r2, .L25
 167:main.c        ****         PWM_L=PWM_L+1;
 349              		.loc 1 167 0 is_stmt 1
 350 000c 0E4A     		ldr	r2, .L28+8
 351 000e 1378     		ldrb	r3, [r2]	@ zero_extendqisi2
 352 0010 0133     		adds	r3, r3, #1
 353 0012 1370     		strb	r3, [r2]
 354 0014 7047     		bx	lr
 355              	.L25:
 168:main.c        ****     }else if(comp0_sum==0 && comp1_sum>0){//s_MR out of line
 356              		.loc 1 168 0
 357 0016 3BB9     		cbnz	r3, .L27
 358              		.loc 1 168 0 is_stmt 0 discriminator 1
 359 0018 0A4A     		ldr	r2, .L28+4
 360 001a 1278     		ldrb	r2, [r2]	@ zero_extendqisi2
 361 001c 22B1     		cbz	r2, .L27
 169:main.c        ****         PWM_R=PWM_R+1;
 362              		.loc 1 169 0 is_stmt 1
 363 001e 0B4A     		ldr	r2, .L28+12
 364 0020 1378     		ldrb	r3, [r2]	@ zero_extendqisi2
 365 0022 0133     		adds	r3, r3, #1
 366 0024 1370     		strb	r3, [r2]
 367 0026 7047     		bx	lr
 368              	.L27:
 170:main.c        ****         
 171:main.c        ****     }else if(comp1_sum==0 && comp0_sum==0){
 369              		.loc 1 171 0
 370 0028 064A     		ldr	r2, .L28+4
 371 002a 1278     		ldrb	r2, [r2]	@ zero_extendqisi2
 372 002c 32B9     		cbnz	r2, .L24
 373              		.loc 1 171 0 is_stmt 0 discriminator 1
 374 002e 2BB9     		cbnz	r3, .L24
 172:main.c        ****         PWM_R=70;
 375              		.loc 1 172 0 is_stmt 1
 376 0030 4622     		movs	r2, #70
 377 0032 064B     		ldr	r3, .L28+12
 378 0034 1A70     		strb	r2, [r3]
 173:main.c        ****         PWM_L=71;
 379              		.loc 1 173 0
 380 0036 4722     		movs	r2, #71
 381 0038 034B     		ldr	r3, .L28+8
 382 003a 1A70     		strb	r2, [r3]
 383              	.L24:
 384 003c 7047     		bx	lr
ARM GAS  C:\Users\dulan\AppData\Local\Temp\cc1yQeub.s 			page 11


 385              	.L29:
 386 003e 00BF     		.align	2
 387              	.L28:
 388 0040 00000000 		.word	comp0_sum
 389 0044 00000000 		.word	comp1_sum
 390 0048 00000000 		.word	PWM_L
 391 004c 00000000 		.word	PWM_R
 392              		.cfi_endproc
 393              	.LFE69:
 394              		.size	goStraight, .-goStraight
 395              		.section	.text.go_distance,"ax",%progbits
 396              		.align	2
 397              		.global	go_distance
 398              		.thumb
 399              		.thumb_func
 400              		.type	go_distance, %function
 401              	go_distance:
 402              	.LFB70:
 174:main.c        ****     }
 175:main.c        ****      
 176:main.c        **** }
 177:main.c        **** void go_distance(float32 distance){
 403              		.loc 1 177 0
 404              		.cfi_startproc
 405              		@ args = 0, pretend = 0, frame = 0
 406              		@ frame_needed = 0, uses_anonymous_args = 0
 407              		@ link register save eliminated.
 408              	.LVL14:
 178:main.c        ****     distance_M1=0;
 409              		.loc 1 178 0
 410 0000 024B     		ldr	r3, .L31
 411 0002 0022     		movs	r2, #0
 412 0004 9A61     		str	r2, [r3, #24]	@ float
 179:main.c        ****     target_diatance=distance;
 413              		.loc 1 179 0
 414 0006 5862     		str	r0, [r3, #36]	@ float
 415 0008 7047     		bx	lr
 416              	.L32:
 417 000a 00BF     		.align	2
 418              	.L31:
 419 000c 00000000 		.word	.LANCHOR0
 420              		.cfi_endproc
 421              	.LFE70:
 422              		.size	go_distance, .-go_distance
 423              		.global	__aeabi_fcmpge
 424              		.global	__aeabi_fcmpeq
 425              		.section	.text.main,"ax",%progbits
 426              		.align	2
 427              		.global	main
 428              		.thumb
 429              		.thumb_func
 430              		.type	main, %function
 431              	main:
 432              	.LFB71:
 180:main.c        **** }
 181:main.c        **** 
 182:main.c        **** 
ARM GAS  C:\Users\dulan\AppData\Local\Temp\cc1yQeub.s 			page 12


 183:main.c        **** 
 184:main.c        **** 
 185:main.c        **** int main(void)
 186:main.c        **** {
 433              		.loc 1 186 0
 434              		.cfi_startproc
 435              		@ Volatile: function does not return.
 436              		@ args = 0, pretend = 0, frame = 0
 437              		@ frame_needed = 0, uses_anonymous_args = 0
 438 0000 08B5     		push	{r3, lr}
 439              		.cfi_def_cfa_offset 8
 440              		.cfi_offset 3, -8
 441              		.cfi_offset 14, -4
 187:main.c        ****     CyGlobalIntEnable; /* Enable global interrupts. */
 442              		.loc 1 187 0
 443              		.syntax unified
 444              	@ 187 "main.c" 1
 445 0002 62B6     		CPSIE   i
 446              	@ 0 "" 2
 188:main.c        **** 
 189:main.c        ****     /* Place your initialization/startup code here (e.g. MyInst_Start()) */
 190:main.c        ****     Timer_1_Start();
 447              		.loc 1 190 0
 448              		.thumb
 449              		.syntax unified
 450 0004 FFF7FEFF 		bl	Timer_1_Start
 451              	.LVL15:
 191:main.c        ****     
 192:main.c        ****     isr_1_StartEx(isr_1_handler);
 452              		.loc 1 192 0
 453 0008 3C48     		ldr	r0, .L47
 454 000a FFF7FEFF 		bl	isr_1_StartEx
 455              	.LVL16:
 193:main.c        ****     isr_3_StartEx(isr_3_handler);
 456              		.loc 1 193 0
 457 000e 3C48     		ldr	r0, .L47+4
 458 0010 FFF7FEFF 		bl	isr_3_StartEx
 459              	.LVL17:
 194:main.c        ****     isr_2_StartEx(isr_2_handler);
 460              		.loc 1 194 0
 461 0014 3B48     		ldr	r0, .L47+8
 462 0016 FFF7FEFF 		bl	isr_2_StartEx
 463              	.LVL18:
 195:main.c        ****     
 196:main.c        ****     //start comparators
 197:main.c        ****     Comp_0_Start();
 464              		.loc 1 197 0
 465 001a FFF7FEFF 		bl	Comp_0_Start
 466              	.LVL19:
 198:main.c        ****     Comp_1_Start();
 467              		.loc 1 198 0
 468 001e FFF7FEFF 		bl	Comp_1_Start
 469              	.LVL20:
 199:main.c        ****     Comp_2_Start();
 470              		.loc 1 199 0
 471 0022 FFF7FEFF 		bl	Comp_2_Start
 472              	.LVL21:
ARM GAS  C:\Users\dulan\AppData\Local\Temp\cc1yQeub.s 			page 13


 200:main.c        ****     Comp_3_Start();
 473              		.loc 1 200 0
 474 0026 FFF7FEFF 		bl	Comp_3_Start
 475              	.LVL22:
 201:main.c        ****     
 202:main.c        ****     /*Start PWM Clk*/
 203:main.c        ****     Clock_PWM_Start(); 
 476              		.loc 1 203 0
 477 002a FFF7FEFF 		bl	Clock_PWM_Start
 478              	.LVL23:
 204:main.c        ****     //Start PWM
 205:main.c        ****     PWM_1_Start();
 479              		.loc 1 205 0
 480 002e FFF7FEFF 		bl	PWM_1_Start
 481              	.LVL24:
 206:main.c        ****     PWM_2_Start();
 482              		.loc 1 206 0
 483 0032 FFF7FEFF 		bl	PWM_2_Start
 484              	.LVL25:
 207:main.c        ****     
 208:main.c        ****     // write comparision int for MC33926 duty cycle must me larger than 10% and less than 90%
 209:main.c        **** 
 210:main.c        ****     
 211:main.c        ****     PWM_1_WritePeriod(100);
 485              		.loc 1 211 0
 486 0036 6420     		movs	r0, #100
 487 0038 FFF7FEFF 		bl	PWM_1_WritePeriod
 488              	.LVL26:
 212:main.c        ****     PWM_2_WritePeriod(100);
 489              		.loc 1 212 0
 490 003c 6420     		movs	r0, #100
 491 003e FFF7FEFF 		bl	PWM_2_WritePeriod
 492              	.LVL27:
 213:main.c        ****     
 214:main.c        ****     QuadDec_M1_Start();
 493              		.loc 1 214 0
 494 0042 FFF7FEFF 		bl	QuadDec_M1_Start
 495              	.LVL28:
 215:main.c        ****     QuadDec_M2_Start();
 496              		.loc 1 215 0
 497 0046 FFF7FEFF 		bl	QuadDec_M2_Start
 498              	.LVL29:
 216:main.c        ****     
 217:main.c        ****     go_distance(00);
 499              		.loc 1 217 0
 500 004a 0020     		movs	r0, #0
 501 004c FFF7FEFF 		bl	go_distance
 502              	.LVL30:
 503              	.L43:
 218:main.c        ****     
 219:main.c        ****     for(;;)
 220:main.c        ****     {
 221:main.c        ****           //comp0 and comp1 =0  => straight
 222:main.c        ****            //comp2=0 => left
 223:main.c        ****            //comp3=0 => right
 224:main.c        **** //           /* Place your application code here. */
 225:main.c        **** //         if(comp1_sum==0 && comp0_sum==0){
ARM GAS  C:\Users\dulan\AppData\Local\Temp\cc1yQeub.s 			page 14


 226:main.c        **** //                current_state = GO_STRAIGHT;
 227:main.c        **** //        }else if(comp2_sum == 0) {
 228:main.c        **** //                current_state = TURN_LEFT;
 229:main.c        **** //        }else if(comp3_sum==0){
 230:main.c        **** //                current_state = TURN_RIGHT;
 231:main.c        **** //        }else if(comp0_sum>0 && comp1_sum>0 && comp2_sum>0 && comp3_sum>0){
 232:main.c        **** //                current_state = STOP;
 233:main.c        **** //        }
 234:main.c        **** //        else if(comp0_sum>0 && comp1_sum==0){//s_ML out of line
 235:main.c        **** //                current_state = LEFT_ADJUST;
 236:main.c        **** //        }else if(comp0_sum==0 && comp1_sum>0){//s_MR out of line
 237:main.c        **** //                current_state = RIGHT_ADJUST;
 238:main.c        **** //        }
 239:main.c        **** //     
 240:main.c        **** //        switch (current_state) {
 241:main.c        **** //            case GO_STRAIGHT:
 242:main.c        **** //                PWM_R=70;
 243:main.c        **** //                PWM_L=71; 
 244:main.c        **** //                break;
 245:main.c        **** //            case TURN_LEFT:
 246:main.c        **** //                PWM_L=20; 
 247:main.c        **** //                PWM_R=70;
 248:main.c        **** //                CyDelay(200);
 249:main.c        **** //                break;    
 250:main.c        **** //            case TURN_RIGHT:
 251:main.c        **** //                PWM_L=70;
 252:main.c        **** //                PWM_R=20; 
 253:main.c        **** //                CyDelay(200);
 254:main.c        **** //                break;  
 255:main.c        **** //            case STOP:
 256:main.c        **** //                PWM_R=50;
 257:main.c        **** //                PWM_L=50; 
 258:main.c        **** //                break;
 259:main.c        **** //            case LEFT_ADJUST:
 260:main.c        **** //                PWM_L=PWM_L+1; 
 261:main.c        **** //                break; 
 262:main.c        **** //            case RIGHT_ADJUST:
 263:main.c        **** //                PWM_R=PWM_R+1;
 264:main.c        **** //                break; 
 265:main.c        **** //        }
 266:main.c        ****         
 267:main.c        ****             if(comp2_sum==0){
 504              		.loc 1 267 0
 505 0050 2D4B     		ldr	r3, .L47+12
 506 0052 1B78     		ldrb	r3, [r3]	@ zero_extendqisi2
 507 0054 33B9     		cbnz	r3, .L34
 268:main.c        ****                 //left_on=true;
 269:main.c        ****                 PWM_R=71;
 508              		.loc 1 269 0
 509 0056 4722     		movs	r2, #71
 510 0058 2C4B     		ldr	r3, .L47+16
 511 005a 1A70     		strb	r2, [r3]
 270:main.c        ****                 PWM_L=10;  
 512              		.loc 1 270 0
 513 005c 0A22     		movs	r2, #10
 514 005e 2C4B     		ldr	r3, .L47+20
 515 0060 1A70     		strb	r2, [r3]
ARM GAS  C:\Users\dulan\AppData\Local\Temp\cc1yQeub.s 			page 15


 516 0062 30E0     		b	.L35
 517              	.L34:
 271:main.c        ****             }else if(comp3_sum==0){
 518              		.loc 1 271 0
 519 0064 2B4A     		ldr	r2, .L47+24
 520 0066 1278     		ldrb	r2, [r2]	@ zero_extendqisi2
 521 0068 2AB9     		cbnz	r2, .L36
 272:main.c        ****                 PWM_R=0;
 522              		.loc 1 272 0
 523 006a 284B     		ldr	r3, .L47+16
 524 006c 1A70     		strb	r2, [r3]
 273:main.c        ****                 PWM_L=86;  
 525              		.loc 1 273 0
 526 006e 5622     		movs	r2, #86
 527 0070 274B     		ldr	r3, .L47+20
 528 0072 1A70     		strb	r2, [r3]
 529 0074 27E0     		b	.L35
 530              	.L36:
 274:main.c        ****             }else if(comp0_sum>0 && comp1_sum==0){//s_ML out of line
 531              		.loc 1 274 0
 532 0076 2849     		ldr	r1, .L47+28
 533 0078 0978     		ldrb	r1, [r1]	@ zero_extendqisi2
 534 007a 39B1     		cbz	r1, .L37
 535              		.loc 1 274 0 is_stmt 0 discriminator 1
 536 007c 2748     		ldr	r0, .L47+32
 537 007e 0078     		ldrb	r0, [r0]	@ zero_extendqisi2
 538 0080 20B9     		cbnz	r0, .L37
 275:main.c        ****                 PWM_L=PWM_L+1;
 539              		.loc 1 275 0 is_stmt 1
 540 0082 234A     		ldr	r2, .L47+20
 541 0084 1378     		ldrb	r3, [r2]	@ zero_extendqisi2
 542 0086 0133     		adds	r3, r3, #1
 543 0088 1370     		strb	r3, [r2]
 544 008a 1CE0     		b	.L35
 545              	.L37:
 276:main.c        ****             }else if(comp0_sum==0 && comp1_sum>0){//s_MR out of line
 546              		.loc 1 276 0
 547 008c 39B9     		cbnz	r1, .L38
 548              		.loc 1 276 0 is_stmt 0 discriminator 1
 549 008e 2348     		ldr	r0, .L47+32
 550 0090 0078     		ldrb	r0, [r0]	@ zero_extendqisi2
 551 0092 20B1     		cbz	r0, .L38
 277:main.c        ****                 PWM_R=PWM_R+1;    
 552              		.loc 1 277 0 is_stmt 1
 553 0094 1D4A     		ldr	r2, .L47+16
 554 0096 1378     		ldrb	r3, [r2]	@ zero_extendqisi2
 555 0098 0133     		adds	r3, r3, #1
 556 009a 1370     		strb	r3, [r2]
 557 009c 13E0     		b	.L35
 558              	.L38:
 278:main.c        ****             }else if(comp1_sum==0 && comp0_sum==0){//both sensors on the line
 559              		.loc 1 278 0
 560 009e 1F48     		ldr	r0, .L47+32
 561 00a0 0078     		ldrb	r0, [r0]	@ zero_extendqisi2
 562 00a2 38B9     		cbnz	r0, .L39
 563              		.loc 1 278 0 is_stmt 0 discriminator 1
 564 00a4 31B9     		cbnz	r1, .L39
ARM GAS  C:\Users\dulan\AppData\Local\Temp\cc1yQeub.s 			page 16


 279:main.c        ****                 PWM_R=70;
 565              		.loc 1 279 0 is_stmt 1
 566 00a6 4622     		movs	r2, #70
 567 00a8 184B     		ldr	r3, .L47+16
 568 00aa 1A70     		strb	r2, [r3]
 280:main.c        ****                 PWM_L=71;
 569              		.loc 1 280 0
 570 00ac 4722     		movs	r2, #71
 571 00ae 184B     		ldr	r3, .L47+20
 572 00b0 1A70     		strb	r2, [r3]
 573 00b2 08E0     		b	.L35
 574              	.L39:
 281:main.c        ****             }else if(comp0_sum>0 && comp1_sum>0 && comp2_sum>0 && comp3_sum>0){
 575              		.loc 1 281 0
 576 00b4 39B1     		cbz	r1, .L35
 577              		.loc 1 281 0 is_stmt 0 discriminator 1
 578 00b6 30B1     		cbz	r0, .L35
 579              		.loc 1 281 0 discriminator 2
 580 00b8 2BB1     		cbz	r3, .L35
 581              		.loc 1 281 0 discriminator 3
 582 00ba 22B1     		cbz	r2, .L35
 282:main.c        ****                 PWM_R=50;
 583              		.loc 1 282 0 is_stmt 1
 584 00bc 3223     		movs	r3, #50
 585 00be 134A     		ldr	r2, .L47+16
 586 00c0 1370     		strb	r3, [r2]
 283:main.c        ****                 PWM_L=50;
 587              		.loc 1 283 0
 588 00c2 134A     		ldr	r2, .L47+20
 589 00c4 1370     		strb	r3, [r2]
 590              	.L35:
 284:main.c        ****             }
 285:main.c        ****         
 286:main.c        **** 
 287:main.c        ****             if(distance_M1>=target_diatance && target_diatance!=0){
 591              		.loc 1 287 0
 592 00c6 164B     		ldr	r3, .L47+36
 593 00c8 5C6A     		ldr	r4, [r3, #36]	@ float
 594 00ca 2146     		mov	r1, r4
 595 00cc 9869     		ldr	r0, [r3, #24]	@ float
 596 00ce FFF7FEFF 		bl	__aeabi_fcmpge
 597              	.LVL31:
 598 00d2 48B1     		cbz	r0, .L40
 599              		.loc 1 287 0 is_stmt 0 discriminator 1
 600 00d4 0021     		movs	r1, #0
 601 00d6 2046     		mov	r0, r4
 602 00d8 FFF7FEFF 		bl	__aeabi_fcmpeq
 603              	.LVL32:
 604 00dc 20B9     		cbnz	r0, .L40
 288:main.c        ****                 LED_1_Write(1);
 605              		.loc 1 288 0 is_stmt 1
 606 00de 0120     		movs	r0, #1
 607 00e0 FFF7FEFF 		bl	LED_1_Write
 608              	.LVL33:
 289:main.c        ****                 stop();
 609              		.loc 1 289 0
 610 00e4 FFF7FEFF 		bl	stop
ARM GAS  C:\Users\dulan\AppData\Local\Temp\cc1yQeub.s 			page 17


 611              	.LVL34:
 612              	.L40:
 290:main.c        ****             }
 291:main.c        **** 
 292:main.c        ****         //PWM1 right wheel
 293:main.c        ****           PWM_1_WriteCompare(PWM_R);
 613              		.loc 1 293 0
 614 00e8 084B     		ldr	r3, .L47+16
 615 00ea 1878     		ldrb	r0, [r3]	@ zero_extendqisi2
 616 00ec FFF7FEFF 		bl	PWM_1_WriteCompare
 617              	.LVL35:
 294:main.c        ****         //PWM2 corresponds to left wheel
 295:main.c        ****           PWM_2_WriteCompare(PWM_L);
 618              		.loc 1 295 0
 619 00f0 074B     		ldr	r3, .L47+20
 620 00f2 1878     		ldrb	r0, [r3]	@ zero_extendqisi2
 621 00f4 FFF7FEFF 		bl	PWM_2_WriteCompare
 622              	.LVL36:
 296:main.c        ****               
 297:main.c        **** 
 298:main.c        ****     }
 623              		.loc 1 298 0
 624 00f8 AAE7     		b	.L43
 625              	.L48:
 626 00fa 00BF     		.align	2
 627              	.L47:
 628 00fc 00000000 		.word	isr_1_handler
 629 0100 00000000 		.word	isr_3_handler
 630 0104 00000000 		.word	isr_2_handler
 631 0108 00000000 		.word	comp2_sum
 632 010c 00000000 		.word	PWM_R
 633 0110 00000000 		.word	PWM_L
 634 0114 00000000 		.word	comp3_sum
 635 0118 00000000 		.word	comp0_sum
 636 011c 00000000 		.word	comp1_sum
 637 0120 00000000 		.word	.LANCHOR0
 638              		.cfi_endproc
 639              	.LFE71:
 640              		.size	main, .-main
 641              		.comm	PWM_L,1,1
 642              		.comm	PWM_R,1,1
 643              		.comm	comp3_sum,1,1
 644              		.comm	comp2_sum,1,1
 645              		.comm	comp1_sum,1,1
 646              		.comm	comp0_sum,1,1
 647              		.comm	turn_complete,1,1
 648              		.comm	middle_on,1,1
 649              		.comm	right_on,1,1
 650              		.global	left_on
 651              		.global	turn_counter
 652              		.global	count
 653              		.global	current_state
 654              		.global	counter
 655              		.global	encoder_value_sum_M2
 656              		.global	encoder_value_sum_M1
 657              		.global	speed_M2
 658              		.global	speed_M1
ARM GAS  C:\Users\dulan\AppData\Local\Temp\cc1yQeub.s 			page 18


 659              		.global	target_diatance
 660              		.global	current_distance_M2
 661              		.global	current_distance_M1
 662              		.global	distance_M2
 663              		.global	distance_M1
 664              		.global	timeInterval_s
 665              		.global	wheelCircumference_cm
 666              		.global	CPR
 667              		.global	encoderCounts_M2
 668              		.global	encoderCounts_M1
 669              		.data
 670              		.align	3
 671              		.set	.LANCHOR1,. + 0
 672              		.type	counter, %object
 673              		.size	counter, 1
 674              	counter:
 675 0000 01       		.byte	1
 676 0001 000000   		.space	3
 677              		.type	CPR, %object
 678              		.size	CPR, 4
 679              	CPR:
 680 0004 E4000000 		.word	228
 681              		.type	wheelCircumference_cm, %object
 682              		.size	wheelCircumference_cm, 4
 683              	wheelCircumference_cm:
 684 0008 7201A241 		.word	1101136242
 685              		.type	current_state, %object
 686              		.size	current_state, 1
 687              	current_state:
 688 000c 05       		.byte	5
 689 000d 000000   		.space	3
 690              		.type	timeInterval_s, %object
 691              		.size	timeInterval_s, 8
 692              	timeInterval_s:
 693 0010 0C022B87 		.word	-2027224564
 694 0014 16D92540 		.word	1076222230
 695              		.bss
 696              		.align	2
 697              		.set	.LANCHOR0,. + 0
 698              		.type	left_on, %object
 699              		.size	left_on, 1
 700              	left_on:
 701 0000 00       		.space	1
 702 0001 000000   		.space	3
 703              		.type	turn_counter, %object
 704              		.size	turn_counter, 4
 705              	turn_counter:
 706 0004 00000000 		.space	4
 707              		.type	encoderCounts_M1, %object
 708              		.size	encoderCounts_M1, 4
 709              	encoderCounts_M1:
 710 0008 00000000 		.space	4
 711              		.type	encoderCounts_M2, %object
 712              		.size	encoderCounts_M2, 4
 713              	encoderCounts_M2:
 714 000c 00000000 		.space	4
 715              		.type	encoder_value_sum_M1, %object
ARM GAS  C:\Users\dulan\AppData\Local\Temp\cc1yQeub.s 			page 19


 716              		.size	encoder_value_sum_M1, 4
 717              	encoder_value_sum_M1:
 718 0010 00000000 		.space	4
 719              		.type	encoder_value_sum_M2, %object
 720              		.size	encoder_value_sum_M2, 4
 721              	encoder_value_sum_M2:
 722 0014 00000000 		.space	4
 723              		.type	distance_M1, %object
 724              		.size	distance_M1, 4
 725              	distance_M1:
 726 0018 00000000 		.space	4
 727              		.type	distance_M2, %object
 728              		.size	distance_M2, 4
 729              	distance_M2:
 730 001c 00000000 		.space	4
 731              		.type	count, %object
 732              		.size	count, 4
 733              	count:
 734 0020 00000000 		.space	4
 735              		.type	target_diatance, %object
 736              		.size	target_diatance, 4
 737              	target_diatance:
 738 0024 00000000 		.space	4
 739              		.type	speed_M2, %object
 740              		.size	speed_M2, 4
 741              	speed_M2:
 742 0028 00000000 		.space	4
 743              		.type	speed_M1, %object
 744              		.size	speed_M1, 4
 745              	speed_M1:
 746 002c 00000000 		.space	4
 747              		.type	current_distance_M2, %object
 748              		.size	current_distance_M2, 4
 749              	current_distance_M2:
 750 0030 00000000 		.space	4
 751              		.type	current_distance_M1, %object
 752              		.size	current_distance_M1, 4
 753              	current_distance_M1:
 754 0034 00000000 		.space	4
 755              		.text
 756              	.Letext0:
 757              		.file 2 "c:\\program files (x86)\\cypress\\psoc creator\\4.4\\psoc creator\\import\\gnu\\arm\\5.4.
 758              		.file 3 "c:\\program files (x86)\\cypress\\psoc creator\\4.4\\psoc creator\\import\\gnu\\arm\\5.4.
 759              		.file 4 "Generated_Source\\PSoC5/cytypes.h"
 760              		.file 5 "Generated_Source\\PSoC5/core_cm3.h"
 761              		.file 6 "Generated_Source\\PSoC5/QuadDec_M1.h"
 762              		.file 7 "Generated_Source\\PSoC5/QuadDec_M2.h"
 763              		.file 8 "Generated_Source\\PSoC5/Timer_1.h"
 764              		.file 9 "Generated_Source\\PSoC5/Comp_0.h"
 765              		.file 10 "Generated_Source\\PSoC5/Comp_1.h"
 766              		.file 11 "Generated_Source\\PSoC5/Comp_2.h"
 767              		.file 12 "Generated_Source\\PSoC5/Comp_3.h"
 768              		.file 13 "Generated_Source\\PSoC5/isr_1.h"
 769              		.file 14 "Generated_Source\\PSoC5/isr_3.h"
 770              		.file 15 "Generated_Source\\PSoC5/isr_2.h"
 771              		.file 16 "Generated_Source\\PSoC5/Clock_PWM.h"
 772              		.file 17 "Generated_Source\\PSoC5/PWM_1.h"
ARM GAS  C:\Users\dulan\AppData\Local\Temp\cc1yQeub.s 			page 20


 773              		.file 18 "Generated_Source\\PSoC5/PWM_2.h"
 774              		.file 19 "Generated_Source\\PSoC5/LED_1.h"