ARM GAS  C:\Users\umasu\AppData\Local\Temp\ccua18co.s 			page 1


   1              		.syntax unified
   2              		.cpu cortex-m3
   3              		.fpu softvfp
   4              		.eabi_attribute 20, 1
   5              		.eabi_attribute 21, 1
   6              		.eabi_attribute 23, 3
   7              		.eabi_attribute 24, 1
   8              		.eabi_attribute 25, 1
   9              		.eabi_attribute 26, 1
  10              		.eabi_attribute 30, 1
  11              		.eabi_attribute 34, 1
  12              		.eabi_attribute 18, 4
  13              		.thumb
  14              		.syntax unified
  15              		.file	"main.c"
  16              		.text
  17              	.Ltext0:
  18              		.cfi_sections	.debug_frame
  19              		.section	.text.isr_2_handler,"ax",%progbits
  20              		.align	2
  21              		.global	isr_2_handler
  22              		.thumb
  23              		.thumb_func
  24              		.type	isr_2_handler, %function
  25              	isr_2_handler:
  26              	.LFB65:
  27              		.file 1 "main.c"
   1:main.c        **** /* ========================================
   2:main.c        ****  *
   3:main.c        ****  * Copyright YOUR COMPANY, THE YEAR
   4:main.c        ****  * All Rights Reserved
   5:main.c        ****  * UNPUBLISHED, LICENSED SOFTWARE.
   6:main.c        ****  *
   7:main.c        ****  * CONFIDENTIAL AND PROPRIETARY INFORMATION
   8:main.c        ****  * WHICH IS THE PROPERTY OF your company.
   9:main.c        ****  *
  10:main.c        ****  * ========================================
  11:main.c        **** */
  12:main.c        **** /* ========================================
  13:main.c        ****  * Fully working code: 
  14:main.c        ****  * PWM      : 
  15:main.c        ****  * Encoder  : 
  16:main.c        ****  * ADC      :
  17:main.c        ****  * USB      : port displays speed and position.
  18:main.c        ****  * CMD: "PW xx"
  19:main.c        ****  * Copyright Univ of Auckland, 2016
  20:main.c        ****  * All Rights Reserved
  21:main.c        ****  * UNPUBLISHED, LICENSED SOFTWARE.
  22:main.c        ****  *
  23:main.c        ****  * CONFIDENTIAL AND PROPRIETARY INFORMATION
  24:main.c        ****  * WHICH IS THE PROPERTY OF Univ of Auckland.
  25:main.c        ****  *
  26:main.c        ****  * ========================================
  27:main.c        **** */
  28:main.c        **** #include <stdio.h>
  29:main.c        **** #include <string.h>
  30:main.c        **** #include <stdlib.h>
ARM GAS  C:\Users\umasu\AppData\Local\Temp\ccua18co.s 			page 2


  31:main.c        **** #include <project.h>
  32:main.c        **** #include <stdbool.h>
  33:main.c        **** #include <math.h>
  34:main.c        **** #include "project.h"
  35:main.c        **** 
  36:main.c        **** //distance calculation paras
  37:main.c        **** int32 encoderCounts_M1 = 0;  
  38:main.c        **** int32 encoderCounts_M2 = 0;  
  39:main.c        **** int32 CPR = 228;  // Adjusted for 4x resolution(228/4)
  40:main.c        **** float wheelCircumference_cm = (M_PI*64.46)/10;// wheel circumference wheelDiameter_mm = 64.46)
  41:main.c        **** double timeInterval_s = 10.924;  // Effective time interval( (timer period )2.731*4)
  42:main.c        **** float32  distance_M1 = 0;
  43:main.c        **** float32  distance_M2 = 0;
  44:main.c        **** float32  current_distance_M1 = 0;
  45:main.c        **** float32  current_distance_M2 = 0;
  46:main.c        **** float32 target_diatance = 600;//cm
  47:main.c        **** float32 speed_M1 = 0;
  48:main.c        **** float32 speed_M2 = 0;
  49:main.c        **** int32 encoder_value_sum_M1 = 0;
  50:main.c        **** int32 encoder_value_sum_M2 = 0;
  51:main.c        **** int32 prev_encoder_value_M1 = 0;
  52:main.c        **** int32 prev_encoder_value_M2 = 0;
  53:main.c        **** uint8 counter = 1;
  54:main.c        **** float32 total_distance = 0;
  55:main.c        **** 
  56:main.c        **** 
  57:main.c        **** 
  58:main.c        **** 
  59:main.c        **** 
  60:main.c        **** 
  61:main.c        **** uint32 count = 0;
  62:main.c        **** uint32 turn_counter = 0;
  63:main.c        **** bool left_on=0;
  64:main.c        **** bool right_on;
  65:main.c        **** bool middle_on;
  66:main.c        **** bool turn_complete;
  67:main.c        **** 
  68:main.c        **** uint8 comp0_sum;
  69:main.c        **** uint8 comp1_sum;
  70:main.c        **** uint8 comp2_sum;
  71:main.c        **** uint8 comp3_sum;
  72:main.c        **** 
  73:main.c        **** uint8 PWM_R=65;
  74:main.c        **** uint8 PWM_L=66;
  75:main.c        **** 
  76:main.c        **** 
  77:main.c        **** CY_ISR(isr_3_handler) {
  78:main.c        ****     if (counter < 10){
  79:main.c        ****         counter++;
  80:main.c        ****     }else{
  81:main.c        ****         counter = 1;
  82:main.c        ****         // Encoder counts (negative due to counterclockwise rotation)
  83:main.c        ****         encoderCounts_M1 = abs(QuadDec_M1_GetCounter());//QuadDec_M1_GetCounter();
  84:main.c        ****         encoderCounts_M2 = abs(QuadDec_M2_GetCounter());
  85:main.c        ****         
  86:main.c        ****         
  87:main.c        ****         
ARM GAS  C:\Users\umasu\AppData\Local\Temp\ccua18co.s 			page 3


  88:main.c        **** //        
  89:main.c        **** //        // sum of encodercounts
  90:main.c        **** //        encoder_value_sum_M1 += encoderCounts_M1 - prev_encoder_value_M1;
  91:main.c        **** //        encoder_value_sum_M2 += encoderCounts_M2 - prev_encoder_value_M2;
  92:main.c        ****         
  93:main.c        ****         
  94:main.c        ****         
  95:main.c        ****         // distance calculations 
  96:main.c        ****         distance_M1 = (encoderCounts_M1 - prev_encoder_value_M1/CPR) * wheelCircumference_cm;
  97:main.c        ****         distance_M2 = (encoder_value_sum_M2/CPR) * wheelCircumference_cm;
  98:main.c        **** 
  99:main.c        ****         total_distance += distance_M1;
 100:main.c        ****         
 101:main.c        ****         //update prev encoder value
 102:main.c        ****         prev_encoder_value_M1 = encoderCounts_M1;
 103:main.c        ****         prev_encoder_value_M2 = encoderCounts_M2;
 104:main.c        ****         
 105:main.c        ****         
 106:main.c        **** //        //reset the encoder counters 
 107:main.c        **** //        QuadDec_M1_SetCounter(0);
 108:main.c        **** //        QuadDec_M2_SetCounter(0);     
 109:main.c        ****     }
 110:main.c        ****         Timer_1_ReadStatusRegister();
 111:main.c        **** }
 112:main.c        **** 
 113:main.c        **** 
 114:main.c        **** CY_ISR(isr_2_handler) {
  28              		.loc 1 114 0
  29              		.cfi_startproc
  30              		@ args = 0, pretend = 0, frame = 0
  31              		@ frame_needed = 0, uses_anonymous_args = 0
  32              		@ link register save eliminated.
  33 0000 7047     		bx	lr
  34              		.cfi_endproc
  35              	.LFE65:
  36              		.size	isr_2_handler, .-isr_2_handler
  37              		.global	__aeabi_i2f
  38              		.global	__aeabi_fmul
  39              		.global	__aeabi_fadd
  40 0002 00BF     		.section	.text.isr_3_handler,"ax",%progbits
  41              		.align	2
  42              		.global	isr_3_handler
  43              		.thumb
  44              		.thumb_func
  45              		.type	isr_3_handler, %function
  46              	isr_3_handler:
  47              	.LFB64:
  77:main.c        ****     if (counter < 10){
  48              		.loc 1 77 0
  49              		.cfi_startproc
  50              		@ args = 0, pretend = 0, frame = 0
  51              		@ frame_needed = 0, uses_anonymous_args = 0
  77:main.c        ****     if (counter < 10){
  52              		.loc 1 77 0
  53 0000 2DE9F843 		push	{r3, r4, r5, r6, r7, r8, r9, lr}
  54              		.cfi_def_cfa_offset 32
  55              		.cfi_offset 3, -32
ARM GAS  C:\Users\umasu\AppData\Local\Temp\ccua18co.s 			page 4


  56              		.cfi_offset 4, -28
  57              		.cfi_offset 5, -24
  58              		.cfi_offset 6, -20
  59              		.cfi_offset 7, -16
  60              		.cfi_offset 8, -12
  61              		.cfi_offset 9, -8
  62              		.cfi_offset 14, -4
  78:main.c        ****         counter++;
  63              		.loc 1 78 0
  64 0004 1E4B     		ldr	r3, .L6
  65 0006 1B78     		ldrb	r3, [r3]	@ zero_extendqisi2
  66 0008 092B     		cmp	r3, #9
  67 000a 03D8     		bhi	.L3
  79:main.c        ****     }else{
  68              		.loc 1 79 0
  69 000c 0133     		adds	r3, r3, #1
  70 000e 1C4A     		ldr	r2, .L6
  71 0010 1370     		strb	r3, [r2]
  72 0012 30E0     		b	.L4
  73              	.L3:
  81:main.c        ****         // Encoder counts (negative due to counterclockwise rotation)
  74              		.loc 1 81 0
  75 0014 1A4D     		ldr	r5, .L6
  76 0016 0123     		movs	r3, #1
  77 0018 2B70     		strb	r3, [r5]
  83:main.c        ****         encoderCounts_M2 = abs(QuadDec_M2_GetCounter());
  78              		.loc 1 83 0
  79 001a FFF7FEFF 		bl	QuadDec_M1_GetCounter
  80              	.LVL0:
  81 001e 0028     		cmp	r0, #0
  82 0020 B8BF     		it	lt
  83 0022 4042     		rsblt	r0, r0, #0
  84 0024 174C     		ldr	r4, .L6+4
  85 0026 2060     		str	r0, [r4]
  84:main.c        ****         
  86              		.loc 1 84 0
  87 0028 FFF7FEFF 		bl	QuadDec_M2_GetCounter
  88              	.LVL1:
  89 002c 80EAE076 		eor	r6, r0, r0, asr #31
  90 0030 A6EBE076 		sub	r6, r6, r0, asr #31
  91 0034 6660     		str	r6, [r4, #4]
  96:main.c        ****         distance_M2 = (encoder_value_sum_M2/CPR) * wheelCircumference_cm;
  92              		.loc 1 96 0
  93 0036 2768     		ldr	r7, [r4]
  94 0038 D5F80480 		ldr	r8, [r5, #4]
  95 003c A068     		ldr	r0, [r4, #8]
  96 003e 90FBF8F0 		sdiv	r0, r0, r8
  97 0042 D5F80890 		ldr	r9, [r5, #8]	@ float
  98 0046 381A     		subs	r0, r7, r0
  99 0048 FFF7FEFF 		bl	__aeabi_i2f
 100              	.LVL2:
 101 004c 4946     		mov	r1, r9
 102 004e FFF7FEFF 		bl	__aeabi_fmul
 103              	.LVL3:
 104 0052 0546     		mov	r5, r0
 105 0054 E060     		str	r0, [r4, #12]	@ float
  97:main.c        **** 
ARM GAS  C:\Users\umasu\AppData\Local\Temp\ccua18co.s 			page 5


 106              		.loc 1 97 0
 107 0056 2069     		ldr	r0, [r4, #16]
 108 0058 90FBF8F0 		sdiv	r0, r0, r8
 109 005c FFF7FEFF 		bl	__aeabi_i2f
 110              	.LVL4:
 111 0060 4946     		mov	r1, r9
 112 0062 FFF7FEFF 		bl	__aeabi_fmul
 113              	.LVL5:
 114 0066 6061     		str	r0, [r4, #20]	@ float
  99:main.c        ****         
 115              		.loc 1 99 0
 116 0068 2946     		mov	r1, r5
 117 006a A069     		ldr	r0, [r4, #24]	@ float
 118 006c FFF7FEFF 		bl	__aeabi_fadd
 119              	.LVL6:
 120 0070 A061     		str	r0, [r4, #24]	@ float
 102:main.c        ****         prev_encoder_value_M2 = encoderCounts_M2;
 121              		.loc 1 102 0
 122 0072 A760     		str	r7, [r4, #8]
 103:main.c        ****         
 123              		.loc 1 103 0
 124 0074 E661     		str	r6, [r4, #28]
 125              	.L4:
 110:main.c        **** }
 126              		.loc 1 110 0
 127 0076 FFF7FEFF 		bl	Timer_1_ReadStatusRegister
 128              	.LVL7:
 129 007a BDE8F883 		pop	{r3, r4, r5, r6, r7, r8, r9, pc}
 130              	.L7:
 131 007e 00BF     		.align	2
 132              	.L6:
 133 0080 00000000 		.word	.LANCHOR0
 134 0084 00000000 		.word	.LANCHOR1
 135              		.cfi_endproc
 136              	.LFE64:
 137              		.size	isr_3_handler, .-isr_3_handler
 138              		.section	.text.isr_1_handler,"ax",%progbits
 139              		.align	2
 140              		.global	isr_1_handler
 141              		.thumb
 142              		.thumb_func
 143              		.type	isr_1_handler, %function
 144              	isr_1_handler:
 145              	.LFB66:
 115:main.c        **** //    //every 1ms 
 116:main.c        **** //    if(turn_counter==400){
 117:main.c        **** //         PWM_L=30;
 118:main.c        **** //        PWM_R=70; 
 119:main.c        **** //    }
 120:main.c        **** //    if(turn_counter==950){
 121:main.c        **** //        PWM_L=50;
 122:main.c        **** //        PWM_R=50;
 123:main.c        **** //    }
 124:main.c        **** //    
 125:main.c        **** //        
 126:main.c        **** //    
 127:main.c        **** //    turn_counter++;
ARM GAS  C:\Users\umasu\AppData\Local\Temp\ccua18co.s 			page 6


 128:main.c        **** //    
 129:main.c        **** }
 130:main.c        **** 
 131:main.c        **** 
 132:main.c        **** CY_ISR(isr_1_handler) {
 146              		.loc 1 132 0
 147              		.cfi_startproc
 148              		@ args = 0, pretend = 0, frame = 0
 149              		@ frame_needed = 0, uses_anonymous_args = 0
 150 0000 08B5     		push	{r3, lr}
 151              		.cfi_def_cfa_offset 8
 152              		.cfi_offset 3, -8
 153              		.cfi_offset 14, -4
 133:main.c        ****     //every 1ms 
 134:main.c        ****     
 135:main.c        ****     //check comp values every 1ms
 136:main.c        ****     comp0_sum+=Comp_0_GetCompare();
 154              		.loc 1 136 0
 155 0002 FFF7FEFF 		bl	Comp_0_GetCompare
 156              	.LVL8:
 157 0006 164A     		ldr	r2, .L11
 158 0008 1378     		ldrb	r3, [r2]	@ zero_extendqisi2
 159 000a 1844     		add	r0, r0, r3
 160 000c 1070     		strb	r0, [r2]
 137:main.c        ****     comp1_sum+=Comp_1_GetCompare();
 161              		.loc 1 137 0
 162 000e FFF7FEFF 		bl	Comp_1_GetCompare
 163              	.LVL9:
 164 0012 144A     		ldr	r2, .L11+4
 165 0014 1378     		ldrb	r3, [r2]	@ zero_extendqisi2
 166 0016 1844     		add	r0, r0, r3
 167 0018 1070     		strb	r0, [r2]
 138:main.c        ****     comp2_sum+=Comp_2_GetCompare();
 168              		.loc 1 138 0
 169 001a FFF7FEFF 		bl	Comp_2_GetCompare
 170              	.LVL10:
 171 001e 124A     		ldr	r2, .L11+8
 172 0020 1378     		ldrb	r3, [r2]	@ zero_extendqisi2
 173 0022 1844     		add	r0, r0, r3
 174 0024 1070     		strb	r0, [r2]
 139:main.c        ****     comp3_sum+=Comp_3_GetCompare();
 175              		.loc 1 139 0
 176 0026 FFF7FEFF 		bl	Comp_3_GetCompare
 177              	.LVL11:
 178 002a 104A     		ldr	r2, .L11+12
 179 002c 1378     		ldrb	r3, [r2]	@ zero_extendqisi2
 180 002e 1844     		add	r0, r0, r3
 181 0030 1070     		strb	r0, [r2]
 140:main.c        ****     
 141:main.c        ****     
 142:main.c        ****     if(count==3){
 182              		.loc 1 142 0
 183 0032 0F4B     		ldr	r3, .L11+16
 184 0034 1B6A     		ldr	r3, [r3, #32]
 185 0036 032B     		cmp	r3, #3
 186 0038 0AD1     		bne	.L9
 143:main.c        ****         //reset to check again every 6ms
ARM GAS  C:\Users\umasu\AppData\Local\Temp\ccua18co.s 			page 7


 144:main.c        ****         comp0_sum=0;
 187              		.loc 1 144 0
 188 003a 0023     		movs	r3, #0
 189 003c 084A     		ldr	r2, .L11
 190 003e 1370     		strb	r3, [r2]
 145:main.c        ****         comp1_sum=0;
 191              		.loc 1 145 0
 192 0040 084A     		ldr	r2, .L11+4
 193 0042 1370     		strb	r3, [r2]
 146:main.c        ****         comp2_sum=0;
 194              		.loc 1 146 0
 195 0044 084A     		ldr	r2, .L11+8
 196 0046 1370     		strb	r3, [r2]
 147:main.c        ****         comp3_sum=0;
 197              		.loc 1 147 0
 198 0048 084A     		ldr	r2, .L11+12
 199 004a 1370     		strb	r3, [r2]
 148:main.c        ****         count=0;
 200              		.loc 1 148 0
 201 004c 084A     		ldr	r2, .L11+16
 202 004e 1362     		str	r3, [r2, #32]
 203              	.L9:
 149:main.c        ****     }
 150:main.c        ****    
 151:main.c        **** 
 152:main.c        ****     count++;
 204              		.loc 1 152 0
 205 0050 074A     		ldr	r2, .L11+16
 206 0052 136A     		ldr	r3, [r2, #32]
 207 0054 0133     		adds	r3, r3, #1
 208 0056 1362     		str	r3, [r2, #32]
 153:main.c        ****     Timer_1_ReadStatusRegister();
 209              		.loc 1 153 0
 210 0058 FFF7FEFF 		bl	Timer_1_ReadStatusRegister
 211              	.LVL12:
 212 005c 08BD     		pop	{r3, pc}
 213              	.L12:
 214 005e 00BF     		.align	2
 215              	.L11:
 216 0060 00000000 		.word	comp0_sum
 217 0064 00000000 		.word	comp1_sum
 218 0068 00000000 		.word	comp2_sum
 219 006c 00000000 		.word	comp3_sum
 220 0070 00000000 		.word	.LANCHOR1
 221              		.cfi_endproc
 222              	.LFE66:
 223              		.size	isr_1_handler, .-isr_1_handler
 224              		.section	.text.stop,"ax",%progbits
 225              		.align	2
 226              		.global	stop
 227              		.thumb
 228              		.thumb_func
 229              		.type	stop, %function
 230              	stop:
 231              	.LFB67:
 154:main.c        **** }
 155:main.c        **** 
ARM GAS  C:\Users\umasu\AppData\Local\Temp\ccua18co.s 			page 8


 156:main.c        **** void stop(){
 232              		.loc 1 156 0
 233              		.cfi_startproc
 234              		@ args = 0, pretend = 0, frame = 0
 235              		@ frame_needed = 0, uses_anonymous_args = 0
 236              		@ link register save eliminated.
 157:main.c        ****     PWM_R=50;
 237              		.loc 1 157 0
 238 0000 024B     		ldr	r3, .L14
 239 0002 3222     		movs	r2, #50
 240 0004 1A73     		strb	r2, [r3, #12]
 158:main.c        ****     PWM_L=50;
 241              		.loc 1 158 0
 242 0006 5A73     		strb	r2, [r3, #13]
 243 0008 7047     		bx	lr
 244              	.L15:
 245 000a 00BF     		.align	2
 246              	.L14:
 247 000c 00000000 		.word	.LANCHOR0
 248              		.cfi_endproc
 249              	.LFE67:
 250              		.size	stop, .-stop
 251              		.section	.text.turnLeft,"ax",%progbits
 252              		.align	2
 253              		.global	turnLeft
 254              		.thumb
 255              		.thumb_func
 256              		.type	turnLeft, %function
 257              	turnLeft:
 258              	.LFB68:
 159:main.c        **** }
 160:main.c        **** 
 161:main.c        **** 
 162:main.c        **** 
 163:main.c        **** 
 164:main.c        **** 
 165:main.c        **** void turnLeft(){
 259              		.loc 1 165 0
 260              		.cfi_startproc
 261              		@ args = 0, pretend = 0, frame = 0
 262              		@ frame_needed = 0, uses_anonymous_args = 0
 263 0000 08B5     		push	{r3, lr}
 264              		.cfi_def_cfa_offset 8
 265              		.cfi_offset 3, -8
 266              		.cfi_offset 14, -4
 166:main.c        ****     isr_2_StartEx(isr_2_handler);
 267              		.loc 1 166 0
 268 0002 0248     		ldr	r0, .L18
 269 0004 FFF7FEFF 		bl	isr_2_StartEx
 270              	.LVL13:
 271 0008 08BD     		pop	{r3, pc}
 272              	.L19:
 273 000a 00BF     		.align	2
 274              	.L18:
 275 000c 00000000 		.word	isr_2_handler
 276              		.cfi_endproc
 277              	.LFE68:
ARM GAS  C:\Users\umasu\AppData\Local\Temp\ccua18co.s 			page 9


 278              		.size	turnLeft, .-turnLeft
 279              		.section	.text.goStraight,"ax",%progbits
 280              		.align	2
 281              		.global	goStraight
 282              		.thumb
 283              		.thumb_func
 284              		.type	goStraight, %function
 285              	goStraight:
 286              	.LFB69:
 167:main.c        ****     
 168:main.c        **** }
 169:main.c        **** 
 170:main.c        **** void goStraight(){
 287              		.loc 1 170 0
 288              		.cfi_startproc
 289              		@ args = 0, pretend = 0, frame = 0
 290              		@ frame_needed = 0, uses_anonymous_args = 0
 291              		@ link register save eliminated.
 171:main.c        ****     //comp0==>middle left comp1==>middle right
 172:main.c        ****     if(comp0_sum>0 && comp1_sum==0){//s_ML out of line
 292              		.loc 1 172 0
 293 0000 0E4B     		ldr	r3, .L24
 294 0002 1B78     		ldrb	r3, [r3]	@ zero_extendqisi2
 295 0004 3BB1     		cbz	r3, .L21
 296              		.loc 1 172 0 is_stmt 0 discriminator 1
 297 0006 0E4A     		ldr	r2, .L24+4
 298 0008 1278     		ldrb	r2, [r2]	@ zero_extendqisi2
 299 000a 22B9     		cbnz	r2, .L21
 173:main.c        ****         PWM_L=PWM_L+1;
 300              		.loc 1 173 0 is_stmt 1
 301 000c 0D4A     		ldr	r2, .L24+8
 302 000e 537B     		ldrb	r3, [r2, #13]	@ zero_extendqisi2
 303 0010 0133     		adds	r3, r3, #1
 304 0012 5373     		strb	r3, [r2, #13]
 305 0014 7047     		bx	lr
 306              	.L21:
 174:main.c        ****     }else if(comp0_sum==0 && comp1_sum>0){//s_MR out of line
 307              		.loc 1 174 0
 308 0016 3BB9     		cbnz	r3, .L23
 309              		.loc 1 174 0 is_stmt 0 discriminator 1
 310 0018 094A     		ldr	r2, .L24+4
 311 001a 1278     		ldrb	r2, [r2]	@ zero_extendqisi2
 312 001c 22B1     		cbz	r2, .L23
 175:main.c        ****         PWM_R=PWM_R+1;
 313              		.loc 1 175 0 is_stmt 1
 314 001e 094A     		ldr	r2, .L24+8
 315 0020 137B     		ldrb	r3, [r2, #12]	@ zero_extendqisi2
 316 0022 0133     		adds	r3, r3, #1
 317 0024 1373     		strb	r3, [r2, #12]
 318 0026 7047     		bx	lr
 319              	.L23:
 176:main.c        ****         
 177:main.c        ****     }else if(comp1_sum==0 && comp0_sum==0){
 320              		.loc 1 177 0
 321 0028 054A     		ldr	r2, .L24+4
 322 002a 1278     		ldrb	r2, [r2]	@ zero_extendqisi2
 323 002c 2AB9     		cbnz	r2, .L20
ARM GAS  C:\Users\umasu\AppData\Local\Temp\ccua18co.s 			page 10


 324              		.loc 1 177 0 is_stmt 0 discriminator 1
 325 002e 23B9     		cbnz	r3, .L20
 178:main.c        ****         PWM_R=80;
 326              		.loc 1 178 0 is_stmt 1
 327 0030 044B     		ldr	r3, .L24+8
 328 0032 5022     		movs	r2, #80
 329 0034 1A73     		strb	r2, [r3, #12]
 179:main.c        ****         PWM_L=81;
 330              		.loc 1 179 0
 331 0036 5122     		movs	r2, #81
 332 0038 5A73     		strb	r2, [r3, #13]
 333              	.L20:
 334 003a 7047     		bx	lr
 335              	.L25:
 336              		.align	2
 337              	.L24:
 338 003c 00000000 		.word	comp0_sum
 339 0040 00000000 		.word	comp1_sum
 340 0044 00000000 		.word	.LANCHOR0
 341              		.cfi_endproc
 342              	.LFE69:
 343              		.size	goStraight, .-goStraight
 344              		.section	.text.turnRight,"ax",%progbits
 345              		.align	2
 346              		.global	turnRight
 347              		.thumb
 348              		.thumb_func
 349              		.type	turnRight, %function
 350              	turnRight:
 351              	.LFB70:
 180:main.c        ****     }
 181:main.c        ****      
 182:main.c        **** }
 183:main.c        **** 
 184:main.c        **** void turnRight(){
 352              		.loc 1 184 0
 353              		.cfi_startproc
 354              		@ args = 0, pretend = 0, frame = 0
 355              		@ frame_needed = 0, uses_anonymous_args = 0
 356              		@ link register save eliminated.
 357              	.L28:
 185:main.c        ****         
 186:main.c        ****     PWM_R=30;
 187:main.c        ****     PWM_L=71;
 188:main.c        ****     while(comp1_sum==0 && comp0_sum==0);
 358              		.loc 1 188 0 discriminator 2
 359 0000 054B     		ldr	r3, .L29
 360 0002 1B78     		ldrb	r3, [r3]	@ zero_extendqisi2
 361 0004 1BB9     		cbnz	r3, .L27
 362              		.loc 1 188 0 is_stmt 0 discriminator 1
 363 0006 054B     		ldr	r3, .L29+4
 364 0008 1B78     		ldrb	r3, [r3]	@ zero_extendqisi2
 365 000a 002B     		cmp	r3, #0
 366 000c F8D0     		beq	.L28
 367              	.L27:
 189:main.c        ****     PWM_R=50;
 368              		.loc 1 189 0 is_stmt 1
ARM GAS  C:\Users\umasu\AppData\Local\Temp\ccua18co.s 			page 11


 369 000e 044B     		ldr	r3, .L29+8
 370 0010 3222     		movs	r2, #50
 371 0012 1A73     		strb	r2, [r3, #12]
 190:main.c        ****     PWM_L=50;
 372              		.loc 1 190 0
 373 0014 5A73     		strb	r2, [r3, #13]
 374 0016 7047     		bx	lr
 375              	.L30:
 376              		.align	2
 377              	.L29:
 378 0018 00000000 		.word	comp1_sum
 379 001c 00000000 		.word	comp0_sum
 380 0020 00000000 		.word	.LANCHOR0
 381              		.cfi_endproc
 382              	.LFE70:
 383              		.size	turnRight, .-turnRight
 384              		.global	__aeabi_fcmpge
 385              		.section	.text.main,"ax",%progbits
 386              		.align	2
 387              		.global	main
 388              		.thumb
 389              		.thumb_func
 390              		.type	main, %function
 391              	main:
 392              	.LFB71:
 191:main.c        ****     
 192:main.c        **** }
 193:main.c        **** 
 194:main.c        **** 
 195:main.c        **** 
 196:main.c        **** int main(void)
 197:main.c        **** {
 393              		.loc 1 197 0
 394              		.cfi_startproc
 395              		@ Volatile: function does not return.
 396              		@ args = 0, pretend = 0, frame = 0
 397              		@ frame_needed = 0, uses_anonymous_args = 0
 398 0000 08B5     		push	{r3, lr}
 399              		.cfi_def_cfa_offset 8
 400              		.cfi_offset 3, -8
 401              		.cfi_offset 14, -4
 198:main.c        ****     CyGlobalIntEnable; /* Enable global interrupts. */
 402              		.loc 1 198 0
 403              		.syntax unified
 404              	@ 198 "main.c" 1
 405 0002 62B6     		CPSIE   i
 406              	@ 0 "" 2
 199:main.c        **** 
 200:main.c        ****     /* Place your initialization/startup code here (e.g. MyInst_Start()) */
 201:main.c        ****     Timer_1_Start();
 407              		.loc 1 201 0
 408              		.thumb
 409              		.syntax unified
 410 0004 FFF7FEFF 		bl	Timer_1_Start
 411              	.LVL14:
 202:main.c        ****     isr_1_StartEx(isr_1_handler);
 412              		.loc 1 202 0
ARM GAS  C:\Users\umasu\AppData\Local\Temp\ccua18co.s 			page 12


 413 0008 1A48     		ldr	r0, .L39
 414 000a FFF7FEFF 		bl	isr_1_StartEx
 415              	.LVL15:
 203:main.c        ****     isr_3_StartEx(isr_3_handler);
 416              		.loc 1 203 0
 417 000e 1A48     		ldr	r0, .L39+4
 418 0010 FFF7FEFF 		bl	isr_3_StartEx
 419              	.LVL16:
 204:main.c        ****     
 205:main.c        ****     //start comparators
 206:main.c        ****     Comp_0_Start();
 420              		.loc 1 206 0
 421 0014 FFF7FEFF 		bl	Comp_0_Start
 422              	.LVL17:
 207:main.c        ****     Comp_1_Start();
 423              		.loc 1 207 0
 424 0018 FFF7FEFF 		bl	Comp_1_Start
 425              	.LVL18:
 208:main.c        ****     Comp_2_Start();
 426              		.loc 1 208 0
 427 001c FFF7FEFF 		bl	Comp_2_Start
 428              	.LVL19:
 209:main.c        ****     Comp_3_Start();
 429              		.loc 1 209 0
 430 0020 FFF7FEFF 		bl	Comp_3_Start
 431              	.LVL20:
 210:main.c        ****     
 211:main.c        ****     /*Start PWM Clk*/
 212:main.c        ****     Clock_PWM_Start(); 
 432              		.loc 1 212 0
 433 0024 FFF7FEFF 		bl	Clock_PWM_Start
 434              	.LVL21:
 213:main.c        ****     //Start PWM
 214:main.c        ****     PWM_1_Start();
 435              		.loc 1 214 0
 436 0028 FFF7FEFF 		bl	PWM_1_Start
 437              	.LVL22:
 215:main.c        ****     PWM_2_Start();
 438              		.loc 1 215 0
 439 002c FFF7FEFF 		bl	PWM_2_Start
 440              	.LVL23:
 216:main.c        ****     
 217:main.c        ****     // write comparision int for MC33926 duty cycle must me larger than 10% and less than 90%
 218:main.c        **** 
 219:main.c        ****     
 220:main.c        ****     PWM_1_WritePeriod(100);
 441              		.loc 1 220 0
 442 0030 6420     		movs	r0, #100
 443 0032 FFF7FEFF 		bl	PWM_1_WritePeriod
 444              	.LVL24:
 221:main.c        ****     PWM_2_WritePeriod(100);
 445              		.loc 1 221 0
 446 0036 6420     		movs	r0, #100
 447 0038 FFF7FEFF 		bl	PWM_2_WritePeriod
 448              	.LVL25:
 222:main.c        ****     
 223:main.c        ****     QuadDec_M1_Start();
ARM GAS  C:\Users\umasu\AppData\Local\Temp\ccua18co.s 			page 13


 449              		.loc 1 223 0
 450 003c FFF7FEFF 		bl	QuadDec_M1_Start
 451              	.LVL26:
 224:main.c        ****     QuadDec_M2_Start();
 452              		.loc 1 224 0
 453 0040 FFF7FEFF 		bl	QuadDec_M2_Start
 454              	.LVL27:
 455              	.L35:
 225:main.c        ****    
 226:main.c        ****     
 227:main.c        ****     
 228:main.c        ****     for(;;)
 229:main.c        ****     {
 230:main.c        ****           //comp0 and comp1 =0  => straight
 231:main.c        ****            //comp2=0 => left
 232:main.c        ****            //comp3=0 => right
 233:main.c        ****            /* Place your application code here. */
 234:main.c        **** //        
 235:main.c        **** //        if(comp2_sum > 0){
 236:main.c        **** //            LED_2_Write(1);
 237:main.c        **** //            while(distance_M1 >= distance_M1+3){
 238:main.c        **** //                goStraight();
 239:main.c        **** //            }
 240:main.c        **** //            stop();
 241:main.c        **** //        }
 242:main.c        ****         
 243:main.c        **** ////   current_encoder_count = abs(QuadDec_M1_GetCounter());     
 244:main.c        **** //        if(abs(QuadDec_M1_GetCounter()) < current_encoder_count+50){
 245:main.c        **** //            goStraight();
 246:main.c        **** //            LED_1_Write(1);
 247:main.c        **** //        }
 248:main.c        **** //        }
 249:main.c        ****             //stop();
 250:main.c        ****       
 251:main.c        **** //        if(comp0_sum>0 && comp1_sum==0){//s_ML out of line
 252:main.c        **** //            PWM_L=PWM_L+1;
 253:main.c        **** //        }else if(comp0_sum==0 && comp1_sum>0){//s_MR out of line
 254:main.c        **** //            PWM_R=PWM_R+1;
 255:main.c        **** //            
 256:main.c        **** //        }else if(comp1_sum==0 && comp0_sum==0){
 257:main.c        **** //            PWM_R=75;
 258:main.c        **** //            PWM_L=76;
 259:main.c        **** //        }
 260:main.c        ****      
 261:main.c        ****        
 262:main.c        ****         //target distance task
 263:main.c        ****         if(total_distance >=target_diatance ){// M1 is faster than M2 
 456              		.loc 1 263 0
 457 0044 0D4B     		ldr	r3, .L39+8
 458 0046 1969     		ldr	r1, [r3, #16]	@ float
 459 0048 0D4B     		ldr	r3, .L39+12
 460 004a 9869     		ldr	r0, [r3, #24]	@ float
 461 004c FFF7FEFF 		bl	__aeabi_fcmpge
 462              	.LVL28:
 463 0050 28B1     		cbz	r0, .L37
 264:main.c        ****             LED_1_Write(1);
 464              		.loc 1 264 0
ARM GAS  C:\Users\umasu\AppData\Local\Temp\ccua18co.s 			page 14


 465 0052 0120     		movs	r0, #1
 466 0054 FFF7FEFF 		bl	LED_1_Write
 467              	.LVL29:
 265:main.c        ****             stop(); 
 468              		.loc 1 265 0
 469 0058 FFF7FEFF 		bl	stop
 470              	.LVL30:
 471 005c 01E0     		b	.L34
 472              	.L37:
 266:main.c        ****         }else{
 267:main.c        ****             goStraight();
 473              		.loc 1 267 0
 474 005e FFF7FEFF 		bl	goStraight
 475              	.LVL31:
 476              	.L34:
 268:main.c        ****         }
 269:main.c        ****         
 270:main.c        **** 
 271:main.c        ****         //right wheel
 272:main.c        ****           PWM_1_WriteCompare(PWM_R);
 477              		.loc 1 272 0
 478 0062 064C     		ldr	r4, .L39+8
 479 0064 207B     		ldrb	r0, [r4, #12]	@ zero_extendqisi2
 480 0066 FFF7FEFF 		bl	PWM_1_WriteCompare
 481              	.LVL32:
 273:main.c        ****        //PWM2 corresponds to left wheel
 274:main.c        ****           PWM_2_WriteCompare(PWM_L);
 482              		.loc 1 274 0
 483 006a 607B     		ldrb	r0, [r4, #13]	@ zero_extendqisi2
 484 006c FFF7FEFF 		bl	PWM_2_WriteCompare
 485              	.LVL33:
 275:main.c        ****               
 276:main.c        **** 
 277:main.c        ****     }
 486              		.loc 1 277 0
 487 0070 E8E7     		b	.L35
 488              	.L40:
 489 0072 00BF     		.align	2
 490              	.L39:
 491 0074 00000000 		.word	isr_1_handler
 492 0078 00000000 		.word	isr_3_handler
 493 007c 00000000 		.word	.LANCHOR0
 494 0080 00000000 		.word	.LANCHOR1
 495              		.cfi_endproc
 496              	.LFE71:
 497              		.size	main, .-main
 498              		.global	PWM_L
 499              		.global	PWM_R
 500              		.comm	comp3_sum,1,1
 501              		.comm	comp2_sum,1,1
 502              		.comm	comp1_sum,1,1
 503              		.comm	comp0_sum,1,1
 504              		.comm	turn_complete,1,1
 505              		.comm	middle_on,1,1
 506              		.comm	right_on,1,1
 507              		.global	left_on
 508              		.global	turn_counter
ARM GAS  C:\Users\umasu\AppData\Local\Temp\ccua18co.s 			page 15


 509              		.global	count
 510              		.global	total_distance
 511              		.global	counter
 512              		.global	prev_encoder_value_M2
 513              		.global	prev_encoder_value_M1
 514              		.global	encoder_value_sum_M2
 515              		.global	encoder_value_sum_M1
 516              		.global	speed_M2
 517              		.global	speed_M1
 518              		.global	target_diatance
 519              		.global	current_distance_M2
 520              		.global	current_distance_M1
 521              		.global	distance_M2
 522              		.global	distance_M1
 523              		.global	timeInterval_s
 524              		.global	wheelCircumference_cm
 525              		.global	CPR
 526              		.global	encoderCounts_M2
 527              		.global	encoderCounts_M1
 528              		.data
 529              		.align	3
 530              		.set	.LANCHOR0,. + 0
 531              		.type	counter, %object
 532              		.size	counter, 1
 533              	counter:
 534 0000 01       		.byte	1
 535 0001 000000   		.space	3
 536              		.type	CPR, %object
 537              		.size	CPR, 4
 538              	CPR:
 539 0004 E4000000 		.word	228
 540              		.type	wheelCircumference_cm, %object
 541              		.size	wheelCircumference_cm, 4
 542              	wheelCircumference_cm:
 543 0008 7201A241 		.word	1101136242
 544              		.type	PWM_R, %object
 545              		.size	PWM_R, 1
 546              	PWM_R:
 547 000c 41       		.byte	65
 548              		.type	PWM_L, %object
 549              		.size	PWM_L, 1
 550              	PWM_L:
 551 000d 42       		.byte	66
 552 000e 0000     		.space	2
 553              		.type	target_diatance, %object
 554              		.size	target_diatance, 4
 555              	target_diatance:
 556 0010 00001644 		.word	1142292480
 557 0014 00000000 		.space	4
 558              		.type	timeInterval_s, %object
 559              		.size	timeInterval_s, 8
 560              	timeInterval_s:
 561 0018 0C022B87 		.word	-2027224564
 562 001c 16D92540 		.word	1076222230
 563              		.bss
 564              		.align	2
 565              		.set	.LANCHOR1,. + 0
ARM GAS  C:\Users\umasu\AppData\Local\Temp\ccua18co.s 			page 16


 566              		.type	encoderCounts_M1, %object
 567              		.size	encoderCounts_M1, 4
 568              	encoderCounts_M1:
 569 0000 00000000 		.space	4
 570              		.type	encoderCounts_M2, %object
 571              		.size	encoderCounts_M2, 4
 572              	encoderCounts_M2:
 573 0004 00000000 		.space	4
 574              		.type	prev_encoder_value_M1, %object
 575              		.size	prev_encoder_value_M1, 4
 576              	prev_encoder_value_M1:
 577 0008 00000000 		.space	4
 578              		.type	distance_M1, %object
 579              		.size	distance_M1, 4
 580              	distance_M1:
 581 000c 00000000 		.space	4
 582              		.type	encoder_value_sum_M2, %object
 583              		.size	encoder_value_sum_M2, 4
 584              	encoder_value_sum_M2:
 585 0010 00000000 		.space	4
 586              		.type	distance_M2, %object
 587              		.size	distance_M2, 4
 588              	distance_M2:
 589 0014 00000000 		.space	4
 590              		.type	total_distance, %object
 591              		.size	total_distance, 4
 592              	total_distance:
 593 0018 00000000 		.space	4
 594              		.type	prev_encoder_value_M2, %object
 595              		.size	prev_encoder_value_M2, 4
 596              	prev_encoder_value_M2:
 597 001c 00000000 		.space	4
 598              		.type	count, %object
 599              		.size	count, 4
 600              	count:
 601 0020 00000000 		.space	4
 602              		.type	left_on, %object
 603              		.size	left_on, 1
 604              	left_on:
 605 0024 00       		.space	1
 606 0025 000000   		.space	3
 607              		.type	turn_counter, %object
 608              		.size	turn_counter, 4
 609              	turn_counter:
 610 0028 00000000 		.space	4
 611              		.type	encoder_value_sum_M1, %object
 612              		.size	encoder_value_sum_M1, 4
 613              	encoder_value_sum_M1:
 614 002c 00000000 		.space	4
 615              		.type	speed_M2, %object
 616              		.size	speed_M2, 4
 617              	speed_M2:
 618 0030 00000000 		.space	4
 619              		.type	speed_M1, %object
 620              		.size	speed_M1, 4
 621              	speed_M1:
 622 0034 00000000 		.space	4
ARM GAS  C:\Users\umasu\AppData\Local\Temp\ccua18co.s 			page 17


 623              		.type	current_distance_M2, %object
 624              		.size	current_distance_M2, 4
 625              	current_distance_M2:
 626 0038 00000000 		.space	4
 627              		.type	current_distance_M1, %object
 628              		.size	current_distance_M1, 4
 629              	current_distance_M1:
 630 003c 00000000 		.space	4
 631              		.text
 632              	.Letext0:
 633              		.file 2 "c:\\program files (x86)\\cypress\\psoc creator\\4.2\\psoc creator\\import\\gnu\\arm\\5.4.
 634              		.file 3 "c:\\program files (x86)\\cypress\\psoc creator\\4.2\\psoc creator\\import\\gnu\\arm\\5.4.
 635              		.file 4 "Generated_Source\\PSoC5/cytypes.h"
 636              		.file 5 "Generated_Source\\PSoC5/core_cm3.h"
 637              		.file 6 "Generated_Source\\PSoC5/QuadDec_M1.h"
 638              		.file 7 "Generated_Source\\PSoC5/QuadDec_M2.h"
 639              		.file 8 "Generated_Source\\PSoC5/Timer_1.h"
 640              		.file 9 "Generated_Source\\PSoC5/Comp_0.h"
 641              		.file 10 "Generated_Source\\PSoC5/Comp_1.h"
 642              		.file 11 "Generated_Source\\PSoC5/Comp_2.h"
 643              		.file 12 "Generated_Source\\PSoC5/Comp_3.h"
 644              		.file 13 "Generated_Source\\PSoC5/isr_2.h"
 645              		.file 14 "Generated_Source\\PSoC5/isr_1.h"
 646              		.file 15 "Generated_Source\\PSoC5/isr_3.h"
 647              		.file 16 "Generated_Source\\PSoC5/Clock_PWM.h"
 648              		.file 17 "Generated_Source\\PSoC5/PWM_1.h"
 649              		.file 18 "Generated_Source\\PSoC5/PWM_2.h"
 650              		.file 19 "Generated_Source\\PSoC5/LED_1.h"