ARM GAS  C:\Users\dulan\AppData\Local\Temp\ccDORS9c.s 			page 1


   1              		.syntax unified
   2              		.cpu cortex-m3
   3              		.fpu softvfp
   4              		.eabi_attribute 20, 1
   5              		.eabi_attribute 21, 1
   6              		.eabi_attribute 23, 3
   7              		.eabi_attribute 24, 1
   8              		.eabi_attribute 25, 1
   9              		.eabi_attribute 26, 1
  10              		.eabi_attribute 30, 1
  11              		.eabi_attribute 34, 1
  12              		.eabi_attribute 18, 4
  13              		.thumb
  14              		.syntax unified
  15              		.file	"main.c"
  16              		.text
  17              	.Ltext0:
  18              		.cfi_sections	.debug_frame
  19              		.global	__aeabi_i2d
  20              		.global	__aeabi_dmul
  21              		.global	__aeabi_d2uiz
  22              		.global	__aeabi_d2iz
  23              		.section	.text.isr_TC_handler,"ax",%progbits
  24              		.align	2
  25              		.global	isr_TC_handler
  26              		.thumb
  27              		.thumb_func
  28              		.type	isr_TC_handler, %function
  29              	isr_TC_handler:
  30              	.LFB64:
  31              		.file 1 "main.c"
   1:main.c        **** /* ========================================
   2:main.c        ****  *
   3:main.c        ****  * Copyright YOUR COMPANY, THE YEAR
   4:main.c        ****  * All Rights Reserved
   5:main.c        ****  * UNPUBLISHED, LICENSED SOFTWARE.
   6:main.c        ****  *
   7:main.c        ****  * CONFIDENTIAL AND PROPRIETARY INFORMATION
   8:main.c        ****  * WHICH IS THE PROPERTY OF your company.
   9:main.c        ****  *
  10:main.c        ****  * ========================================
  11:main.c        **** */
  12:main.c        **** #include <stdio.h> 
  13:main.c        **** #include <stdlib.h>
  14:main.c        **** #include <math.h>
  15:main.c        **** 
  16:main.c        **** #include "project.h"
  17:main.c        **** #include "defines.h"
  18:main.c        **** 
  19:main.c        **** void usbPutString(char *s);
  20:main.c        **** int32 ci = 0;
  21:main.c        **** int32 cj = 0;
  22:main.c        **** int32 ci_sum = 0;
  23:main.c        **** int32 cj_sum = 0;
  24:main.c        **** int32 distance = 0;
  25:main.c        **** uint8 counter = 1;
  26:main.c        **** 
ARM GAS  C:\Users\dulan\AppData\Local\Temp\ccDORS9c.s 			page 2


  27:main.c        **** int32 encoder_compare_value=2280;
  28:main.c        **** 
  29:main.c        **** uint32 speedi = 0;
  30:main.c        **** uint32 speedj = 0;
  31:main.c        **** uint8 ready_to_send = 0;
  32:main.c        **** char bufferi[64];
  33:main.c        **** char bufferj[64];
  34:main.c        **** 
  35:main.c        **** CY_ISR(isr_TC_handler){
  32              		.loc 1 35 0
  33              		.cfi_startproc
  34              		@ args = 0, pretend = 0, frame = 0
  35              		@ frame_needed = 0, uses_anonymous_args = 0
  36 0000 38B5     		push	{r3, r4, r5, lr}
  37              		.cfi_def_cfa_offset 16
  38              		.cfi_offset 3, -16
  39              		.cfi_offset 4, -12
  40              		.cfi_offset 5, -8
  41              		.cfi_offset 14, -4
  36:main.c        ****     
  37:main.c        ****     if (counter % 4 != 0){
  42              		.loc 1 37 0
  43 0002 2F4B     		ldr	r3, .L5+16
  44 0004 1B78     		ldrb	r3, [r3]	@ zero_extendqisi2
  45 0006 13F0030F 		tst	r3, #3
  46 000a 03D0     		beq	.L2
  38:main.c        ****      counter++;
  47              		.loc 1 38 0
  48 000c 0133     		adds	r3, r3, #1
  49 000e 2C4A     		ldr	r2, .L5+16
  50 0010 1370     		strb	r3, [r2]
  51 0012 36E0     		b	.L3
  52              	.L2:
  39:main.c        ****     }else{
  40:main.c        ****         
  41:main.c        ****         // 2.731ms *4 ~=11 ms
  42:main.c        ****         ci = QuadDec_M1_GetCounter();
  53              		.loc 1 42 0
  54 0014 FFF7FEFF 		bl	QuadDec_M1_GetCounter
  55              	.LVL0:
  56 0018 2A4C     		ldr	r4, .L5+20
  57 001a 2060     		str	r0, [r4]
  43:main.c        ****         cj = QuadDec_M2_GetCounter();
  58              		.loc 1 43 0
  59 001c FFF7FEFF 		bl	QuadDec_M2_GetCounter
  60              	.LVL1:
  61 0020 0546     		mov	r5, r0
  62 0022 6060     		str	r0, [r4, #4]
  44:main.c        ****         ci_sum+=ci;
  63              		.loc 1 44 0
  64 0024 2068     		ldr	r0, [r4]
  65 0026 A368     		ldr	r3, [r4, #8]
  66 0028 0344     		add	r3, r3, r0
  67 002a A360     		str	r3, [r4, #8]
  45:main.c        ****         cj_sum+=cj;
  68              		.loc 1 45 0
  69 002c E368     		ldr	r3, [r4, #12]
ARM GAS  C:\Users\dulan\AppData\Local\Temp\ccDORS9c.s 			page 3


  70 002e 2B44     		add	r3, r3, r5
  71 0030 E360     		str	r3, [r4, #12]
  46:main.c        ****         speedi = (uint32)(-ci * 8.130335909/4);
  72              		.loc 1 46 0
  73 0032 4042     		negs	r0, r0
  74 0034 FFF7FEFF 		bl	__aeabi_i2d
  75              	.LVL2:
  76 0038 1DA3     		adr	r3, .L5
  77 003a D3E90023 		ldrd	r2, [r3]
  78 003e FFF7FEFF 		bl	__aeabi_dmul
  79              	.LVL3:
  80 0042 0022     		movs	r2, #0
  81 0044 204B     		ldr	r3, .L5+24
  82 0046 FFF7FEFF 		bl	__aeabi_dmul
  83              	.LVL4:
  84 004a FFF7FEFF 		bl	__aeabi_d2uiz
  85              	.LVL5:
  86 004e 2061     		str	r0, [r4, #16]
  47:main.c        ****         speedj = (uint32)(-cj * 8.130335909/4);
  87              		.loc 1 47 0
  88 0050 6842     		negs	r0, r5
  89 0052 FFF7FEFF 		bl	__aeabi_i2d
  90              	.LVL6:
  91 0056 16A3     		adr	r3, .L5
  92 0058 D3E90023 		ldrd	r2, [r3]
  93 005c FFF7FEFF 		bl	__aeabi_dmul
  94              	.LVL7:
  95 0060 0022     		movs	r2, #0
  96 0062 194B     		ldr	r3, .L5+24
  97 0064 FFF7FEFF 		bl	__aeabi_dmul
  98              	.LVL8:
  99 0068 FFF7FEFF 		bl	__aeabi_d2uiz
 100              	.LVL9:
 101 006c 6061     		str	r0, [r4, #20]
  48:main.c        ****         counter = 1;
 102              		.loc 1 48 0
 103 006e 0123     		movs	r3, #1
 104 0070 134A     		ldr	r2, .L5+16
 105 0072 1370     		strb	r3, [r2]
  49:main.c        ****         ready_to_send = 1;
 106              		.loc 1 49 0
 107 0074 2376     		strb	r3, [r4, #24]
  50:main.c        ****         QuadDec_M1_SetCounter(0);
 108              		.loc 1 50 0
 109 0076 0020     		movs	r0, #0
 110 0078 FFF7FEFF 		bl	QuadDec_M1_SetCounter
 111              	.LVL10:
  51:main.c        ****         QuadDec_M2_SetCounter(0);
 112              		.loc 1 51 0
 113 007c 0020     		movs	r0, #0
 114 007e FFF7FEFF 		bl	QuadDec_M2_SetCounter
 115              	.LVL11:
 116              	.L3:
  52:main.c        ****     }
  53:main.c        ****     distance=(ci_sum/228)*20.2507;
 117              		.loc 1 53 0
 118 0082 104C     		ldr	r4, .L5+20
ARM GAS  C:\Users\dulan\AppData\Local\Temp\ccDORS9c.s 			page 4


 119 0084 A368     		ldr	r3, [r4, #8]
 120 0086 1148     		ldr	r0, .L5+28
 121 0088 80FB0320 		smull	r2, r0, r0, r3
 122 008c 1844     		add	r0, r0, r3
 123 008e DB17     		asrs	r3, r3, #31
 124 0090 C3EBE010 		rsb	r0, r3, r0, asr #7
 125 0094 FFF7FEFF 		bl	__aeabi_i2d
 126              	.LVL12:
 127 0098 07A3     		adr	r3, .L5+8
 128 009a D3E90023 		ldrd	r2, [r3]
 129 009e FFF7FEFF 		bl	__aeabi_dmul
 130              	.LVL13:
 131 00a2 FFF7FEFF 		bl	__aeabi_d2iz
 132              	.LVL14:
 133 00a6 E061     		str	r0, [r4, #28]
  54:main.c        ****     Timer_1_ReadStatusRegister();
 134              		.loc 1 54 0
 135 00a8 FFF7FEFF 		bl	Timer_1_ReadStatusRegister
 136              	.LVL15:
 137 00ac 38BD     		pop	{r3, r4, r5, pc}
 138              	.L6:
 139 00ae 00BF     		.align	3
 140              	.L5:
 141 00b0 824C6563 		.word	1667583106
 142 00b4 BB422040 		.word	1075856059
 143 00b8 711B0DE0 		.word	-536011919
 144 00bc 2D403440 		.word	1077166125
 145 00c0 00000000 		.word	.LANCHOR0
 146 00c4 00000000 		.word	.LANCHOR1
 147 00c8 0000D03F 		.word	1070596096
 148 00cc EF23B88F 		.word	-1883757585
 149              		.cfi_endproc
 150              	.LFE64:
 151              		.size	isr_TC_handler, .-isr_TC_handler
 152              		.section	.text.usbPutString,"ax",%progbits
 153              		.align	2
 154              		.global	usbPutString
 155              		.thumb
 156              		.thumb_func
 157              		.type	usbPutString, %function
 158              	usbPutString:
 159              	.LFB66:
  55:main.c        ****     
  56:main.c        **** }
  57:main.c        ****  
  58:main.c        **** int main(void)
  59:main.c        **** {
  60:main.c        ****     CyGlobalIntEnable; /* Enable global interrupts. */
  61:main.c        ****     /*Start PWM Clk*/
  62:main.c        ****     Clock_PWM_Start(); 
  63:main.c        ****     //Start PWM
  64:main.c        ****     PWM_1_Start();
  65:main.c        ****     PWM_2_Start();
  66:main.c        ****     // write comparision int for MC33926 duty cycle must me larger than 10% and less than 90%
  67:main.c        ****     PWM_1_WriteCompare(80);
  68:main.c        ****     PWM_2_WriteCompare(20);
  69:main.c        ****    
ARM GAS  C:\Users\dulan\AppData\Local\Temp\ccDORS9c.s 			page 5


  70:main.c        ****     PWM_1_WritePeriod(100);
  71:main.c        ****     PWM_2_WritePeriod(100);
  72:main.c        ****     //Start UART for operation
  73:main.c        ****     USBUART_1_Start(0, USBUART_1_5V_OPERATION);
  74:main.c        ****     while (USBUART_1_GetConfiguration()==0){};
  75:main.c        ****     //sprintf(buffer, "Hello\n");
  76:main.c        ****     //usbPutString(buffer);
  77:main.c        ****     QuadDec_M1_Start();
  78:main.c        ****     QuadDec_M2_Start();
  79:main.c        ****     Timer_1_Start();
  80:main.c        ****     timer_1_isr_StartEx(isr_TC_handler);
  81:main.c        ****     
  82:main.c        **** //    usbPutString(itoa(ci,buffer,10));
  83:main.c        ****     
  84:main.c        **** 
  85:main.c        ****     /* Place your initialization/startup code here (e.g. MyInst_Start()) */
  86:main.c        **** 
  87:main.c        ****     for(;;)
  88:main.c        ****     {
  89:main.c        ****         if (ready_to_send == 1){
  90:main.c        ****             sprintf(bufferi, "speed_M1: %ld\r\n", speedi);
  91:main.c        ****             usbPutString(bufferi);
  92:main.c        ****             
  93:main.c        ****             sprintf(bufferj, "speed_M2: %ld\r\n", speedj);
  94:main.c        ****             usbPutString(bufferj);
  95:main.c        ****             
  96:main.c        ****             sprintf(bufferj, "Distance: %ld\r\n", distance);
  97:main.c        ****             usbPutString(bufferj);
  98:main.c        ****             
  99:main.c        ****             ready_to_send = 0;
 100:main.c        ****             
 101:main.c        ****             
 102:main.c        ****         }
 103:main.c        ****        
 104:main.c        ****         /* Place your application code here. */
 105:main.c        ****     }
 106:main.c        **** }
 107:main.c        **** 
 108:main.c        **** 
 109:main.c        **** void usbPutString(char *s)
 110:main.c        **** {
 160              		.loc 1 110 0
 161              		.cfi_startproc
 162              		@ args = 0, pretend = 0, frame = 0
 163              		@ frame_needed = 0, uses_anonymous_args = 0
 164              	.LVL16:
 165 0000 10B5     		push	{r4, lr}
 166              		.cfi_def_cfa_offset 8
 167              		.cfi_offset 4, -8
 168              		.cfi_offset 14, -4
 169 0002 0446     		mov	r4, r0
 170              	.LVL17:
 171              	.L8:
 111:main.c        **** // !! Assumes that *s is a string with allocated space >=64 chars     
 112:main.c        **** //  Since USB implementation retricts data packets to 64 chars, this function truncates the
 113:main.c        **** //  length to 62 char (63rd char is a '!')
 114:main.c        **** 
ARM GAS  C:\Users\dulan\AppData\Local\Temp\ccDORS9c.s 			page 6


 115:main.c        **** #ifdef USE_USB     
 116:main.c        ****     while (USBUART_1_CDCIsReady() == 0);
 172              		.loc 1 116 0 discriminator 1
 173 0004 FFF7FEFF 		bl	USBUART_1_CDCIsReady
 174              	.LVL18:
 175 0008 0028     		cmp	r0, #0
 176 000a FBD0     		beq	.L8
 117:main.c        ****     s[63]='\0';
 177              		.loc 1 117 0
 178 000c 0023     		movs	r3, #0
 179 000e 84F83F30 		strb	r3, [r4, #63]
 118:main.c        ****     s[62]='!';
 180              		.loc 1 118 0
 181 0012 2123     		movs	r3, #33
 182 0014 84F83E30 		strb	r3, [r4, #62]
 119:main.c        ****     USBUART_1_PutData((uint8*)s,strlen(s));
 183              		.loc 1 119 0
 184 0018 2046     		mov	r0, r4
 185 001a FFF7FEFF 		bl	strlen
 186              	.LVL19:
 187 001e 81B2     		uxth	r1, r0
 188 0020 2046     		mov	r0, r4
 189 0022 FFF7FEFF 		bl	USBUART_1_PutData
 190              	.LVL20:
 191 0026 10BD     		pop	{r4, pc}
 192              		.cfi_endproc
 193              	.LFE66:
 194              		.size	usbPutString, .-usbPutString
 195              		.section	.text.main,"ax",%progbits
 196              		.align	2
 197              		.global	main
 198              		.thumb
 199              		.thumb_func
 200              		.type	main, %function
 201              	main:
 202              	.LFB65:
  59:main.c        ****     CyGlobalIntEnable; /* Enable global interrupts. */
 203              		.loc 1 59 0
 204              		.cfi_startproc
 205              		@ Volatile: function does not return.
 206              		@ args = 0, pretend = 0, frame = 0
 207              		@ frame_needed = 0, uses_anonymous_args = 0
 208 0000 08B5     		push	{r3, lr}
 209              		.cfi_def_cfa_offset 8
 210              		.cfi_offset 3, -8
 211              		.cfi_offset 14, -4
  60:main.c        ****     /*Start PWM Clk*/
 212              		.loc 1 60 0
 213              		.syntax unified
 214              	@ 60 "main.c" 1
 215 0002 62B6     		CPSIE   i
 216              	@ 0 "" 2
  62:main.c        ****     //Start PWM
 217              		.loc 1 62 0
 218              		.thumb
 219              		.syntax unified
 220 0004 FFF7FEFF 		bl	Clock_PWM_Start
ARM GAS  C:\Users\dulan\AppData\Local\Temp\ccDORS9c.s 			page 7


 221              	.LVL21:
  64:main.c        ****     PWM_2_Start();
 222              		.loc 1 64 0
 223 0008 FFF7FEFF 		bl	PWM_1_Start
 224              	.LVL22:
  65:main.c        ****     // write comparision int for MC33926 duty cycle must me larger than 10% and less than 90%
 225              		.loc 1 65 0
 226 000c FFF7FEFF 		bl	PWM_2_Start
 227              	.LVL23:
  67:main.c        ****     PWM_2_WriteCompare(20);
 228              		.loc 1 67 0
 229 0010 5020     		movs	r0, #80
 230 0012 FFF7FEFF 		bl	PWM_1_WriteCompare
 231              	.LVL24:
  68:main.c        ****    
 232              		.loc 1 68 0
 233 0016 1420     		movs	r0, #20
 234 0018 FFF7FEFF 		bl	PWM_2_WriteCompare
 235              	.LVL25:
  70:main.c        ****     PWM_2_WritePeriod(100);
 236              		.loc 1 70 0
 237 001c 6420     		movs	r0, #100
 238 001e FFF7FEFF 		bl	PWM_1_WritePeriod
 239              	.LVL26:
  71:main.c        ****     //Start UART for operation
 240              		.loc 1 71 0
 241 0022 6420     		movs	r0, #100
 242 0024 FFF7FEFF 		bl	PWM_2_WritePeriod
 243              	.LVL27:
  73:main.c        ****     while (USBUART_1_GetConfiguration()==0){};
 244              		.loc 1 73 0
 245 0028 0121     		movs	r1, #1
 246 002a 0020     		movs	r0, #0
 247 002c FFF7FEFF 		bl	USBUART_1_Start
 248              	.LVL28:
 249              	.L11:
  74:main.c        ****     //sprintf(buffer, "Hello\n");
 250              		.loc 1 74 0 discriminator 1
 251 0030 FFF7FEFF 		bl	USBUART_1_GetConfiguration
 252              	.LVL29:
 253 0034 0028     		cmp	r0, #0
 254 0036 FBD0     		beq	.L11
  77:main.c        ****     QuadDec_M2_Start();
 255              		.loc 1 77 0
 256 0038 FFF7FEFF 		bl	QuadDec_M1_Start
 257              	.LVL30:
  78:main.c        ****     Timer_1_Start();
 258              		.loc 1 78 0
 259 003c FFF7FEFF 		bl	QuadDec_M2_Start
 260              	.LVL31:
  79:main.c        ****     timer_1_isr_StartEx(isr_TC_handler);
 261              		.loc 1 79 0
 262 0040 FFF7FEFF 		bl	Timer_1_Start
 263              	.LVL32:
  80:main.c        ****     
 264              		.loc 1 80 0
 265 0044 1248     		ldr	r0, .L15
ARM GAS  C:\Users\dulan\AppData\Local\Temp\ccDORS9c.s 			page 8


 266 0046 FFF7FEFF 		bl	timer_1_isr_StartEx
 267              	.LVL33:
 268              	.L12:
  89:main.c        ****             sprintf(bufferi, "speed_M1: %ld\r\n", speedi);
 269              		.loc 1 89 0
 270 004a 124B     		ldr	r3, .L15+4
 271 004c 1B7E     		ldrb	r3, [r3, #24]	@ zero_extendqisi2
 272 004e 012B     		cmp	r3, #1
 273 0050 FBD1     		bne	.L12
  90:main.c        ****             usbPutString(bufferi);
 274              		.loc 1 90 0
 275 0052 104C     		ldr	r4, .L15+4
 276 0054 104D     		ldr	r5, .L15+8
 277 0056 2269     		ldr	r2, [r4, #16]
 278 0058 1049     		ldr	r1, .L15+12
 279 005a 2846     		mov	r0, r5
 280 005c FFF7FEFF 		bl	sprintf
 281              	.LVL34:
  91:main.c        ****             
 282              		.loc 1 91 0
 283 0060 2846     		mov	r0, r5
 284 0062 FFF7FEFF 		bl	usbPutString
 285              	.LVL35:
  93:main.c        ****             usbPutString(bufferj);
 286              		.loc 1 93 0
 287 0066 0E4D     		ldr	r5, .L15+16
 288 0068 6269     		ldr	r2, [r4, #20]
 289 006a 0E49     		ldr	r1, .L15+20
 290 006c 2846     		mov	r0, r5
 291 006e FFF7FEFF 		bl	sprintf
 292              	.LVL36:
  94:main.c        ****             
 293              		.loc 1 94 0
 294 0072 2846     		mov	r0, r5
 295 0074 FFF7FEFF 		bl	usbPutString
 296              	.LVL37:
  96:main.c        ****             usbPutString(bufferj);
 297              		.loc 1 96 0
 298 0078 E269     		ldr	r2, [r4, #28]
 299 007a 0B49     		ldr	r1, .L15+24
 300 007c 2846     		mov	r0, r5
 301 007e FFF7FEFF 		bl	sprintf
 302              	.LVL38:
  97:main.c        ****             
 303              		.loc 1 97 0
 304 0082 2846     		mov	r0, r5
 305 0084 FFF7FEFF 		bl	usbPutString
 306              	.LVL39:
  99:main.c        ****             
 307              		.loc 1 99 0
 308 0088 0023     		movs	r3, #0
 309 008a 2376     		strb	r3, [r4, #24]
 310 008c DDE7     		b	.L12
 311              	.L16:
 312 008e 00BF     		.align	2
 313              	.L15:
 314 0090 00000000 		.word	isr_TC_handler
ARM GAS  C:\Users\dulan\AppData\Local\Temp\ccDORS9c.s 			page 9


 315 0094 00000000 		.word	.LANCHOR1
 316 0098 00000000 		.word	bufferi
 317 009c 00000000 		.word	.LC0
 318 00a0 00000000 		.word	bufferj
 319 00a4 10000000 		.word	.LC1
 320 00a8 20000000 		.word	.LC2
 321              		.cfi_endproc
 322              	.LFE65:
 323              		.size	main, .-main
 324              		.section	.text.usbPutChar,"ax",%progbits
 325              		.align	2
 326              		.global	usbPutChar
 327              		.thumb
 328              		.thumb_func
 329              		.type	usbPutChar, %function
 330              	usbPutChar:
 331              	.LFB67:
 120:main.c        **** #endif
 121:main.c        **** }
 122:main.c        **** //* ========================================
 123:main.c        **** void usbPutChar(char c)
 124:main.c        **** {
 332              		.loc 1 124 0
 333              		.cfi_startproc
 334              		@ args = 0, pretend = 0, frame = 0
 335              		@ frame_needed = 0, uses_anonymous_args = 0
 336              	.LVL40:
 337 0000 10B5     		push	{r4, lr}
 338              		.cfi_def_cfa_offset 8
 339              		.cfi_offset 4, -8
 340              		.cfi_offset 14, -4
 341 0002 0446     		mov	r4, r0
 342              	.LVL41:
 343              	.L18:
 125:main.c        **** #ifdef USE_USB     
 126:main.c        ****     while (USBUART_1_CDCIsReady() == 0);
 344              		.loc 1 126 0 discriminator 1
 345 0004 FFF7FEFF 		bl	USBUART_1_CDCIsReady
 346              	.LVL42:
 347 0008 0028     		cmp	r0, #0
 348 000a FBD0     		beq	.L18
 127:main.c        ****     USBUART_1_PutChar(c);
 349              		.loc 1 127 0
 350 000c 2046     		mov	r0, r4
 351 000e FFF7FEFF 		bl	USBUART_1_PutChar
 352              	.LVL43:
 353 0012 10BD     		pop	{r4, pc}
 354              		.cfi_endproc
 355              	.LFE67:
 356              		.size	usbPutChar, .-usbPutChar
 357              		.comm	bufferj,64,4
 358              		.comm	bufferi,64,4
 359              		.global	ready_to_send
 360              		.global	speedj
 361              		.global	speedi
 362              		.global	encoder_compare_value
 363              		.global	counter
ARM GAS  C:\Users\dulan\AppData\Local\Temp\ccDORS9c.s 			page 10


 364              		.global	distance
 365              		.global	cj_sum
 366              		.global	ci_sum
 367              		.global	cj
 368              		.global	ci
 369              		.data
 370              		.align	2
 371              		.set	.LANCHOR0,. + 0
 372              		.type	counter, %object
 373              		.size	counter, 1
 374              	counter:
 375 0000 01       		.byte	1
 376 0001 000000   		.space	3
 377              		.type	encoder_compare_value, %object
 378              		.size	encoder_compare_value, 4
 379              	encoder_compare_value:
 380 0004 E8080000 		.word	2280
 381              		.section	.rodata.str1.4,"aMS",%progbits,1
 382              		.align	2
 383              	.LC0:
 384 0000 73706565 		.ascii	"speed_M1: %ld\015\012\000"
 384      645F4D31 
 384      3A20256C 
 384      640D0A00 
 385              	.LC1:
 386 0010 73706565 		.ascii	"speed_M2: %ld\015\012\000"
 386      645F4D32 
 386      3A20256C 
 386      640D0A00 
 387              	.LC2:
 388 0020 44697374 		.ascii	"Distance: %ld\015\012\000"
 388      616E6365 
 388      3A20256C 
 388      640D0A00 
 389              		.bss
 390              		.align	2
 391              		.set	.LANCHOR1,. + 0
 392              		.type	ci, %object
 393              		.size	ci, 4
 394              	ci:
 395 0000 00000000 		.space	4
 396              		.type	cj, %object
 397              		.size	cj, 4
 398              	cj:
 399 0004 00000000 		.space	4
 400              		.type	ci_sum, %object
 401              		.size	ci_sum, 4
 402              	ci_sum:
 403 0008 00000000 		.space	4
 404              		.type	cj_sum, %object
 405              		.size	cj_sum, 4
 406              	cj_sum:
 407 000c 00000000 		.space	4
 408              		.type	speedi, %object
 409              		.size	speedi, 4
 410              	speedi:
 411 0010 00000000 		.space	4
ARM GAS  C:\Users\dulan\AppData\Local\Temp\ccDORS9c.s 			page 11


 412              		.type	speedj, %object
 413              		.size	speedj, 4
 414              	speedj:
 415 0014 00000000 		.space	4
 416              		.type	ready_to_send, %object
 417              		.size	ready_to_send, 1
 418              	ready_to_send:
 419 0018 00       		.space	1
 420 0019 000000   		.space	3
 421              		.type	distance, %object
 422              		.size	distance, 4
 423              	distance:
 424 001c 00000000 		.space	4
 425              		.text
 426              	.Letext0:
 427              		.file 2 "c:\\program files (x86)\\cypress\\psoc creator\\4.4\\psoc creator\\import\\gnu\\arm\\5.4.
 428              		.file 3 "c:\\program files (x86)\\cypress\\psoc creator\\4.4\\psoc creator\\import\\gnu\\arm\\5.4.
 429              		.file 4 "Generated_Source\\PSoC5/cytypes.h"
 430              		.file 5 "Generated_Source\\PSoC5/core_cm3.h"
 431              		.file 6 "Generated_Source\\PSoC5/QuadDec_M1.h"
 432              		.file 7 "Generated_Source\\PSoC5/QuadDec_M2.h"
 433              		.file 8 "Generated_Source\\PSoC5/Timer_1.h"
 434              		.file 9 "Generated_Source\\PSoC5/USBUART_1_cdc.h"
 435              		.file 10 "c:\\program files (x86)\\cypress\\psoc creator\\4.4\\psoc creator\\import\\gnu\\arm\\5.4
 436              		.file 11 "Generated_Source\\PSoC5/Clock_PWM.h"
 437              		.file 12 "Generated_Source\\PSoC5/PWM_1.h"
 438              		.file 13 "Generated_Source\\PSoC5/PWM_2.h"
 439              		.file 14 "Generated_Source\\PSoC5/USBUART_1.h"
 440              		.file 15 "Generated_Source\\PSoC5/timer_1_isr.h"
 441              		.file 16 "c:\\program files (x86)\\cypress\\psoc creator\\4.4\\psoc creator\\import\\gnu\\arm\\5.4