ARM GAS  C:\Users\ukul426\AppData\Local\Temp\ccJ8KhYX.s 			page 1


   1              		.syntax unified
   2              		.cpu cortex-m3
   3              		.fpu softvfp
   4              		.eabi_attribute 20, 1
   5              		.eabi_attribute 21, 1
   6              		.eabi_attribute 23, 3
   7              		.eabi_attribute 24, 1
   8              		.eabi_attribute 25, 1
   9              		.eabi_attribute 26, 1
  10              		.eabi_attribute 30, 1
  11              		.eabi_attribute 34, 1
  12              		.eabi_attribute 18, 4
  13              		.thumb
  14              		.syntax unified
  15              		.file	"main.c"
  16              		.text
  17              	.Ltext0:
  18              		.cfi_sections	.debug_frame
  19              		.global	__aeabi_i2d
  20              		.global	__aeabi_dmul
  21              		.global	__aeabi_d2uiz
  22              		.global	__aeabi_dadd
  23              		.section	.text.isr_TC_handler,"ax",%progbits
  24              		.align	2
  25              		.global	isr_TC_handler
  26              		.thumb
  27              		.thumb_func
  28              		.type	isr_TC_handler, %function
  29              	isr_TC_handler:
  30              	.LFB64:
  31              		.file 1 "main.c"
   1:main.c        **** /* ========================================
   2:main.c        ****  *
   3:main.c        ****  * Copyright YOUR COMPANY, THE YEAR
   4:main.c        ****  * All Rights Reserved
   5:main.c        ****  * UNPUBLISHED, LICENSED SOFTWARE.
   6:main.c        ****  *
   7:main.c        ****  * CONFIDENTIAL AND PROPRIETARY INFORMATION
   8:main.c        ****  * WHICH IS THE PROPERTY OF your company.
   9:main.c        ****  *
  10:main.c        ****  * ========================================
  11:main.c        **** */
  12:main.c        **** #include <stdio.h> 
  13:main.c        **** #include <stdlib.h>
  14:main.c        **** #include <math.h>
  15:main.c        **** #include "project.h"
  16:main.c        **** #include "defines.h"
  17:main.c        **** 
  18:main.c        **** void usbPutString(char *s);
  19:main.c        **** int32 ci = 0;
  20:main.c        **** int32 cj = 0;
  21:main.c        **** uint8 counter = 1;
  22:main.c        **** uint32 speedi = 0;
  23:main.c        **** uint32 speedj = 0;
  24:main.c        **** uint8 ready_to_send = 0;
  25:main.c        **** char bufferi[64];
  26:main.c        **** char bufferj[64];
ARM GAS  C:\Users\ukul426\AppData\Local\Temp\ccJ8KhYX.s 			page 2


  27:main.c        **** 
  28:main.c        **** 
  29:main.c        **** // distance calcu
  30:main.c        **** int32 encoder_count_i = 0;
  31:main.c        **** int32 encoder_count_j = 0;
  32:main.c        **** double distance_i = 0;
  33:main.c        **** double distance_j = 0;
  34:main.c        **** int32 target_distance = 100;// need to decide
  35:main.c        **** double current_distance_i = 0;
  36:main.c        **** double current_distance_j = 0;
  37:main.c        **** double wheel_circumference_mm = 20.25;
  38:main.c        **** int CPR_value = 228;
  39:main.c        **** 
  40:main.c        **** 
  41:main.c        **** 
  42:main.c        **** CY_ISR(isr_TC_handler){
  32              		.loc 1 42 0
  33              		.cfi_startproc
  34              		@ args = 0, pretend = 0, frame = 0
  35              		@ frame_needed = 0, uses_anonymous_args = 0
  36 0000 70B5     		push	{r4, r5, r6, lr}
  37              		.cfi_def_cfa_offset 16
  38              		.cfi_offset 4, -16
  39              		.cfi_offset 5, -12
  40              		.cfi_offset 6, -8
  41              		.cfi_offset 14, -4
  43:main.c        ****     //if counter is not divisible by 4, counter is incremented
  44:main.c        ****     if (counter % 4 != 0){
  42              		.loc 1 44 0
  43 0002 294B     		ldr	r3, .L5+8
  44 0004 1B78     		ldrb	r3, [r3]	@ zero_extendqisi2
  45 0006 13F0030F 		tst	r3, #3
  46 000a 03D0     		beq	.L2
  45:main.c        ****      counter++;
  47              		.loc 1 45 0
  48 000c 0133     		adds	r3, r3, #1
  49 000e 264A     		ldr	r2, .L5+8
  50 0010 1370     		strb	r3, [r2]
  51 0012 42E0     		b	.L3
  52              	.L2:
  53              	.LBB2:
  46:main.c        ****     }else{
  47:main.c        ****         // 2.731ms *4 ~=11 ms
  48:main.c        ****         encoder_count_i = QuadDec_M1_GetCounter();
  54              		.loc 1 48 0
  55 0014 FFF7FEFF 		bl	QuadDec_M1_GetCounter
  56              	.LVL0:
  57 0018 244C     		ldr	r4, .L5+12
  58 001a 2060     		str	r0, [r4]
  49:main.c        ****         encoder_count_j = QuadDec_M2_GetCounter();
  59              		.loc 1 49 0
  60 001c FFF7FEFF 		bl	QuadDec_M2_GetCounter
  61              	.LVL1:
  62 0020 0646     		mov	r6, r0
  63 0022 6060     		str	r0, [r4, #4]
  50:main.c        ****         speedi = (uint32)(-encoder_count_i * 8.13/4);
  64              		.loc 1 50 0
ARM GAS  C:\Users\ukul426\AppData\Local\Temp\ccJ8KhYX.s 			page 3


  65 0024 2568     		ldr	r5, [r4]
  66 0026 6D42     		negs	r5, r5
  67 0028 2846     		mov	r0, r5
  68 002a FFF7FEFF 		bl	__aeabi_i2d
  69              	.LVL2:
  70 002e 1CA3     		adr	r3, .L5
  71 0030 D3E90023 		ldrd	r2, [r3]
  72 0034 FFF7FEFF 		bl	__aeabi_dmul
  73              	.LVL3:
  74 0038 0022     		movs	r2, #0
  75 003a 1D4B     		ldr	r3, .L5+16
  76 003c FFF7FEFF 		bl	__aeabi_dmul
  77              	.LVL4:
  78 0040 FFF7FEFF 		bl	__aeabi_d2uiz
  79              	.LVL5:
  80 0044 A060     		str	r0, [r4, #8]
  51:main.c        ****         speedj = (uint32)(-encoder_count_j * 8.13/4);
  81              		.loc 1 51 0
  82 0046 7042     		negs	r0, r6
  83 0048 FFF7FEFF 		bl	__aeabi_i2d
  84              	.LVL6:
  85 004c 14A3     		adr	r3, .L5
  86 004e D3E90023 		ldrd	r2, [r3]
  87 0052 FFF7FEFF 		bl	__aeabi_dmul
  88              	.LVL7:
  89 0056 0022     		movs	r2, #0
  90 0058 154B     		ldr	r3, .L5+16
  91 005a FFF7FEFF 		bl	__aeabi_dmul
  92              	.LVL8:
  93 005e FFF7FEFF 		bl	__aeabi_d2uiz
  94              	.LVL9:
  95 0062 E060     		str	r0, [r4, #12]
  52:main.c        ****         
  53:main.c        ****         double current_distance_i = (double)(-encoder_count_i/CPR_value)*wheel_circumference_mm;
  96              		.loc 1 53 0
  97 0064 104E     		ldr	r6, .L5+8
  98 0066 7068     		ldr	r0, [r6, #4]
  99 0068 95FBF0F0 		sdiv	r0, r5, r0
 100 006c FFF7FEFF 		bl	__aeabi_i2d
 101              	.LVL10:
 102 0070 D6E90223 		ldrd	r2, [r6, #8]
 103 0074 FFF7FEFF 		bl	__aeabi_dmul
 104              	.LVL11:
  54:main.c        ****         distance_i += current_distance_i;
 105              		.loc 1 54 0
 106 0078 0246     		mov	r2, r0
 107 007a 0B46     		mov	r3, r1
 108 007c D4E90401 		ldrd	r0, [r4, #16]
 109              	.LVL12:
 110 0080 FFF7FEFF 		bl	__aeabi_dadd
 111              	.LVL13:
 112 0084 C4E90401 		strd	r0, [r4, #16]
  55:main.c        ****         
  56:main.c        ****         
  57:main.c        ****         counter = 1;
 113              		.loc 1 57 0
 114 0088 0123     		movs	r3, #1
ARM GAS  C:\Users\ukul426\AppData\Local\Temp\ccJ8KhYX.s 			page 4


 115 008a 3370     		strb	r3, [r6]
  58:main.c        ****         ready_to_send = 1;
 116              		.loc 1 58 0
 117 008c 2376     		strb	r3, [r4, #24]
  59:main.c        ****         QuadDec_M1_SetCounter(0);
 118              		.loc 1 59 0
 119 008e 0020     		movs	r0, #0
 120 0090 FFF7FEFF 		bl	QuadDec_M1_SetCounter
 121              	.LVL14:
  60:main.c        ****         QuadDec_M2_SetCounter(0);
 122              		.loc 1 60 0
 123 0094 0020     		movs	r0, #0
 124 0096 FFF7FEFF 		bl	QuadDec_M2_SetCounter
 125              	.LVL15:
 126              	.L3:
 127              	.LBE2:
  61:main.c        ****     }
  62:main.c        ****     Timer_1_ReadStatusRegister();
 128              		.loc 1 62 0
 129 009a FFF7FEFF 		bl	Timer_1_ReadStatusRegister
 130              	.LVL16:
 131 009e 70BD     		pop	{r4, r5, r6, pc}
 132              	.L6:
 133              		.align	3
 134              	.L5:
 135 00a0 C3F5285C 		.word	1546188227
 136 00a4 8F422040 		.word	1075856015
 137 00a8 00000000 		.word	.LANCHOR0
 138 00ac 00000000 		.word	.LANCHOR1
 139 00b0 0000D03F 		.word	1070596096
 140              		.cfi_endproc
 141              	.LFE64:
 142              		.size	isr_TC_handler, .-isr_TC_handler
 143              		.section	.text.stop_M1,"ax",%progbits
 144              		.align	2
 145              		.global	stop_M1
 146              		.thumb
 147              		.thumb_func
 148              		.type	stop_M1, %function
 149              	stop_M1:
 150              	.LFB65:
  63:main.c        ****     
  64:main.c        ****     
  65:main.c        **** }
  66:main.c        **** 
  67:main.c        **** void stop_M1(){
 151              		.loc 1 67 0
 152              		.cfi_startproc
 153              		@ args = 0, pretend = 0, frame = 0
 154              		@ frame_needed = 0, uses_anonymous_args = 0
 155 0000 08B5     		push	{r3, lr}
 156              		.cfi_def_cfa_offset 8
 157              		.cfi_offset 3, -8
 158              		.cfi_offset 14, -4
  68:main.c        ****     PWM_1_WriteCompare(50);
 159              		.loc 1 68 0
 160 0002 3220     		movs	r0, #50
ARM GAS  C:\Users\ukul426\AppData\Local\Temp\ccJ8KhYX.s 			page 5


 161 0004 FFF7FEFF 		bl	PWM_1_WriteCompare
 162              	.LVL17:
  69:main.c        ****     PWM_2_WriteCompare(50);
 163              		.loc 1 69 0
 164 0008 3220     		movs	r0, #50
 165 000a FFF7FEFF 		bl	PWM_2_WriteCompare
 166              	.LVL18:
 167 000e 08BD     		pop	{r3, pc}
 168              		.cfi_endproc
 169              	.LFE65:
 170              		.size	stop_M1, .-stop_M1
 171              		.section	.text.usbPutString,"ax",%progbits
 172              		.align	2
 173              		.global	usbPutString
 174              		.thumb
 175              		.thumb_func
 176              		.type	usbPutString, %function
 177              	usbPutString:
 178              	.LFB67:
  70:main.c        **** }
  71:main.c        **** 
  72:main.c        **** 
  73:main.c        **** 
  74:main.c        **** 
  75:main.c        ****  
  76:main.c        **** int main(void)
  77:main.c        **** {
  78:main.c        ****     CyGlobalIntEnable; /* Enable global interrupts. */
  79:main.c        ****         Timer_1_Start();
  80:main.c        ****     isr_1_StartEx(isr_TC_handler);
  81:main.c        ****     /*Start PWM Clk*/
  82:main.c        ****     Clock_PWM_Start(); 
  83:main.c        ****     //Start PWM
  84:main.c        ****     PWM_1_Start();
  85:main.c        ****     PWM_2_Start();
  86:main.c        ****     // write comparision int for MC33926 duty cycle must me larger than 10% and less than 90%
  87:main.c        ****     
  88:main.c        ****     
  89:main.c        ****     PWM_1_WritePeriod(100);
  90:main.c        ****     PWM_2_WritePeriod(100);
  91:main.c        ****     //Start UART for operation
  92:main.c        **** //    USBUART_1_Start(0, USBUART_1_5V_OPERATION);
  93:main.c        **** //    while (USBUART_1_GetConfiguration()==0){};
  94:main.c        ****     //sprintf(buffer, "Hello\n");
  95:main.c        ****     //usbPutString(buffer);
  96:main.c        ****     QuadDec_M1_Start();
  97:main.c        ****     QuadDec_M2_Start();
  98:main.c        **** 
  99:main.c        ****     
 100:main.c        **** //    usbPutString(itoa(ci,buffer,10));
 101:main.c        ****     
 102:main.c        **** 
 103:main.c        ****     /* Place your initialization/startup code here (e.g. MyInst_Start()) */
 104:main.c        **** 
 105:main.c        ****     for(;;)
 106:main.c        ****     {
 107:main.c        ****         
ARM GAS  C:\Users\ukul426\AppData\Local\Temp\ccJ8KhYX.s 			page 6


 108:main.c        ****             
 109:main.c        ****        PWM_2_WriteCompare(80);
 110:main.c        ****         PWM_1_WriteCompare(20);
 111:main.c        **** 
 112:main.c        ****         
 113:main.c        ****         if (ready_to_send == 1){
 114:main.c        ****             sprintf(bufferi, "encode count: %ld\r\n", (long) abs(QuadDec_M1_GetCounter()));
 115:main.c        ****             usbPutString(bufferi);
 116:main.c        ****             
 117:main.c        ****             sprintf(bufferi, "encode count: %ld\r\n", (long) distance_i);
 118:main.c        ****             usbPutString(bufferi);
 119:main.c        ****            
 120:main.c        ****             sprintf(bufferj, "encoder value M2: %ld\r\n", (long) abs(QuadDec_M2_GetCounter()));
 121:main.c        ****             usbPutString(bufferj);
 122:main.c        ****             ready_to_send = 0;
 123:main.c        ****             
 124:main.c        ****         }
 125:main.c        ****         
 126:main.c        ****                    
 127:main.c        ****         
 128:main.c        ****         /* Place your application code here. */
 129:main.c        ****     }
 130:main.c        **** }
 131:main.c        **** 
 132:main.c        **** 
 133:main.c        **** void usbPutString(char *s)
 134:main.c        **** {
 179              		.loc 1 134 0
 180              		.cfi_startproc
 181              		@ args = 0, pretend = 0, frame = 0
 182              		@ frame_needed = 0, uses_anonymous_args = 0
 183              	.LVL19:
 184 0000 10B5     		push	{r4, lr}
 185              		.cfi_def_cfa_offset 8
 186              		.cfi_offset 4, -8
 187              		.cfi_offset 14, -4
 188 0002 0446     		mov	r4, r0
 189              	.LVL20:
 190              	.L10:
 135:main.c        **** // !! Assumes that *s is a string with allocated space >=64 chars     
 136:main.c        **** //  Since USB implementation retricts data packets to 64 chars, this function truncates the
 137:main.c        **** //  length to 62 char (63rd char is a '!')
 138:main.c        **** 
 139:main.c        **** #ifdef USE_USB     
 140:main.c        ****     while (USBUART_1_CDCIsReady() == 0);
 191              		.loc 1 140 0 discriminator 1
 192 0004 FFF7FEFF 		bl	USBUART_1_CDCIsReady
 193              	.LVL21:
 194 0008 0028     		cmp	r0, #0
 195 000a FBD0     		beq	.L10
 141:main.c        ****     s[63]='\0';
 196              		.loc 1 141 0
 197 000c 0023     		movs	r3, #0
 198 000e 84F83F30 		strb	r3, [r4, #63]
 142:main.c        ****     s[62]='!';
 199              		.loc 1 142 0
 200 0012 2123     		movs	r3, #33
ARM GAS  C:\Users\ukul426\AppData\Local\Temp\ccJ8KhYX.s 			page 7


 201 0014 84F83E30 		strb	r3, [r4, #62]
 143:main.c        ****     USBUART_1_PutData((uint8*)s,strlen(s));
 202              		.loc 1 143 0
 203 0018 2046     		mov	r0, r4
 204 001a FFF7FEFF 		bl	strlen
 205              	.LVL22:
 206 001e 81B2     		uxth	r1, r0
 207 0020 2046     		mov	r0, r4
 208 0022 FFF7FEFF 		bl	USBUART_1_PutData
 209              	.LVL23:
 210 0026 10BD     		pop	{r4, pc}
 211              		.cfi_endproc
 212              	.LFE67:
 213              		.size	usbPutString, .-usbPutString
 214              		.global	__aeabi_d2iz
 215              		.section	.text.main,"ax",%progbits
 216              		.align	2
 217              		.global	main
 218              		.thumb
 219              		.thumb_func
 220              		.type	main, %function
 221              	main:
 222              	.LFB66:
  77:main.c        ****     CyGlobalIntEnable; /* Enable global interrupts. */
 223              		.loc 1 77 0
 224              		.cfi_startproc
 225              		@ Volatile: function does not return.
 226              		@ args = 0, pretend = 0, frame = 0
 227              		@ frame_needed = 0, uses_anonymous_args = 0
 228 0000 08B5     		push	{r3, lr}
 229              		.cfi_def_cfa_offset 8
 230              		.cfi_offset 3, -8
 231              		.cfi_offset 14, -4
  78:main.c        ****         Timer_1_Start();
 232              		.loc 1 78 0
 233              		.syntax unified
 234              	@ 78 "main.c" 1
 235 0002 62B6     		CPSIE   i
 236              	@ 0 "" 2
  79:main.c        ****     isr_1_StartEx(isr_TC_handler);
 237              		.loc 1 79 0
 238              		.thumb
 239              		.syntax unified
 240 0004 FFF7FEFF 		bl	Timer_1_Start
 241              	.LVL24:
  80:main.c        ****     /*Start PWM Clk*/
 242              		.loc 1 80 0
 243 0008 2448     		ldr	r0, .L16
 244 000a FFF7FEFF 		bl	isr_1_StartEx
 245              	.LVL25:
  82:main.c        ****     //Start PWM
 246              		.loc 1 82 0
 247 000e FFF7FEFF 		bl	Clock_PWM_Start
 248              	.LVL26:
  84:main.c        ****     PWM_2_Start();
 249              		.loc 1 84 0
 250 0012 FFF7FEFF 		bl	PWM_1_Start
ARM GAS  C:\Users\ukul426\AppData\Local\Temp\ccJ8KhYX.s 			page 8


 251              	.LVL27:
  85:main.c        ****     // write comparision int for MC33926 duty cycle must me larger than 10% and less than 90%
 252              		.loc 1 85 0
 253 0016 FFF7FEFF 		bl	PWM_2_Start
 254              	.LVL28:
  89:main.c        ****     PWM_2_WritePeriod(100);
 255              		.loc 1 89 0
 256 001a 6420     		movs	r0, #100
 257 001c FFF7FEFF 		bl	PWM_1_WritePeriod
 258              	.LVL29:
  90:main.c        ****     //Start UART for operation
 259              		.loc 1 90 0
 260 0020 6420     		movs	r0, #100
 261 0022 FFF7FEFF 		bl	PWM_2_WritePeriod
 262              	.LVL30:
  96:main.c        ****     QuadDec_M2_Start();
 263              		.loc 1 96 0
 264 0026 FFF7FEFF 		bl	QuadDec_M1_Start
 265              	.LVL31:
  97:main.c        **** 
 266              		.loc 1 97 0
 267 002a FFF7FEFF 		bl	QuadDec_M2_Start
 268              	.LVL32:
 269              	.L13:
 109:main.c        ****         PWM_1_WriteCompare(20);
 270              		.loc 1 109 0
 271 002e 5020     		movs	r0, #80
 272 0030 FFF7FEFF 		bl	PWM_2_WriteCompare
 273              	.LVL33:
 110:main.c        **** 
 274              		.loc 1 110 0
 275 0034 1420     		movs	r0, #20
 276 0036 FFF7FEFF 		bl	PWM_1_WriteCompare
 277              	.LVL34:
 113:main.c        ****             sprintf(bufferi, "encode count: %ld\r\n", (long) abs(QuadDec_M1_GetCounter()));
 278              		.loc 1 113 0
 279 003a 194B     		ldr	r3, .L16+4
 280 003c 1B7E     		ldrb	r3, [r3, #24]	@ zero_extendqisi2
 281 003e 012B     		cmp	r3, #1
 282 0040 F5D1     		bne	.L13
 114:main.c        ****             usbPutString(bufferi);
 283              		.loc 1 114 0
 284 0042 FFF7FEFF 		bl	QuadDec_M1_GetCounter
 285              	.LVL35:
 286 0046 174E     		ldr	r6, .L16+8
 287 0048 174C     		ldr	r4, .L16+12
 288 004a 80EAE072 		eor	r2, r0, r0, asr #31
 289 004e A2EBE072 		sub	r2, r2, r0, asr #31
 290 0052 3146     		mov	r1, r6
 291 0054 2046     		mov	r0, r4
 292 0056 FFF7FEFF 		bl	sprintf
 293              	.LVL36:
 115:main.c        ****             
 294              		.loc 1 115 0
 295 005a 2046     		mov	r0, r4
 296 005c FFF7FEFF 		bl	usbPutString
 297              	.LVL37:
ARM GAS  C:\Users\ukul426\AppData\Local\Temp\ccJ8KhYX.s 			page 9


 117:main.c        ****             usbPutString(bufferi);
 298              		.loc 1 117 0
 299 0060 0F4D     		ldr	r5, .L16+4
 300 0062 D5E90401 		ldrd	r0, [r5, #16]
 301 0066 FFF7FEFF 		bl	__aeabi_d2iz
 302              	.LVL38:
 303 006a 0246     		mov	r2, r0
 304 006c 3146     		mov	r1, r6
 305 006e 2046     		mov	r0, r4
 306 0070 FFF7FEFF 		bl	sprintf
 307              	.LVL39:
 118:main.c        ****            
 308              		.loc 1 118 0
 309 0074 2046     		mov	r0, r4
 310 0076 FFF7FEFF 		bl	usbPutString
 311              	.LVL40:
 120:main.c        ****             usbPutString(bufferj);
 312              		.loc 1 120 0
 313 007a FFF7FEFF 		bl	QuadDec_M2_GetCounter
 314              	.LVL41:
 315 007e 0B4C     		ldr	r4, .L16+16
 316 0080 80EAE072 		eor	r2, r0, r0, asr #31
 317 0084 A2EBE072 		sub	r2, r2, r0, asr #31
 318 0088 0949     		ldr	r1, .L16+20
 319 008a 2046     		mov	r0, r4
 320 008c FFF7FEFF 		bl	sprintf
 321              	.LVL42:
 121:main.c        ****             ready_to_send = 0;
 322              		.loc 1 121 0
 323 0090 2046     		mov	r0, r4
 324 0092 FFF7FEFF 		bl	usbPutString
 325              	.LVL43:
 122:main.c        ****             
 326              		.loc 1 122 0
 327 0096 0023     		movs	r3, #0
 328 0098 2B76     		strb	r3, [r5, #24]
 329 009a C8E7     		b	.L13
 330              	.L17:
 331              		.align	2
 332              	.L16:
 333 009c 00000000 		.word	isr_TC_handler
 334 00a0 00000000 		.word	.LANCHOR1
 335 00a4 00000000 		.word	.LC0
 336 00a8 00000000 		.word	bufferi
 337 00ac 00000000 		.word	bufferj
 338 00b0 14000000 		.word	.LC1
 339              		.cfi_endproc
 340              	.LFE66:
 341              		.size	main, .-main
 342              		.section	.text.usbPutChar,"ax",%progbits
 343              		.align	2
 344              		.global	usbPutChar
 345              		.thumb
 346              		.thumb_func
 347              		.type	usbPutChar, %function
 348              	usbPutChar:
 349              	.LFB68:
ARM GAS  C:\Users\ukul426\AppData\Local\Temp\ccJ8KhYX.s 			page 10


 144:main.c        **** #endif
 145:main.c        **** }
 146:main.c        **** //* ========================================
 147:main.c        **** void usbPutChar(char c)
 148:main.c        **** {
 350              		.loc 1 148 0
 351              		.cfi_startproc
 352              		@ args = 0, pretend = 0, frame = 0
 353              		@ frame_needed = 0, uses_anonymous_args = 0
 354              	.LVL44:
 355 0000 10B5     		push	{r4, lr}
 356              		.cfi_def_cfa_offset 8
 357              		.cfi_offset 4, -8
 358              		.cfi_offset 14, -4
 359 0002 0446     		mov	r4, r0
 360              	.LVL45:
 361              	.L19:
 149:main.c        **** #ifdef USE_USB     
 150:main.c        ****     while (USBUART_1_CDCIsReady() == 0);
 362              		.loc 1 150 0 discriminator 1
 363 0004 FFF7FEFF 		bl	USBUART_1_CDCIsReady
 364              	.LVL46:
 365 0008 0028     		cmp	r0, #0
 366 000a FBD0     		beq	.L19
 151:main.c        ****     USBUART_1_PutChar(c);
 367              		.loc 1 151 0
 368 000c 2046     		mov	r0, r4
 369 000e FFF7FEFF 		bl	USBUART_1_PutChar
 370              	.LVL47:
 371 0012 10BD     		pop	{r4, pc}
 372              		.cfi_endproc
 373              	.LFE68:
 374              		.size	usbPutChar, .-usbPutChar
 375              		.global	CPR_value
 376              		.global	wheel_circumference_mm
 377              		.global	current_distance_j
 378              		.global	current_distance_i
 379              		.global	target_distance
 380              		.global	distance_j
 381              		.global	distance_i
 382              		.global	encoder_count_j
 383              		.global	encoder_count_i
 384              		.comm	bufferj,64,4
 385              		.comm	bufferi,64,4
 386              		.global	ready_to_send
 387              		.global	speedj
 388              		.global	speedi
 389              		.global	counter
 390              		.global	cj
 391              		.global	ci
 392              		.data
 393              		.align	3
 394              		.set	.LANCHOR0,. + 0
 395              		.type	counter, %object
 396              		.size	counter, 1
 397              	counter:
 398 0000 01       		.byte	1
ARM GAS  C:\Users\ukul426\AppData\Local\Temp\ccJ8KhYX.s 			page 11


 399 0001 000000   		.space	3
 400              		.type	CPR_value, %object
 401              		.size	CPR_value, 4
 402              	CPR_value:
 403 0004 E4000000 		.word	228
 404              		.type	wheel_circumference_mm, %object
 405              		.size	wheel_circumference_mm, 8
 406              	wheel_circumference_mm:
 407 0008 00000000 		.word	0
 408 000c 00403440 		.word	1077166080
 409              		.type	target_distance, %object
 410              		.size	target_distance, 4
 411              	target_distance:
 412 0010 64000000 		.word	100
 413              		.section	.rodata.str1.4,"aMS",%progbits,1
 414              		.align	2
 415              	.LC0:
 416 0000 656E636F 		.ascii	"encode count: %ld\015\012\000"
 416      64652063 
 416      6F756E74 
 416      3A20256C 
 416      640D0A00 
 417              	.LC1:
 418 0014 656E636F 		.ascii	"encoder value M2: %ld\015\012\000"
 418      64657220 
 418      76616C75 
 418      65204D32 
 418      3A20256C 
 419              		.bss
 420              		.align	3
 421              		.set	.LANCHOR1,. + 0
 422              		.type	encoder_count_i, %object
 423              		.size	encoder_count_i, 4
 424              	encoder_count_i:
 425 0000 00000000 		.space	4
 426              		.type	encoder_count_j, %object
 427              		.size	encoder_count_j, 4
 428              	encoder_count_j:
 429 0004 00000000 		.space	4
 430              		.type	speedi, %object
 431              		.size	speedi, 4
 432              	speedi:
 433 0008 00000000 		.space	4
 434              		.type	speedj, %object
 435              		.size	speedj, 4
 436              	speedj:
 437 000c 00000000 		.space	4
 438              		.type	distance_i, %object
 439              		.size	distance_i, 8
 440              	distance_i:
 441 0010 00000000 		.space	8
 441      00000000 
 442              		.type	ready_to_send, %object
 443              		.size	ready_to_send, 1
 444              	ready_to_send:
 445 0018 00       		.space	1
 446 0019 00000000 		.space	7
ARM GAS  C:\Users\ukul426\AppData\Local\Temp\ccJ8KhYX.s 			page 12


 446      000000
 447              		.type	current_distance_j, %object
 448              		.size	current_distance_j, 8
 449              	current_distance_j:
 450 0020 00000000 		.space	8
 450      00000000 
 451              		.type	current_distance_i, %object
 452              		.size	current_distance_i, 8
 453              	current_distance_i:
 454 0028 00000000 		.space	8
 454      00000000 
 455              		.type	distance_j, %object
 456              		.size	distance_j, 8
 457              	distance_j:
 458 0030 00000000 		.space	8
 458      00000000 
 459              		.type	cj, %object
 460              		.size	cj, 4
 461              	cj:
 462 0038 00000000 		.space	4
 463              		.type	ci, %object
 464              		.size	ci, 4
 465              	ci:
 466 003c 00000000 		.space	4
 467              		.text
 468              	.Letext0:
 469              		.file 2 "c:\\program files (x86)\\cypress\\psoc creator\\4.2\\psoc creator\\import\\gnu\\arm\\5.4.
 470              		.file 3 "c:\\program files (x86)\\cypress\\psoc creator\\4.2\\psoc creator\\import\\gnu\\arm\\5.4.
 471              		.file 4 "Generated_Source\\PSoC5/cytypes.h"
 472              		.file 5 "Generated_Source\\PSoC5/core_cm3.h"
 473              		.file 6 "Generated_Source\\PSoC5/QuadDec_M1.h"
 474              		.file 7 "Generated_Source\\PSoC5/QuadDec_M2.h"
 475              		.file 8 "Generated_Source\\PSoC5/Timer_1.h"
 476              		.file 9 "Generated_Source\\PSoC5/PWM_1.h"
 477              		.file 10 "Generated_Source\\PSoC5/PWM_2.h"
 478              		.file 11 "Generated_Source\\PSoC5/USBUART_1_cdc.h"
 479              		.file 12 "c:\\program files (x86)\\cypress\\psoc creator\\4.2\\psoc creator\\import\\gnu\\arm\\5.4
 480              		.file 13 "Generated_Source\\PSoC5/isr_1.h"
 481              		.file 14 "Generated_Source\\PSoC5/Clock_PWM.h"
 482              		.file 15 "c:\\program files (x86)\\cypress\\psoc creator\\4.2\\psoc creator\\import\\gnu\\arm\\5.4