ARM GAS  C:\Users\dulan\AppData\Local\Temp\ccU1LG4f.s 			page 1


   1              		.syntax unified
   2              		.cpu cortex-m3
   3              		.fpu softvfp
   4              		.eabi_attribute 20, 1
   5              		.eabi_attribute 21, 1
   6              		.eabi_attribute 23, 3
   7              		.eabi_attribute 24, 1
   8              		.eabi_attribute 25, 1
   9              		.eabi_attribute 26, 1
  10              		.eabi_attribute 30, 1
  11              		.eabi_attribute 34, 1
  12              		.eabi_attribute 18, 4
  13              		.thumb
  14              		.syntax unified
  15              		.file	"Astar.c"
  16              		.text
  17              	.Ltext0:
  18              		.cfi_sections	.debug_frame
  19              		.global	__aeabi_i2d
  20              		.global	__aeabi_dadd
  21              		.section	.text.heuristic,"ax",%progbits
  22              		.align	2
  23              		.global	heuristic
  24              		.thumb
  25              		.thumb_func
  26              		.type	heuristic, %function
  27              	heuristic:
  28              	.LFB1:
  29              		.file 1 "Astar.c"
   1:Astar.c       **** #include <stdio.h>
   2:Astar.c       **** #include <stdlib.h>
   3:Astar.c       **** #include <stdbool.h>
   4:Astar.c       **** #include <math.h>
   5:Astar.c       **** 
   6:Astar.c       **** #define MAP_ROWS 15
   7:Astar.c       **** #define MAP_COLS 19
   8:Astar.c       **** #define MAX_PATH_LENGTH 25
   9:Astar.c       **** 
  10:Astar.c       **** // Create a 2D array to store the path coordinate
  11:Astar.c       **** int pathCoordinates[MAX_PATH_LENGTH][2];
  12:Astar.c       **** int pathLength=0;
  13:Astar.c       **** 
  14:Astar.c       **** // Define a structure to represent nodes
  15:Astar.c       **** typedef struct Node {
  16:Astar.c       ****     int x, y;           // Position
  17:Astar.c       ****     double g, h;        // Cost from start, heuristic cost
  18:Astar.c       ****     struct Node* parent; // Parent node
  19:Astar.c       **** } Node;
  20:Astar.c       **** 
  21:Astar.c       **** 
  22:Astar.c       **** // Define a 2D grid map with '0' for open spaces and '1' for obstacles
  23:Astar.c       **** int map[MAP_ROWS][MAP_COLS] = {
  24:Astar.c       ****     {1,1,1,1,1,1,1,1,1,1,1,1,1,1,1,1,1,1,1},
  25:Astar.c       ****     {1,0,0,0,0,0,1,0,0,0,0,0,0,0,0,0,0,0,1},
  26:Astar.c       ****     {1,1,1,1,1,0,1,0,1,1,1,1,1,1,1,0,1,0,1},
  27:Astar.c       ****     {1,0,0,0,0,0,0,0,0,0,0,0,0,0,1,0,1,0,1},
  28:Astar.c       ****     {1,0,1,0,1,1,1,1,1,0,1,0,1,1,1,0,1,0,1},
ARM GAS  C:\Users\dulan\AppData\Local\Temp\ccU1LG4f.s 			page 2


  29:Astar.c       ****     {1,0,1,0,0,0,1,0,0,0,1,0,1,0,0,0,1,0,1},
  30:Astar.c       ****     {1,0,1,1,1,0,1,0,1,0,1,0,1,0,1,1,1,0,1},
  31:Astar.c       ****     {1,0,0,0,0,0,1,0,1,0,1,0,1,0,1,0,0,0,1},
  32:Astar.c       ****     {1,0,1,1,1,1,1,0,1,0,1,1,1,0,1,0,1,1,1},
  33:Astar.c       ****     {1,0,0,0,0,0,0,0,1,0,0,0,1,0,1,0,0,0,1},
  34:Astar.c       ****     {1,1,1,1,1,1,1,0,1,1,1,0,1,0,1,1,1,0,1},
  35:Astar.c       ****     {1,0,0,0,0,0,0,0,0,0,1,0,1,0,0,0,0,0,1},
  36:Astar.c       ****     {1,0,1,1,1,1,1,1,1,0,1,0,1,1,1,1,1,0,1},
  37:Astar.c       ****     {1,0,0,0,0,0,0,0,1,0,0,0,0,0,0,0,0,0,1},
  38:Astar.c       ****     {1,1,1,1,1,1,1,1,1,1,1,1,1,1,1,1,1,1,1},
  39:Astar.c       **** };
  40:Astar.c       **** 
  41:Astar.c       **** // Function to calculate Manhattan distance heuristic
  42:Astar.c       **** double heuristic(int x1, int y1, int x2, int y2) {
  30              		.loc 1 42 0
  31              		.cfi_startproc
  32              		@ args = 0, pretend = 0, frame = 0
  33              		@ frame_needed = 0, uses_anonymous_args = 0
  34              	.LVL0:
  35 0000 70B5     		push	{r4, r5, r6, lr}
  36              		.cfi_def_cfa_offset 16
  37              		.cfi_offset 4, -16
  38              		.cfi_offset 5, -12
  39              		.cfi_offset 6, -8
  40              		.cfi_offset 14, -4
  43:Astar.c       ****     return fabs(x1 - x2) + fabs(y1 - y2);
  41              		.loc 1 43 0
  42 0002 861A     		subs	r6, r0, r2
  43 0004 C81A     		subs	r0, r1, r3
  44              	.LVL1:
  45 0006 FFF7FEFF 		bl	__aeabi_i2d
  46              	.LVL2:
  47 000a 0546     		mov	r5, r0
  48 000c 21F00044 		bic	r4, r1, #-2147483648
  49 0010 3046     		mov	r0, r6
  50 0012 FFF7FEFF 		bl	__aeabi_i2d
  51              	.LVL3:
  52 0016 2A46     		mov	r2, r5
  53 0018 2346     		mov	r3, r4
  54 001a 21F00045 		bic	r5, r1, #-2147483648
  55 001e 2946     		mov	r1, r5
  56 0020 FFF7FEFF 		bl	__aeabi_dadd
  57              	.LVL4:
  44:Astar.c       **** }
  58              		.loc 1 44 0
  59 0024 70BD     		pop	{r4, r5, r6, pc}
  60              		.cfi_endproc
  61              	.LFE1:
  62              		.size	heuristic, .-heuristic
  63 0026 00BF     		.section	.text.isValid,"ax",%progbits
  64              		.align	2
  65              		.global	isValid
  66              		.thumb
  67              		.thumb_func
  68              		.type	isValid, %function
  69              	isValid:
  70              	.LFB2:
ARM GAS  C:\Users\dulan\AppData\Local\Temp\ccU1LG4f.s 			page 3


  45:Astar.c       **** 
  46:Astar.c       **** // Function to check if a position is valid
  47:Astar.c       **** bool isValid(int x, int y) {
  71              		.loc 1 47 0
  72              		.cfi_startproc
  73              		@ args = 0, pretend = 0, frame = 0
  74              		@ frame_needed = 0, uses_anonymous_args = 0
  75              		@ link register save eliminated.
  76              	.LVL5:
  48:Astar.c       ****     return x >= 0 && x < MAP_ROWS && y >= 0 && y < MAP_COLS && map[x][y] == 0;
  77              		.loc 1 48 0
  78 0000 0E28     		cmp	r0, #14
  79 0002 0ED8     		bhi	.L5
  80              		.loc 1 48 0 is_stmt 0 discriminator 1
  81 0004 0029     		cmp	r1, #0
  82 0006 0EDB     		blt	.L6
  83              		.loc 1 48 0 discriminator 3
  84 0008 1229     		cmp	r1, #18
  85 000a 0EDC     		bgt	.L7
  86              		.loc 1 48 0 discriminator 5
  87 000c 00EBC003 		add	r3, r0, r0, lsl #3
  88 0010 00EB4300 		add	r0, r0, r3, lsl #1
  89              	.LVL6:
  90 0014 0844     		add	r0, r0, r1
  91 0016 074B     		ldr	r3, .L9
  92 0018 53F82030 		ldr	r3, [r3, r0, lsl #2]
  93 001c 3BB1     		cbz	r3, .L8
  94              		.loc 1 48 0
  95 001e 0020     		movs	r0, #0
  96 0020 7047     		bx	lr
  97              	.LVL7:
  98              	.L5:
  99 0022 0020     		movs	r0, #0
 100              	.LVL8:
 101 0024 7047     		bx	lr
 102              	.LVL9:
 103              	.L6:
 104 0026 0020     		movs	r0, #0
 105              	.LVL10:
 106 0028 7047     		bx	lr
 107              	.LVL11:
 108              	.L7:
 109 002a 0020     		movs	r0, #0
 110              	.LVL12:
 111 002c 7047     		bx	lr
 112              	.L8:
 113 002e 0120     		movs	r0, #1
  49:Astar.c       **** }
 114              		.loc 1 49 0 is_stmt 1
 115 0030 7047     		bx	lr
 116              	.L10:
 117 0032 00BF     		.align	2
 118              	.L9:
 119 0034 00000000 		.word	.LANCHOR0
 120              		.cfi_endproc
 121              	.LFE2:
 122              		.size	isValid, .-isValid
ARM GAS  C:\Users\dulan\AppData\Local\Temp\ccU1LG4f.s 			page 4


 123              		.global	__aeabi_dcmplt
 124              		.global	__aeabi_dcmpge
 125              		.section	.text.AStar,"ax",%progbits
 126              		.align	2
 127              		.global	AStar
 128              		.thumb
 129              		.thumb_func
 130              		.type	AStar, %function
 131              	AStar:
 132              	.LFB3:
  50:Astar.c       **** 
  51:Astar.c       **** // A* algorithm
  52:Astar.c       **** Node* AStar(int startX, int startY, int targetX, int targetY) {
 133              		.loc 1 52 0
 134              		.cfi_startproc
 135              		@ args = 0, pretend = 0, frame = 2360
 136              		@ frame_needed = 0, uses_anonymous_args = 0
 137              	.LVL13:
 138 0000 2DE9F04F 		push	{r4, r5, r6, r7, r8, r9, r10, fp, lr}
 139              		.cfi_def_cfa_offset 36
 140              		.cfi_offset 4, -36
 141              		.cfi_offset 5, -32
 142              		.cfi_offset 6, -28
 143              		.cfi_offset 7, -24
 144              		.cfi_offset 8, -20
 145              		.cfi_offset 9, -16
 146              		.cfi_offset 10, -12
 147              		.cfi_offset 11, -8
 148              		.cfi_offset 14, -4
 149 0004 ADF63C1D 		subw	sp, sp, #2364
 150              		.cfi_def_cfa_offset 2400
 151 0008 0546     		mov	r5, r0
 152 000a 0E46     		mov	r6, r1
 153 000c 9046     		mov	r8, r2
 154 000e 0292     		str	r2, [sp, #8]
 155 0010 1F46     		mov	r7, r3
 156 0012 0393     		str	r3, [sp, #12]
  53:Astar.c       ****     // Initialize open and closed sets
  54:Astar.c       ****     Node* openSet[MAP_ROWS * MAP_COLS] = {NULL};
 157              		.loc 1 54 0
 158 0014 40F27444 		movw	r4, #1140
 159 0018 2246     		mov	r2, r4
 160              	.LVL14:
 161 001a 0021     		movs	r1, #0
 162              	.LVL15:
 163 001c 0DF2C440 		addw	r0, sp, #1220
 164              	.LVL16:
 165 0020 FFF7FEFF 		bl	memset
 166              	.LVL17:
  55:Astar.c       ****     Node* closedSet[MAP_ROWS][MAP_COLS] = {NULL};
 167              		.loc 1 55 0
 168 0024 2246     		mov	r2, r4
 169 0026 0021     		movs	r1, #0
 170 0028 14A8     		add	r0, sp, #80
 171 002a FFF7FEFF 		bl	memset
 172              	.LVL18:
  56:Astar.c       **** 
ARM GAS  C:\Users\dulan\AppData\Local\Temp\ccU1LG4f.s 			page 5


  57:Astar.c       ****     // Create the start node
  58:Astar.c       ****     Node startNode = {startX, startY, 0.0, heuristic(startX, startY, targetX, targetY), NULL};
 173              		.loc 1 58 0
 174 002e 0CAC     		add	r4, sp, #48
 175 0030 0C95     		str	r5, [sp, #48]
 176 0032 0D96     		str	r6, [sp, #52]
 177 0034 0022     		movs	r2, #0
 178 0036 0023     		movs	r3, #0
 179 0038 CDE90E23 		strd	r2, [sp, #56]
 180 003c 3B46     		mov	r3, r7
 181 003e 4246     		mov	r2, r8
 182 0040 3146     		mov	r1, r6
 183 0042 2846     		mov	r0, r5
 184 0044 FFF7FEFF 		bl	heuristic
 185              	.LVL19:
 186 0048 C4E90401 		strd	r0, [r4, #16]
 187 004c 0023     		movs	r3, #0
 188 004e A361     		str	r3, [r4, #24]
  59:Astar.c       ****     openSet[0] = &startNode;
 189              		.loc 1 59 0
 190 0050 CDF8C444 		str	r4, [sp, #1220]
  60:Astar.c       **** 
  61:Astar.c       ****     // Main loop
  62:Astar.c       ****     while (openSet[0] != NULL) {
 191              		.loc 1 62 0
 192 0054 E5E0     		b	.L12
 193              	.LVL20:
 194              	.L14:
 195              	.LBB2:
 196              	.LBB3:
  63:Astar.c       ****         // Find the node with the lowest f = g + h
  64:Astar.c       ****         Node* current = openSet[0];
  65:Astar.c       ****         int currentIndex = 0;
  66:Astar.c       **** 
  67:Astar.c       ****         for (int i = 1; openSet[i] != NULL; i++) {
  68:Astar.c       ****             if (openSet[i]->g + openSet[i]->h < current->g + current->h) {
 197              		.loc 1 68 0
 198 0056 D5E90423 		ldrd	r2, [r5, #16]
 199 005a D5E90201 		ldrd	r0, [r5, #8]
 200 005e FFF7FEFF 		bl	__aeabi_dadd
 201              	.LVL21:
 202 0062 0646     		mov	r6, r0
 203 0064 0F46     		mov	r7, r1
 204 0066 D4E90423 		ldrd	r2, [r4, #16]
 205 006a D4E90201 		ldrd	r0, [r4, #8]
 206 006e FFF7FEFF 		bl	__aeabi_dadd
 207              	.LVL22:
 208 0072 0246     		mov	r2, r0
 209 0074 0B46     		mov	r3, r1
 210 0076 3046     		mov	r0, r6
 211 0078 3946     		mov	r1, r7
 212 007a FFF7FEFF 		bl	__aeabi_dcmplt
 213              	.LVL23:
 214 007e 08B1     		cbz	r0, .L13
  69:Astar.c       ****                 current = openSet[i];
  70:Astar.c       ****                 currentIndex = i;
 215              		.loc 1 70 0
ARM GAS  C:\Users\dulan\AppData\Local\Temp\ccU1LG4f.s 			page 6


 216 0080 C146     		mov	r9, r8
 217              	.LVL24:
  69:Astar.c       ****                 current = openSet[i];
 218              		.loc 1 69 0
 219 0082 2C46     		mov	r4, r5
 220              	.LVL25:
 221              	.L13:
  67:Astar.c       ****             if (openSet[i]->g + openSet[i]->h < current->g + current->h) {
 222              		.loc 1 67 0 discriminator 2
 223 0084 08F10108 		add	r8, r8, #1
 224              	.LVL26:
 225 0088 03E0     		b	.L29
 226              	.LVL27:
 227              	.L34:
 228              	.LBE3:
 229              	.LBE2:
 230 008a 4FF00108 		mov	r8, #1
 231 008e 4FF00009 		mov	r9, #0
 232              	.L29:
 233              	.LVL28:
 234              	.LBB14:
 235              	.LBB4:
  67:Astar.c       ****             if (openSet[i]->g + openSet[i]->h < current->g + current->h) {
 236              		.loc 1 67 0 is_stmt 0 discriminator 1
 237 0092 0DF2C443 		addw	r3, sp, #1220
 238 0096 53F82850 		ldr	r5, [r3, r8, lsl #2]
 239 009a 002D     		cmp	r5, #0
 240 009c DBD1     		bne	.L14
 241              	.LBE4:
  71:Astar.c       ****             }
  72:Astar.c       ****         }
  73:Astar.c       **** 
  74:Astar.c       ****         // Remove current node from open set
  75:Astar.c       ****         openSet[currentIndex] = NULL;
 242              		.loc 1 75 0 is_stmt 1
 243 009e 0022     		movs	r2, #0
 244 00a0 43F82920 		str	r2, [r3, r9, lsl #2]
  76:Astar.c       **** 
  77:Astar.c       ****         // Check if we reached the target
  78:Astar.c       ****         if (current->x == targetX && current->y == targetY) {
 245              		.loc 1 78 0
 246 00a4 2368     		ldr	r3, [r4]
 247 00a6 029A     		ldr	r2, [sp, #8]
 248 00a8 9A42     		cmp	r2, r3
 249 00aa 05D1     		bne	.L15
 250              		.loc 1 78 0 is_stmt 0 discriminator 1
 251 00ac 6368     		ldr	r3, [r4, #4]
 252 00ae 039A     		ldr	r2, [sp, #12]
 253 00b0 9A42     		cmp	r2, r3
 254 00b2 01D1     		bne	.L15
  79:Astar.c       ****             return current; // Path found
 255              		.loc 1 79 0 is_stmt 1
 256 00b4 2046     		mov	r0, r4
 257 00b6 BAE0     		b	.L16
 258              	.L15:
  80:Astar.c       ****         }
  81:Astar.c       **** 
ARM GAS  C:\Users\dulan\AppData\Local\Temp\ccU1LG4f.s 			page 7


  82:Astar.c       ****         // Generate neighbor nodes
  83:Astar.c       ****         int dx[] = {-1, 1, 0, 0};
 259              		.loc 1 83 0
 260 00b8 04AE     		add	r6, sp, #16
 261 00ba 5F4D     		ldr	r5, .L38
 262 00bc 95E80F00 		ldmia	r5, {r0, r1, r2, r3}
 263 00c0 86E80F00 		stmia	r6, {r0, r1, r2, r3}
  84:Astar.c       ****         int dy[] = {0, 0, -1, 1};
 264              		.loc 1 84 0
 265 00c4 08AE     		add	r6, sp, #32
 266 00c6 1035     		adds	r5, r5, #16
 267 00c8 95E80F00 		ldmia	r5, {r0, r1, r2, r3}
 268 00cc 86E80F00 		stmia	r6, {r0, r1, r2, r3}
 269              	.LVL29:
 270              	.LBB5:
  85:Astar.c       **** 
  86:Astar.c       ****         for (int i = 0; i < 4; i++) {
 271              		.loc 1 86 0
 272 00d0 4FF0000A 		mov	r10, #0
 273 00d4 97E0     		b	.L17
 274              	.LVL30:
 275              	.L28:
 276              	.LBB6:
  87:Astar.c       ****             int newX = current->x + dx[i];
 277              		.loc 1 87 0
 278 00d6 2268     		ldr	r2, [r4]
 279 00d8 04AB     		add	r3, sp, #16
 280 00da 53F82A30 		ldr	r3, [r3, r10, lsl #2]
 281 00de 02EB0308 		add	r8, r2, r3
 282              	.LVL31:
  88:Astar.c       ****             int newY = current->y + dy[i];
 283              		.loc 1 88 0
 284 00e2 6268     		ldr	r2, [r4, #4]
 285 00e4 08AB     		add	r3, sp, #32
 286 00e6 53F82A30 		ldr	r3, [r3, r10, lsl #2]
 287 00ea 02EB0309 		add	r9, r2, r3
 288              	.LVL32:
  89:Astar.c       **** 
  90:Astar.c       ****             if (isValid(newX, newY)) {
 289              		.loc 1 90 0
 290 00ee 4946     		mov	r1, r9
 291 00f0 4046     		mov	r0, r8
 292 00f2 FFF7FEFF 		bl	isValid
 293              	.LVL33:
 294 00f6 0028     		cmp	r0, #0
 295 00f8 00F08380 		beq	.L18
 296              	.LBB7:
  91:Astar.c       ****                 double tentativeG = current->g + 1.0; // Assuming cost to move from one cell to ano
 297              		.loc 1 91 0
 298 00fc 0022     		movs	r2, #0
 299 00fe 4F4B     		ldr	r3, .L38+4
 300 0100 D4E90201 		ldrd	r0, [r4, #8]
 301 0104 FFF7FEFF 		bl	__aeabi_dadd
 302              	.LVL34:
 303 0108 0646     		mov	r6, r0
 304 010a 0F46     		mov	r7, r1
 305              	.LVL35:
ARM GAS  C:\Users\dulan\AppData\Local\Temp\ccU1LG4f.s 			page 8


  92:Astar.c       **** 
  93:Astar.c       ****                 // Check if the neighbor is in the closed set
  94:Astar.c       ****                 if (closedSet[newX][newY] != NULL && tentativeG >= closedSet[newX][newY]->g) {
 306              		.loc 1 94 0
 307 010c 08EBC803 		add	r3, r8, r8, lsl #3
 308 0110 08EB4303 		add	r3, r8, r3, lsl #1
 309 0114 4B44     		add	r3, r3, r9
 310 0116 14AA     		add	r2, sp, #80
 311 0118 52F82330 		ldr	r3, [r2, r3, lsl #2]
 312 011c DBB1     		cbz	r3, .L31
 313              		.loc 1 94 0 is_stmt 0 discriminator 1
 314 011e D3E90223 		ldrd	r2, [r3, #8]
 315 0122 FFF7FEFF 		bl	__aeabi_dcmpge
 316              	.LVL36:
 317 0126 0028     		cmp	r0, #0
 318 0128 6BD1     		bne	.L18
 319 012a 0023     		movs	r3, #0
 320 012c 14E0     		b	.L19
 321              	.LVL37:
 322              	.L23:
 323              	.LBB8:
  95:Astar.c       ****                     continue; // Skip this neighbor
  96:Astar.c       ****                 }
  97:Astar.c       **** 
  98:Astar.c       ****                 // Check if the neighbor is in the open set or if it's a better path
  99:Astar.c       ****                 bool inOpenSet = false;
 100:Astar.c       ****                 for (int j = 0; openSet[j] != NULL; j++) {
 101:Astar.c       ****                     if (openSet[j]->x == newX && openSet[j]->y == newY) {
 324              		.loc 1 101 0 is_stmt 1
 325 012e 2A68     		ldr	r2, [r5]
 326 0130 9045     		cmp	r8, r2
 327 0132 0ED1     		bne	.L20
 328              		.loc 1 101 0 is_stmt 0 discriminator 1
 329 0134 6A68     		ldr	r2, [r5, #4]
 330 0136 9145     		cmp	r9, r2
 331 0138 0BD1     		bne	.L20
 332              	.LVL38:
 102:Astar.c       ****                         inOpenSet = true;
 103:Astar.c       ****                         if (tentativeG < openSet[j]->g) {
 333              		.loc 1 103 0 is_stmt 1
 334 013a D5E90223 		ldrd	r2, [r5, #8]
 335 013e 3046     		mov	r0, r6
 336 0140 3946     		mov	r1, r7
 337 0142 FFF7FEFF 		bl	__aeabi_dcmplt
 338              	.LVL39:
 339 0146 78B1     		cbz	r0, .L36
 104:Astar.c       ****                             openSet[j]->g = tentativeG;
 340              		.loc 1 104 0
 341 0148 C5E90267 		strd	r6, [r5, #8]
 105:Astar.c       ****                             openSet[j]->parent = current;
 342              		.loc 1 105 0
 343 014c AC61     		str	r4, [r5, #24]
 102:Astar.c       ****                         inOpenSet = true;
 344              		.loc 1 102 0
 345 014e 0123     		movs	r3, #1
 346 0150 0BE0     		b	.L21
 347              	.LVL40:
ARM GAS  C:\Users\dulan\AppData\Local\Temp\ccU1LG4f.s 			page 9


 348              	.L20:
 100:Astar.c       ****                     if (openSet[j]->x == newX && openSet[j]->y == newY) {
 349              		.loc 1 100 0 discriminator 2
 350 0152 0133     		adds	r3, r3, #1
 351              	.LVL41:
 352 0154 00E0     		b	.L19
 353              	.LVL42:
 354              	.L31:
 355              	.LBE8:
 356 0156 0023     		movs	r3, #0
 357              	.L19:
 358              	.LVL43:
 359              	.LBB9:
 100:Astar.c       ****                     if (openSet[j]->x == newX && openSet[j]->y == newY) {
 360              		.loc 1 100 0 is_stmt 0 discriminator 1
 361 0158 0DF2C442 		addw	r2, sp, #1220
 362 015c 52F82350 		ldr	r5, [r2, r3, lsl #2]
 363 0160 002D     		cmp	r5, #0
 364 0162 E4D1     		bne	.L23
 365              	.LBE9:
  99:Astar.c       ****                 for (int j = 0; openSet[j] != NULL; j++) {
 366              		.loc 1 99 0 is_stmt 1
 367 0164 0023     		movs	r3, #0
 368              	.LVL44:
 369              	.LBB10:
 370 0166 00E0     		b	.L21
 371              	.LVL45:
 372              	.L36:
 102:Astar.c       ****                         if (tentativeG < openSet[j]->g) {
 373              		.loc 1 102 0
 374 0168 0123     		movs	r3, #1
 375              	.LVL46:
 376              	.L21:
 377              	.LBE10:
 106:Astar.c       ****                         }
 107:Astar.c       ****                         break;
 108:Astar.c       ****                     }
 109:Astar.c       ****                 }
 110:Astar.c       **** 
 111:Astar.c       ****                 if (!inOpenSet) {
 378              		.loc 1 111 0
 379 016a 002B     		cmp	r3, #0
 380 016c 49D1     		bne	.L18
 381              	.LBB11:
 112:Astar.c       ****                     // Add neighbor to the open set
 113:Astar.c       ****                     Node* neighbor = (Node*)malloc(sizeof(Node));
 382              		.loc 1 113 0
 383 016e 2020     		movs	r0, #32
 384 0170 FFF7FEFF 		bl	malloc
 385              	.LVL47:
 386 0174 8346     		mov	fp, r0
 387              	.LVL48:
 114:Astar.c       ****                     neighbor->x = newX;
 388              		.loc 1 114 0
 389 0176 C0F80080 		str	r8, [r0]
 115:Astar.c       ****                     neighbor->y = newY;
 390              		.loc 1 115 0
ARM GAS  C:\Users\dulan\AppData\Local\Temp\ccU1LG4f.s 			page 10


 391 017a C0F80490 		str	r9, [r0, #4]
 116:Astar.c       ****                     neighbor->g = tentativeG;
 392              		.loc 1 116 0
 393 017e C0E90267 		strd	r6, [r0, #8]
 117:Astar.c       ****                     neighbor->h = heuristic(newX, newY, targetX, targetY);
 394              		.loc 1 117 0
 395 0182 039B     		ldr	r3, [sp, #12]
 396 0184 029A     		ldr	r2, [sp, #8]
 397 0186 4946     		mov	r1, r9
 398 0188 4046     		mov	r0, r8
 399              	.LVL49:
 400 018a FFF7FEFF 		bl	heuristic
 401              	.LVL50:
 402 018e 0246     		mov	r2, r0
 403 0190 0B46     		mov	r3, r1
 404 0192 CDE90023 		strd	r2, [sp]
 405 0196 CBE90423 		strd	r2, [fp, #16]
 118:Astar.c       ****                     neighbor->parent = current;
 406              		.loc 1 118 0
 407 019a CBF81840 		str	r4, [fp, #24]
 408              	.LVL51:
 119:Astar.c       **** 
 120:Astar.c       ****                     // Find the position to insert the neighbor in the open set to maintain order
 121:Astar.c       ****                     int insertIndex = 0;
 409              		.loc 1 121 0
 410 019e 0025     		movs	r5, #0
 122:Astar.c       ****                     while (openSet[insertIndex] != NULL && openSet[insertIndex]->g + openSet[insert
 411              		.loc 1 122 0
 412 01a0 00E0     		b	.L24
 413              	.LVL52:
 414              	.L26:
 123:Astar.c       ****                         insertIndex++;
 415              		.loc 1 123 0
 416 01a2 0135     		adds	r5, r5, #1
 417              	.LVL53:
 418              	.L24:
 122:Astar.c       ****                     while (openSet[insertIndex] != NULL && openSet[insertIndex]->g + openSet[insert
 419              		.loc 1 122 0
 420 01a4 0DF2C443 		addw	r3, sp, #1220
 421 01a8 53F82510 		ldr	r1, [r3, r5, lsl #2]
 422 01ac 09B3     		cbz	r1, .L33
 122:Astar.c       ****                     while (openSet[insertIndex] != NULL && openSet[insertIndex]->g + openSet[insert
 423              		.loc 1 122 0 is_stmt 0 discriminator 1
 424 01ae D1E90423 		ldrd	r2, [r1, #16]
 425 01b2 D1E90201 		ldrd	r0, [r1, #8]
 426 01b6 FFF7FEFF 		bl	__aeabi_dadd
 427              	.LVL54:
 428 01ba 8046     		mov	r8, r0
 429 01bc 8946     		mov	r9, r1
 430 01be DDE90023 		ldrd	r2, [sp]
 431 01c2 3046     		mov	r0, r6
 432 01c4 3946     		mov	r1, r7
 433 01c6 FFF7FEFF 		bl	__aeabi_dadd
 434              	.LVL55:
 435 01ca 0246     		mov	r2, r0
 436 01cc 0B46     		mov	r3, r1
 437 01ce 4046     		mov	r0, r8
ARM GAS  C:\Users\dulan\AppData\Local\Temp\ccU1LG4f.s 			page 11


 438 01d0 4946     		mov	r1, r9
 439 01d2 FFF7FEFF 		bl	__aeabi_dcmplt
 440              	.LVL56:
 441 01d6 0028     		cmp	r0, #0
 442 01d8 E3D1     		bne	.L26
 443 01da 4FF48E73 		mov	r3, #284
 444 01de 0AE0     		b	.L25
 445              	.LVL57:
 446              	.L27:
 447              	.LBB12:
 124:Astar.c       ****                     }
 125:Astar.c       **** 
 126:Astar.c       ****                     // Shift elements to make space for the new neighbor
 127:Astar.c       ****                     for (int j = MAP_ROWS * MAP_COLS - 1; j > insertIndex; j--) {
 128:Astar.c       ****                         openSet[j] = openSet[j - 1];
 448              		.loc 1 128 0 is_stmt 1 discriminator 3
 449 01e0 5A1E     		subs	r2, r3, #1
 450 01e2 0DF2C441 		addw	r1, sp, #1220
 451 01e6 51F82200 		ldr	r0, [r1, r2, lsl #2]
 452 01ea 41F82300 		str	r0, [r1, r3, lsl #2]
 453              	.LVL58:
 127:Astar.c       ****                         openSet[j] = openSet[j - 1];
 454              		.loc 1 127 0 discriminator 3
 455 01ee 1346     		mov	r3, r2
 456 01f0 01E0     		b	.L25
 457              	.LVL59:
 458              	.L33:
 459              	.LBE12:
 460 01f2 4FF48E73 		mov	r3, #284
 461              	.L25:
 462              	.LVL60:
 463              	.LBB13:
 127:Astar.c       ****                         openSet[j] = openSet[j - 1];
 464              		.loc 1 127 0 is_stmt 0 discriminator 1
 465 01f6 9D42     		cmp	r5, r3
 466 01f8 F2DB     		blt	.L27
 467              	.LBE13:
 129:Astar.c       ****                     }
 130:Astar.c       **** 
 131:Astar.c       ****                     openSet[insertIndex] = neighbor;
 468              		.loc 1 131 0 is_stmt 1
 469 01fa 0DF2C443 		addw	r3, sp, #1220
 470              	.LVL61:
 471 01fe 43F825B0 		str	fp, [r3, r5, lsl #2]
 472              	.LVL62:
 473              	.L18:
 474              	.LBE11:
 475              	.LBE7:
 476              	.LBE6:
  86:Astar.c       ****             int newX = current->x + dx[i];
 477              		.loc 1 86 0 discriminator 2
 478 0202 0AF1010A 		add	r10, r10, #1
 479              	.LVL63:
 480              	.L17:
  86:Astar.c       ****             int newX = current->x + dx[i];
 481              		.loc 1 86 0 is_stmt 0 discriminator 1
 482 0206 BAF1030F 		cmp	r10, #3
ARM GAS  C:\Users\dulan\AppData\Local\Temp\ccU1LG4f.s 			page 12


 483 020a 7FF764AF 		ble	.L28
 484              	.LBE5:
 132:Astar.c       ****                 }
 133:Astar.c       ****             }
 134:Astar.c       ****         }
 135:Astar.c       **** 
 136:Astar.c       ****         // Add current node to the closed set
 137:Astar.c       ****         closedSet[current->x][current->y] = current;
 485              		.loc 1 137 0 is_stmt 1
 486 020e 2368     		ldr	r3, [r4]
 487 0210 6268     		ldr	r2, [r4, #4]
 488 0212 03EBC301 		add	r1, r3, r3, lsl #3
 489 0216 03EB4103 		add	r3, r3, r1, lsl #1
 490 021a 1344     		add	r3, r3, r2
 491 021c 14AA     		add	r2, sp, #80
 492 021e 42F82340 		str	r4, [r2, r3, lsl #2]
 493              	.LVL64:
 494              	.L12:
 495              	.LBE14:
  62:Astar.c       ****         // Find the node with the lowest f = g + h
 496              		.loc 1 62 0
 497 0222 DDF8C444 		ldr	r4, [sp, #1220]
 498 0226 002C     		cmp	r4, #0
 499 0228 7FF42FAF 		bne	.L34
 138:Astar.c       ****     }
 139:Astar.c       **** 
 140:Astar.c       ****     return NULL; // No path found
 500              		.loc 1 140 0
 501 022c 0020     		movs	r0, #0
 502              	.L16:
 141:Astar.c       **** }
 503              		.loc 1 141 0
 504 022e 0DF63C1D 		addw	sp, sp, #2364
 505              		.cfi_def_cfa_offset 36
 506              		@ sp needed
 507 0232 BDE8F08F 		pop	{r4, r5, r6, r7, r8, r9, r10, fp, pc}
 508              	.LVL65:
 509              	.L39:
 510 0236 00BF     		.align	2
 511              	.L38:
 512 0238 00000000 		.word	.LANCHOR1
 513 023c 0000F03F 		.word	1072693248
 514              		.cfi_endproc
 515              	.LFE3:
 516              		.size	AStar, .-AStar
 517              		.section	.text.getPath,"ax",%progbits
 518              		.align	2
 519              		.global	getPath
 520              		.thumb
 521              		.thumb_func
 522              		.type	getPath, %function
 523              	getPath:
 524              	.LFB4:
 142:Astar.c       **** 
 143:Astar.c       **** // Function to print the path
 144:Astar.c       **** void getPath(Node* endNode) {
 525              		.loc 1 144 0
ARM GAS  C:\Users\dulan\AppData\Local\Temp\ccU1LG4f.s 			page 13


 526              		.cfi_startproc
 527              		@ args = 0, pretend = 0, frame = 0
 528              		@ frame_needed = 0, uses_anonymous_args = 0
 529              	.LVL66:
 530 0000 08B5     		push	{r3, lr}
 531              		.cfi_def_cfa_offset 8
 532              		.cfi_offset 3, -8
 533              		.cfi_offset 14, -4
 145:Astar.c       ****     if (endNode == NULL) {
 534              		.loc 1 145 0
 535 0002 90B9     		cbnz	r0, .L44
 146:Astar.c       ****         printf("No path found.\n");
 536              		.loc 1 146 0
 537 0004 0B48     		ldr	r0, .L46
 538              	.LVL67:
 539 0006 FFF7FEFF 		bl	puts
 540              	.LVL68:
 147:Astar.c       ****         return;
 541              		.loc 1 147 0
 542 000a 08BD     		pop	{r3, pc}
 543              	.LVL69:
 544              	.L43:
 148:Astar.c       ****     }
 149:Astar.c       **** 
 150:Astar.c       ****     Node* current = endNode;
 151:Astar.c       ****     int i=0;
 152:Astar.c       ****     while (current != NULL) {
 153:Astar.c       **** //        printf("(%d, %d) -> ", current->x, current->y);
 154:Astar.c       ****         pathCoordinates[i][0]=current->x;
 545              		.loc 1 154 0
 546 000c 1868     		ldr	r0, [r3]
 547 000e 0A4A     		ldr	r2, .L46+4
 548 0010 42F83100 		str	r0, [r2, r1, lsl #3]
 155:Astar.c       ****         pathCoordinates[i][1]=current->y;
 549              		.loc 1 155 0
 550 0014 5868     		ldr	r0, [r3, #4]
 551 0016 02EBC102 		add	r2, r2, r1, lsl #3
 552 001a 5060     		str	r0, [r2, #4]
 156:Astar.c       ****         i++;
 553              		.loc 1 156 0
 554 001c 0131     		adds	r1, r1, #1
 555              	.LVL70:
 157:Astar.c       ****         current = current->parent;
 556              		.loc 1 157 0
 557 001e 9B69     		ldr	r3, [r3, #24]
 558              	.LVL71:
 158:Astar.c       ****         pathLength++;
 559              		.loc 1 158 0
 560 0020 0648     		ldr	r0, .L46+8
 561 0022 0268     		ldr	r2, [r0]
 562 0024 0132     		adds	r2, r2, #1
 563 0026 0260     		str	r2, [r0]
 564 0028 01E0     		b	.L41
 565              	.LVL72:
 566              	.L44:
 567 002a 0346     		mov	r3, r0
 568 002c 0021     		movs	r1, #0
ARM GAS  C:\Users\dulan\AppData\Local\Temp\ccU1LG4f.s 			page 14


 569              	.LVL73:
 570              	.L41:
 152:Astar.c       **** //        printf("(%d, %d) -> ", current->x, current->y);
 571              		.loc 1 152 0
 572 002e 002B     		cmp	r3, #0
 573 0030 ECD1     		bne	.L43
 574 0032 08BD     		pop	{r3, pc}
 575              	.LVL74:
 576              	.L47:
 577              		.align	2
 578              	.L46:
 579 0034 00000000 		.word	.LC2
 580 0038 00000000 		.word	pathCoordinates
 581 003c 00000000 		.word	.LANCHOR2
 582              		.cfi_endproc
 583              	.LFE4:
 584              		.size	getPath, .-getPath
 585              		.global	map
 586              		.global	pathLength
 587              		.comm	pathCoordinates,200,4
 588              		.section	.rodata
 589              		.align	2
 590              		.set	.LANCHOR1,. + 0
 591              	.LC0:
 592 0000 FFFFFFFF 		.word	-1
 593 0004 01000000 		.word	1
 594 0008 00000000 		.word	0
 595 000c 00000000 		.word	0
 596              	.LC1:
 597 0010 00000000 		.word	0
 598 0014 00000000 		.word	0
 599 0018 FFFFFFFF 		.word	-1
 600 001c 01000000 		.word	1
 601              		.data
 602              		.align	2
 603              		.set	.LANCHOR0,. + 0
 604              		.type	map, %object
 605              		.size	map, 1140
 606              	map:
 607 0000 01000000 		.word	1
 608 0004 01000000 		.word	1
 609 0008 01000000 		.word	1
 610 000c 01000000 		.word	1
 611 0010 01000000 		.word	1
 612 0014 01000000 		.word	1
 613 0018 01000000 		.word	1
 614 001c 01000000 		.word	1
 615 0020 01000000 		.word	1
 616 0024 01000000 		.word	1
 617 0028 01000000 		.word	1
 618 002c 01000000 		.word	1
 619 0030 01000000 		.word	1
 620 0034 01000000 		.word	1
 621 0038 01000000 		.word	1
 622 003c 01000000 		.word	1
 623 0040 01000000 		.word	1
 624 0044 01000000 		.word	1
ARM GAS  C:\Users\dulan\AppData\Local\Temp\ccU1LG4f.s 			page 15


 625 0048 01000000 		.word	1
 626 004c 01000000 		.word	1
 627 0050 00000000 		.word	0
 628 0054 00000000 		.word	0
 629 0058 00000000 		.word	0
 630 005c 00000000 		.word	0
 631 0060 00000000 		.word	0
 632 0064 01000000 		.word	1
 633 0068 00000000 		.word	0
 634 006c 00000000 		.word	0
 635 0070 00000000 		.word	0
 636 0074 00000000 		.word	0
 637 0078 00000000 		.word	0
 638 007c 00000000 		.word	0
 639 0080 00000000 		.word	0
 640 0084 00000000 		.word	0
 641 0088 00000000 		.word	0
 642 008c 00000000 		.word	0
 643 0090 00000000 		.word	0
 644 0094 01000000 		.word	1
 645 0098 01000000 		.word	1
 646 009c 01000000 		.word	1
 647 00a0 01000000 		.word	1
 648 00a4 01000000 		.word	1
 649 00a8 01000000 		.word	1
 650 00ac 00000000 		.word	0
 651 00b0 01000000 		.word	1
 652 00b4 00000000 		.word	0
 653 00b8 01000000 		.word	1
 654 00bc 01000000 		.word	1
 655 00c0 01000000 		.word	1
 656 00c4 01000000 		.word	1
 657 00c8 01000000 		.word	1
 658 00cc 01000000 		.word	1
 659 00d0 01000000 		.word	1
 660 00d4 00000000 		.word	0
 661 00d8 01000000 		.word	1
 662 00dc 00000000 		.word	0
 663 00e0 01000000 		.word	1
 664 00e4 01000000 		.word	1
 665 00e8 00000000 		.word	0
 666 00ec 00000000 		.word	0
 667 00f0 00000000 		.word	0
 668 00f4 00000000 		.word	0
 669 00f8 00000000 		.word	0
 670 00fc 00000000 		.word	0
 671 0100 00000000 		.word	0
 672 0104 00000000 		.word	0
 673 0108 00000000 		.word	0
 674 010c 00000000 		.word	0
 675 0110 00000000 		.word	0
 676 0114 00000000 		.word	0
 677 0118 00000000 		.word	0
 678 011c 01000000 		.word	1
 679 0120 00000000 		.word	0
 680 0124 01000000 		.word	1
 681 0128 00000000 		.word	0
ARM GAS  C:\Users\dulan\AppData\Local\Temp\ccU1LG4f.s 			page 16


 682 012c 01000000 		.word	1
 683 0130 01000000 		.word	1
 684 0134 00000000 		.word	0
 685 0138 01000000 		.word	1
 686 013c 00000000 		.word	0
 687 0140 01000000 		.word	1
 688 0144 01000000 		.word	1
 689 0148 01000000 		.word	1
 690 014c 01000000 		.word	1
 691 0150 01000000 		.word	1
 692 0154 00000000 		.word	0
 693 0158 01000000 		.word	1
 694 015c 00000000 		.word	0
 695 0160 01000000 		.word	1
 696 0164 01000000 		.word	1
 697 0168 01000000 		.word	1
 698 016c 00000000 		.word	0
 699 0170 01000000 		.word	1
 700 0174 00000000 		.word	0
 701 0178 01000000 		.word	1
 702 017c 01000000 		.word	1
 703 0180 00000000 		.word	0
 704 0184 01000000 		.word	1
 705 0188 00000000 		.word	0
 706 018c 00000000 		.word	0
 707 0190 00000000 		.word	0
 708 0194 01000000 		.word	1
 709 0198 00000000 		.word	0
 710 019c 00000000 		.word	0
 711 01a0 00000000 		.word	0
 712 01a4 01000000 		.word	1
 713 01a8 00000000 		.word	0
 714 01ac 01000000 		.word	1
 715 01b0 00000000 		.word	0
 716 01b4 00000000 		.word	0
 717 01b8 00000000 		.word	0
 718 01bc 01000000 		.word	1
 719 01c0 00000000 		.word	0
 720 01c4 01000000 		.word	1
 721 01c8 01000000 		.word	1
 722 01cc 00000000 		.word	0
 723 01d0 01000000 		.word	1
 724 01d4 01000000 		.word	1
 725 01d8 01000000 		.word	1
 726 01dc 00000000 		.word	0
 727 01e0 01000000 		.word	1
 728 01e4 00000000 		.word	0
 729 01e8 01000000 		.word	1
 730 01ec 00000000 		.word	0
 731 01f0 01000000 		.word	1
 732 01f4 00000000 		.word	0
 733 01f8 01000000 		.word	1
 734 01fc 00000000 		.word	0
 735 0200 01000000 		.word	1
 736 0204 01000000 		.word	1
 737 0208 01000000 		.word	1
 738 020c 00000000 		.word	0
ARM GAS  C:\Users\dulan\AppData\Local\Temp\ccU1LG4f.s 			page 17


 739 0210 01000000 		.word	1
 740 0214 01000000 		.word	1
 741 0218 00000000 		.word	0
 742 021c 00000000 		.word	0
 743 0220 00000000 		.word	0
 744 0224 00000000 		.word	0
 745 0228 00000000 		.word	0
 746 022c 01000000 		.word	1
 747 0230 00000000 		.word	0
 748 0234 01000000 		.word	1
 749 0238 00000000 		.word	0
 750 023c 01000000 		.word	1
 751 0240 00000000 		.word	0
 752 0244 01000000 		.word	1
 753 0248 00000000 		.word	0
 754 024c 01000000 		.word	1
 755 0250 00000000 		.word	0
 756 0254 00000000 		.word	0
 757 0258 00000000 		.word	0
 758 025c 01000000 		.word	1
 759 0260 01000000 		.word	1
 760 0264 00000000 		.word	0
 761 0268 01000000 		.word	1
 762 026c 01000000 		.word	1
 763 0270 01000000 		.word	1
 764 0274 01000000 		.word	1
 765 0278 01000000 		.word	1
 766 027c 00000000 		.word	0
 767 0280 01000000 		.word	1
 768 0284 00000000 		.word	0
 769 0288 01000000 		.word	1
 770 028c 01000000 		.word	1
 771 0290 01000000 		.word	1
 772 0294 00000000 		.word	0
 773 0298 01000000 		.word	1
 774 029c 00000000 		.word	0
 775 02a0 01000000 		.word	1
 776 02a4 01000000 		.word	1
 777 02a8 01000000 		.word	1
 778 02ac 01000000 		.word	1
 779 02b0 00000000 		.word	0
 780 02b4 00000000 		.word	0
 781 02b8 00000000 		.word	0
 782 02bc 00000000 		.word	0
 783 02c0 00000000 		.word	0
 784 02c4 00000000 		.word	0
 785 02c8 00000000 		.word	0
 786 02cc 01000000 		.word	1
 787 02d0 00000000 		.word	0
 788 02d4 00000000 		.word	0
 789 02d8 00000000 		.word	0
 790 02dc 01000000 		.word	1
 791 02e0 00000000 		.word	0
 792 02e4 01000000 		.word	1
 793 02e8 00000000 		.word	0
 794 02ec 00000000 		.word	0
 795 02f0 00000000 		.word	0
ARM GAS  C:\Users\dulan\AppData\Local\Temp\ccU1LG4f.s 			page 18


 796 02f4 01000000 		.word	1
 797 02f8 01000000 		.word	1
 798 02fc 01000000 		.word	1
 799 0300 01000000 		.word	1
 800 0304 01000000 		.word	1
 801 0308 01000000 		.word	1
 802 030c 01000000 		.word	1
 803 0310 01000000 		.word	1
 804 0314 00000000 		.word	0
 805 0318 01000000 		.word	1
 806 031c 01000000 		.word	1
 807 0320 01000000 		.word	1
 808 0324 00000000 		.word	0
 809 0328 01000000 		.word	1
 810 032c 00000000 		.word	0
 811 0330 01000000 		.word	1
 812 0334 01000000 		.word	1
 813 0338 01000000 		.word	1
 814 033c 00000000 		.word	0
 815 0340 01000000 		.word	1
 816 0344 01000000 		.word	1
 817 0348 00000000 		.word	0
 818 034c 00000000 		.word	0
 819 0350 00000000 		.word	0
 820 0354 00000000 		.word	0
 821 0358 00000000 		.word	0
 822 035c 00000000 		.word	0
 823 0360 00000000 		.word	0
 824 0364 00000000 		.word	0
 825 0368 00000000 		.word	0
 826 036c 01000000 		.word	1
 827 0370 00000000 		.word	0
 828 0374 01000000 		.word	1
 829 0378 00000000 		.word	0
 830 037c 00000000 		.word	0
 831 0380 00000000 		.word	0
 832 0384 00000000 		.word	0
 833 0388 00000000 		.word	0
 834 038c 01000000 		.word	1
 835 0390 01000000 		.word	1
 836 0394 00000000 		.word	0
 837 0398 01000000 		.word	1
 838 039c 01000000 		.word	1
 839 03a0 01000000 		.word	1
 840 03a4 01000000 		.word	1
 841 03a8 01000000 		.word	1
 842 03ac 01000000 		.word	1
 843 03b0 01000000 		.word	1
 844 03b4 00000000 		.word	0
 845 03b8 01000000 		.word	1
 846 03bc 00000000 		.word	0
 847 03c0 01000000 		.word	1
 848 03c4 01000000 		.word	1
 849 03c8 01000000 		.word	1
 850 03cc 01000000 		.word	1
 851 03d0 01000000 		.word	1
 852 03d4 00000000 		.word	0
ARM GAS  C:\Users\dulan\AppData\Local\Temp\ccU1LG4f.s 			page 19


 853 03d8 01000000 		.word	1
 854 03dc 01000000 		.word	1
 855 03e0 00000000 		.word	0
 856 03e4 00000000 		.word	0
 857 03e8 00000000 		.word	0
 858 03ec 00000000 		.word	0
 859 03f0 00000000 		.word	0
 860 03f4 00000000 		.word	0
 861 03f8 00000000 		.word	0
 862 03fc 01000000 		.word	1
 863 0400 00000000 		.word	0
 864 0404 00000000 		.word	0
 865 0408 00000000 		.word	0
 866 040c 00000000 		.word	0
 867 0410 00000000 		.word	0
 868 0414 00000000 		.word	0
 869 0418 00000000 		.word	0
 870 041c 00000000 		.word	0
 871 0420 00000000 		.word	0
 872 0424 01000000 		.word	1
 873 0428 01000000 		.word	1
 874 042c 01000000 		.word	1
 875 0430 01000000 		.word	1
 876 0434 01000000 		.word	1
 877 0438 01000000 		.word	1
 878 043c 01000000 		.word	1
 879 0440 01000000 		.word	1
 880 0444 01000000 		.word	1
 881 0448 01000000 		.word	1
 882 044c 01000000 		.word	1
 883 0450 01000000 		.word	1
 884 0454 01000000 		.word	1
 885 0458 01000000 		.word	1
 886 045c 01000000 		.word	1
 887 0460 01000000 		.word	1
 888 0464 01000000 		.word	1
 889 0468 01000000 		.word	1
 890 046c 01000000 		.word	1
 891 0470 01000000 		.word	1
 892              		.section	.rodata.str1.4,"aMS",%progbits,1
 893              		.align	2
 894              	.LC2:
 895 0000 4E6F2070 		.ascii	"No path found.\000"
 895      61746820 
 895      666F756E 
 895      642E00
 896              		.bss
 897              		.align	2
 898              		.set	.LANCHOR2,. + 0
 899              		.type	pathLength, %object
 900              		.size	pathLength, 4
 901              	pathLength:
 902 0000 00000000 		.space	4
 903              		.text
 904              	.Letext0:
 905              		.file 2 "c:\\program files (x86)\\cypress\\psoc creator\\4.4\\psoc creator\\import\\gnu\\arm\\5.4.
 906              		.file 3 "<built-in>"
ARM GAS  C:\Users\dulan\AppData\Local\Temp\ccU1LG4f.s 			page 20

