ARM GAS  C:\Users\dulan\AppData\Local\Temp\ccAugHzz.s 			page 1


   1              		.syntax unified
   2              		.cpu cortex-m3
   3              		.fpu softvfp
   4              		.eabi_attribute 20, 1
   5              		.eabi_attribute 21, 1
   6              		.eabi_attribute 23, 3
   7              		.eabi_attribute 24, 1
   8              		.eabi_attribute 25, 1
   9              		.eabi_attribute 26, 1
  10              		.eabi_attribute 30, 1
  11              		.eabi_attribute 34, 1
  12              		.eabi_attribute 18, 4
  13              		.thumb
  14              		.syntax unified
  15              		.file	"main.c"
  16              		.text
  17              	.Ltext0:
  18              		.cfi_sections	.debug_frame
  19              		.section	.text.isr_1_handler,"ax",%progbits
  20              		.align	2
  21              		.global	isr_1_handler
  22              		.thumb
  23              		.thumb_func
  24              		.type	isr_1_handler, %function
  25              	isr_1_handler:
  26              	.LFB64:
  27              		.file 1 "main.c"
   1:main.c        **** /* ========================================
   2:main.c        ****  *
   3:main.c        ****  * Copyright YOUR COMPANY, THE YEAR
   4:main.c        ****  * All Rights Reserved
   5:main.c        ****  * UNPUBLISHED, LICENSED SOFTWARE.
   6:main.c        ****  *
   7:main.c        ****  * CONFIDENTIAL AND PROPRIETARY INFORMATION
   8:main.c        ****  * WHICH IS THE PROPERTY OF your company.
   9:main.c        ****  *
  10:main.c        ****  * ========================================
  11:main.c        **** */
  12:main.c        **** /* ========================================
  13:main.c        ****  * Fully working code: 
  14:main.c        ****  * PWM      : 
  15:main.c        ****  * Encoder  : 
  16:main.c        ****  * ADC      :
  17:main.c        ****  * USB      : port displays speed and position.
  18:main.c        ****  * CMD: "PW xx"
  19:main.c        ****  * Copyright Univ of Auckland, 2016
  20:main.c        ****  * All Rights Reserved
  21:main.c        ****  * UNPUBLISHED, LICENSED SOFTWARE.
  22:main.c        ****  *
  23:main.c        ****  * CONFIDENTIAL AND PROPRIETARY INFORMATION
  24:main.c        ****  * WHICH IS THE PROPERTY OF Univ of Auckland.
  25:main.c        ****  *
  26:main.c        ****  * ========================================
  27:main.c        **** */
  28:main.c        **** #include <stdio.h>
  29:main.c        **** #include <string.h>
  30:main.c        **** #include <stdlib.h>
ARM GAS  C:\Users\dulan\AppData\Local\Temp\ccAugHzz.s 			page 2


  31:main.c        **** #include <project.h>
  32:main.c        **** #include <stdbool.h>
  33:main.c        **** #include <math.h>
  34:main.c        **** #include <cytypes.h> 
  35:main.c        **** #include "Astar.h"
  36:main.c        **** 
  37:main.c        **** //distance calculation paras
  38:main.c        **** int32 encoderCounts_M1 = 0;  
  39:main.c        **** int32 encoderCounts_M2 = 0;  
  40:main.c        **** int32 CPR = 228;  // Adjusted for 4x resolution(228/4)
  41:main.c        **** float wheelCircumference_cm = (M_PI*64.46)/10;// wheel circumference wheelDiameter_mm = 64.46)
  42:main.c        **** double timeInterval_s = 10.924;  // Effective time interval( (timer period )2.731*4)
  43:main.c        **** float32  distance_M1 = 0;
  44:main.c        **** float32  distance_M2 = 0;
  45:main.c        **** float32  current_distance_M1 = 0;
  46:main.c        **** float32  current_distance_M2 = 0;
  47:main.c        **** float32 target_diatance = 0;//cm
  48:main.c        **** float32 speed_M1 = 0;
  49:main.c        **** float32 speed_M2 = 0;
  50:main.c        **** int32 encoder_value_sum_M1 = 0;
  51:main.c        **** int32 encoder_value_sum_M2 = 0;
  52:main.c        **** uint8 counter = 1;
  53:main.c        **** 
  54:main.c        **** //define wheel speeds
  55:main.c        **** #define PWM_PERIOD 100
  56:main.c        **** #define PWM_STRAIGHT_L 131
  57:main.c        **** #define PWM_STRAIGHT_R 130
  58:main.c        **** #define PWM_STOP 100
  59:main.c        **** 
  60:main.c        **** // Define states for the state machine
  61:main.c        **** typedef enum {
  62:main.c        ****     GO_STRAIGHT,
  63:main.c        ****     TURN_LEFT,
  64:main.c        ****     TURN_RIGHT,
  65:main.c        ****     STOP
  66:main.c        **** } RobotState;
  67:main.c        **** 
  68:main.c        **** RobotState current_state = STOP;// intialse state
  69:main.c        **** 
  70:main.c        **** uint32 count = 0;
  71:main.c        **** bool isTurning=false;
  72:main.c        **** 
  73:main.c        **** uint8 comp0_sum;
  74:main.c        **** uint8 comp1_sum;
  75:main.c        **** uint8 comp2_sum;
  76:main.c        **** uint8 comp3_sum;
  77:main.c        **** 
  78:main.c        **** CY_ISR(isr_1_handler) {
  28              		.loc 1 78 0
  29              		.cfi_startproc
  30              		@ args = 0, pretend = 0, frame = 0
  31              		@ frame_needed = 0, uses_anonymous_args = 0
  32 0000 08B5     		push	{r3, lr}
  33              		.cfi_def_cfa_offset 8
  34              		.cfi_offset 3, -8
  35              		.cfi_offset 14, -4
  79:main.c        ****         //every 1ms 
ARM GAS  C:\Users\dulan\AppData\Local\Temp\ccAugHzz.s 			page 3


  80:main.c        ****     
  81:main.c        ****     //sum up comp values every 1ms
  82:main.c        ****     comp0_sum+=Comp_0_GetCompare();
  36              		.loc 1 82 0
  37 0002 FFF7FEFF 		bl	Comp_0_GetCompare
  38              	.LVL0:
  39 0006 164A     		ldr	r2, .L4
  40 0008 1378     		ldrb	r3, [r2]	@ zero_extendqisi2
  41 000a 1844     		add	r0, r0, r3
  42 000c 1070     		strb	r0, [r2]
  83:main.c        ****     comp1_sum+=Comp_1_GetCompare();
  43              		.loc 1 83 0
  44 000e FFF7FEFF 		bl	Comp_1_GetCompare
  45              	.LVL1:
  46 0012 144A     		ldr	r2, .L4+4
  47 0014 1378     		ldrb	r3, [r2]	@ zero_extendqisi2
  48 0016 1844     		add	r0, r0, r3
  49 0018 1070     		strb	r0, [r2]
  84:main.c        ****     comp2_sum+=Comp_2_GetCompare();
  50              		.loc 1 84 0
  51 001a FFF7FEFF 		bl	Comp_2_GetCompare
  52              	.LVL2:
  53 001e 124A     		ldr	r2, .L4+8
  54 0020 1378     		ldrb	r3, [r2]	@ zero_extendqisi2
  55 0022 1844     		add	r0, r0, r3
  56 0024 1070     		strb	r0, [r2]
  85:main.c        ****     comp3_sum+=Comp_3_GetCompare();
  57              		.loc 1 85 0
  58 0026 FFF7FEFF 		bl	Comp_3_GetCompare
  59              	.LVL3:
  60 002a 104A     		ldr	r2, .L4+12
  61 002c 1378     		ldrb	r3, [r2]	@ zero_extendqisi2
  62 002e 1844     		add	r0, r0, r3
  63 0030 1070     		strb	r0, [r2]
  86:main.c        ****       
  87:main.c        ****     if(count==8){
  64              		.loc 1 87 0
  65 0032 0F4B     		ldr	r3, .L4+16
  66 0034 1B68     		ldr	r3, [r3]
  67 0036 082B     		cmp	r3, #8
  68 0038 0AD1     		bne	.L2
  88:main.c        ****         //reset to check again every 8ms
  89:main.c        ****         comp0_sum=0;
  69              		.loc 1 89 0
  70 003a 0023     		movs	r3, #0
  71 003c 084A     		ldr	r2, .L4
  72 003e 1370     		strb	r3, [r2]
  90:main.c        ****         comp1_sum=0;
  73              		.loc 1 90 0
  74 0040 084A     		ldr	r2, .L4+4
  75 0042 1370     		strb	r3, [r2]
  91:main.c        ****         comp2_sum=0;
  76              		.loc 1 91 0
  77 0044 084A     		ldr	r2, .L4+8
  78 0046 1370     		strb	r3, [r2]
  92:main.c        ****         comp3_sum=0;
  79              		.loc 1 92 0
ARM GAS  C:\Users\dulan\AppData\Local\Temp\ccAugHzz.s 			page 4


  80 0048 084A     		ldr	r2, .L4+12
  81 004a 1370     		strb	r3, [r2]
  93:main.c        ****         count=0;
  82              		.loc 1 93 0
  83 004c 084A     		ldr	r2, .L4+16
  84 004e 1360     		str	r3, [r2]
  85              	.L2:
  94:main.c        ****     }
  95:main.c        ****    
  96:main.c        ****     count++;
  86              		.loc 1 96 0
  87 0050 074A     		ldr	r2, .L4+16
  88 0052 1368     		ldr	r3, [r2]
  89 0054 0133     		adds	r3, r3, #1
  90 0056 1360     		str	r3, [r2]
  97:main.c        ****     Timer_1_ReadStatusRegister();
  91              		.loc 1 97 0
  92 0058 FFF7FEFF 		bl	Timer_1_ReadStatusRegister
  93              	.LVL4:
  94 005c 08BD     		pop	{r3, pc}
  95              	.L5:
  96 005e 00BF     		.align	2
  97              	.L4:
  98 0060 00000000 		.word	comp0_sum
  99 0064 00000000 		.word	comp1_sum
 100 0068 00000000 		.word	comp2_sum
 101 006c 00000000 		.word	comp3_sum
 102 0070 00000000 		.word	.LANCHOR0
 103              		.cfi_endproc
 104              	.LFE64:
 105              		.size	isr_1_handler, .-isr_1_handler
 106              		.section	.text.stop,"ax",%progbits
 107              		.align	2
 108              		.global	stop
 109              		.thumb
 110              		.thumb_func
 111              		.type	stop, %function
 112              	stop:
 113              	.LFB65:
  98:main.c        **** }
  99:main.c        **** 
 100:main.c        **** void stop(){
 114              		.loc 1 100 0
 115              		.cfi_startproc
 116              		@ args = 0, pretend = 0, frame = 0
 117              		@ frame_needed = 0, uses_anonymous_args = 0
 118 0000 08B5     		push	{r3, lr}
 119              		.cfi_def_cfa_offset 8
 120              		.cfi_offset 3, -8
 121              		.cfi_offset 14, -4
 101:main.c        ****     PWM_1_WriteCompare(50);
 122              		.loc 1 101 0
 123 0002 3220     		movs	r0, #50
 124 0004 FFF7FEFF 		bl	PWM_1_WriteCompare
 125              	.LVL5:
 102:main.c        ****     PWM_2_WriteCompare(50);
 126              		.loc 1 102 0
ARM GAS  C:\Users\dulan\AppData\Local\Temp\ccAugHzz.s 			page 5


 127 0008 3220     		movs	r0, #50
 128 000a FFF7FEFF 		bl	PWM_2_WriteCompare
 129              	.LVL6:
 130 000e 08BD     		pop	{r3, pc}
 131              		.cfi_endproc
 132              	.LFE65:
 133              		.size	stop, .-stop
 134              		.section	.text.turnLeft,"ax",%progbits
 135              		.align	2
 136              		.global	turnLeft
 137              		.thumb
 138              		.thumb_func
 139              		.type	turnLeft, %function
 140              	turnLeft:
 141              	.LFB66:
 103:main.c        **** }
 104:main.c        **** 
 105:main.c        **** void turnLeft(){
 142              		.loc 1 105 0
 143              		.cfi_startproc
 144              		@ args = 0, pretend = 0, frame = 0
 145              		@ frame_needed = 0, uses_anonymous_args = 0
 146 0000 08B5     		push	{r3, lr}
 147              		.cfi_def_cfa_offset 8
 148              		.cfi_offset 3, -8
 149              		.cfi_offset 14, -4
 106:main.c        ****     QuadDec_M1_SetCounter(0);
 150              		.loc 1 106 0
 151 0002 0020     		movs	r0, #0
 152 0004 FFF7FEFF 		bl	QuadDec_M1_SetCounter
 153              	.LVL7:
 107:main.c        ****     PWM_1_WriteCompare(70);
 154              		.loc 1 107 0
 155 0008 4620     		movs	r0, #70
 156 000a FFF7FEFF 		bl	PWM_1_WriteCompare
 157              	.LVL8:
 108:main.c        ****     PWM_2_WriteCompare(30);
 158              		.loc 1 108 0
 159 000e 1E20     		movs	r0, #30
 160 0010 FFF7FEFF 		bl	PWM_2_WriteCompare
 161              	.LVL9:
 162              	.L9:
 109:main.c        ****     while(abs(QuadDec_M1_GetCounter())<80){
 163              		.loc 1 109 0 discriminator 1
 164 0014 FFF7FEFF 		bl	QuadDec_M1_GetCounter
 165              	.LVL10:
 166 0018 0028     		cmp	r0, #0
 167 001a B8BF     		it	lt
 168 001c 4042     		rsblt	r0, r0, #0
 169 001e 4F28     		cmp	r0, #79
 170 0020 F8DD     		ble	.L9
 110:main.c        ****         ;;
 111:main.c        ****     }
 112:main.c        ****     isTurning=false;
 171              		.loc 1 112 0
 172 0022 0022     		movs	r2, #0
 173 0024 014B     		ldr	r3, .L11
ARM GAS  C:\Users\dulan\AppData\Local\Temp\ccAugHzz.s 			page 6


 174 0026 1A71     		strb	r2, [r3, #4]
 175 0028 08BD     		pop	{r3, pc}
 176              	.L12:
 177 002a 00BF     		.align	2
 178              	.L11:
 179 002c 00000000 		.word	.LANCHOR0
 180              		.cfi_endproc
 181              	.LFE66:
 182              		.size	turnLeft, .-turnLeft
 183              		.section	.text.turnRight,"ax",%progbits
 184              		.align	2
 185              		.global	turnRight
 186              		.thumb
 187              		.thumb_func
 188              		.type	turnRight, %function
 189              	turnRight:
 190              	.LFB67:
 113:main.c        ****     
 114:main.c        **** }
 115:main.c        **** void turnRight(){
 191              		.loc 1 115 0
 192              		.cfi_startproc
 193              		@ args = 0, pretend = 0, frame = 0
 194              		@ frame_needed = 0, uses_anonymous_args = 0
 195 0000 08B5     		push	{r3, lr}
 196              		.cfi_def_cfa_offset 8
 197              		.cfi_offset 3, -8
 198              		.cfi_offset 14, -4
 116:main.c        ****     QuadDec_M2_SetCounter(0);
 199              		.loc 1 116 0
 200 0002 0020     		movs	r0, #0
 201 0004 FFF7FEFF 		bl	QuadDec_M2_SetCounter
 202              	.LVL11:
 117:main.c        ****     PWM_1_WriteCompare(30);
 203              		.loc 1 117 0
 204 0008 1E20     		movs	r0, #30
 205 000a FFF7FEFF 		bl	PWM_1_WriteCompare
 206              	.LVL12:
 118:main.c        ****     PWM_2_WriteCompare(70);
 207              		.loc 1 118 0
 208 000e 4620     		movs	r0, #70
 209 0010 FFF7FEFF 		bl	PWM_2_WriteCompare
 210              	.LVL13:
 211              	.L14:
 119:main.c        ****     while(abs(QuadDec_M2_GetCounter())<80){
 212              		.loc 1 119 0 discriminator 1
 213 0014 FFF7FEFF 		bl	QuadDec_M2_GetCounter
 214              	.LVL14:
 215 0018 0028     		cmp	r0, #0
 216 001a B8BF     		it	lt
 217 001c 4042     		rsblt	r0, r0, #0
 218 001e 4F28     		cmp	r0, #79
 219 0020 F8DD     		ble	.L14
 120:main.c        ****         ;;
 121:main.c        ****     }
 122:main.c        ****     isTurning=false;
 220              		.loc 1 122 0
ARM GAS  C:\Users\dulan\AppData\Local\Temp\ccAugHzz.s 			page 7


 221 0022 0022     		movs	r2, #0
 222 0024 014B     		ldr	r3, .L16
 223 0026 1A71     		strb	r2, [r3, #4]
 224 0028 08BD     		pop	{r3, pc}
 225              	.L17:
 226 002a 00BF     		.align	2
 227              	.L16:
 228 002c 00000000 		.word	.LANCHOR0
 229              		.cfi_endproc
 230              	.LFE67:
 231              		.size	turnRight, .-turnRight
 232              		.section	.text.goStraight,"ax",%progbits
 233              		.align	2
 234              		.global	goStraight
 235              		.thumb
 236              		.thumb_func
 237              		.type	goStraight, %function
 238              	goStraight:
 239              	.LFB68:
 123:main.c        **** 
 124:main.c        **** }
 125:main.c        ****     
 126:main.c        **** 
 127:main.c        **** 
 128:main.c        **** void goStraight(){
 240              		.loc 1 128 0
 241              		.cfi_startproc
 242              		@ args = 0, pretend = 0, frame = 0
 243              		@ frame_needed = 0, uses_anonymous_args = 0
 244 0000 08B5     		push	{r3, lr}
 245              		.cfi_def_cfa_offset 8
 246              		.cfi_offset 3, -8
 247              		.cfi_offset 14, -4
 129:main.c        ****         //comp0==>middle left comp1==>middle right
 130:main.c        ****     if(comp0_sum>0 && comp1_sum==0){//s_ML out of line
 248              		.loc 1 130 0
 249 0002 114B     		ldr	r3, .L23
 250 0004 1B78     		ldrb	r3, [r3]	@ zero_extendqisi2
 251 0006 4BB1     		cbz	r3, .L19
 252              		.loc 1 130 0 is_stmt 0 discriminator 1
 253 0008 104A     		ldr	r2, .L23+4
 254 000a 1278     		ldrb	r2, [r2]	@ zero_extendqisi2
 255 000c 32B9     		cbnz	r2, .L19
 131:main.c        ****         PWM_2_WriteCompare(PWM_2_ReadCompare() +1);
 256              		.loc 1 131 0 is_stmt 1
 257 000e FFF7FEFF 		bl	PWM_2_ReadCompare
 258              	.LVL15:
 259 0012 0130     		adds	r0, r0, #1
 260 0014 C0B2     		uxtb	r0, r0
 261 0016 FFF7FEFF 		bl	PWM_2_WriteCompare
 262              	.LVL16:
 263 001a 08BD     		pop	{r3, pc}
 264              	.L19:
 132:main.c        ****     }else if(comp0_sum==0 && comp1_sum>0){//s_MR out of line
 265              		.loc 1 132 0
 266 001c 4BB9     		cbnz	r3, .L21
 267              		.loc 1 132 0 is_stmt 0 discriminator 1
ARM GAS  C:\Users\dulan\AppData\Local\Temp\ccAugHzz.s 			page 8


 268 001e 0B4A     		ldr	r2, .L23+4
 269 0020 1278     		ldrb	r2, [r2]	@ zero_extendqisi2
 270 0022 32B1     		cbz	r2, .L21
 133:main.c        ****         PWM_1_WriteCompare(PWM_1_ReadCompare() +1);
 271              		.loc 1 133 0 is_stmt 1
 272 0024 FFF7FEFF 		bl	PWM_1_ReadCompare
 273              	.LVL17:
 274 0028 0130     		adds	r0, r0, #1
 275 002a C0B2     		uxtb	r0, r0
 276 002c FFF7FEFF 		bl	PWM_1_WriteCompare
 277              	.LVL18:
 278 0030 08BD     		pop	{r3, pc}
 279              	.L21:
 134:main.c        ****         
 135:main.c        ****     }else if(comp1_sum==0 && comp0_sum==0){
 280              		.loc 1 135 0
 281 0032 064A     		ldr	r2, .L23+4
 282 0034 1278     		ldrb	r2, [r2]	@ zero_extendqisi2
 283 0036 32B9     		cbnz	r2, .L18
 284              		.loc 1 135 0 is_stmt 0 discriminator 1
 285 0038 2BB9     		cbnz	r3, .L18
 136:main.c        ****         PWM_1_WriteCompare(67);
 286              		.loc 1 136 0 is_stmt 1
 287 003a 4320     		movs	r0, #67
 288 003c FFF7FEFF 		bl	PWM_1_WriteCompare
 289              	.LVL19:
 137:main.c        ****         PWM_2_WriteCompare(68);
 290              		.loc 1 137 0
 291 0040 4420     		movs	r0, #68
 292 0042 FFF7FEFF 		bl	PWM_2_WriteCompare
 293              	.LVL20:
 294              	.L18:
 295 0046 08BD     		pop	{r3, pc}
 296              	.L24:
 297              		.align	2
 298              	.L23:
 299 0048 00000000 		.word	comp0_sum
 300 004c 00000000 		.word	comp1_sum
 301              		.cfi_endproc
 302              	.LFE68:
 303              		.size	goStraight, .-goStraight
 304              		.section	.text.main,"ax",%progbits
 305              		.align	2
 306              		.global	main
 307              		.thumb
 308              		.thumb_func
 309              		.type	main, %function
 310              	main:
 311              	.LFB69:
 138:main.c        ****     }
 139:main.c        ****     
 140:main.c        **** //    //M1==>middle left M2==>middle right
 141:main.c        **** //    if(Sout_M1_Read()>0 && Sout_M2_Read()==0){//out of line to left
 142:main.c        **** //        PWM_2_WriteCompare(PWM_2_ReadCompare() +1);
 143:main.c        **** //    }else if(Sout_M1_Read()==0 &&  Sout_M2_Read()>0){//s_MR out of line
 144:main.c        **** //        PWM_1_WriteCompare(PWM_1_ReadCompare() +1);
 145:main.c        **** //    }else if(Sout_M1_Read()==0 && Sout_M2_Read()==0){
ARM GAS  C:\Users\dulan\AppData\Local\Temp\ccAugHzz.s 			page 9


 146:main.c        **** //        PWM_1_WriteCompare(60);
 147:main.c        **** //        PWM_2_WriteCompare(61);
 148:main.c        **** //    }   
 149:main.c        ****     
 150:main.c        **** }
 151:main.c        **** 
 152:main.c        **** 
 153:main.c        **** 
 154:main.c        **** 
 155:main.c        **** int main(void)
 156:main.c        **** {
 312              		.loc 1 156 0
 313              		.cfi_startproc
 314              		@ Volatile: function does not return.
 315              		@ args = 0, pretend = 0, frame = 0
 316              		@ frame_needed = 0, uses_anonymous_args = 0
 317 0000 08B5     		push	{r3, lr}
 318              		.cfi_def_cfa_offset 8
 319              		.cfi_offset 3, -8
 320              		.cfi_offset 14, -4
 157:main.c        ****     CyGlobalIntEnable; /* Enable global interrupts. */
 321              		.loc 1 157 0
 322              		.syntax unified
 323              	@ 157 "main.c" 1
 324 0002 62B6     		CPSIE   i
 325              	@ 0 "" 2
 158:main.c        **** 
 159:main.c        ****     /* Place your initialization/startup code here (e.g. MyInst_Start()) */
 160:main.c        ****     Timer_1_Start();
 326              		.loc 1 160 0
 327              		.thumb
 328              		.syntax unified
 329 0004 FFF7FEFF 		bl	Timer_1_Start
 330              	.LVL21:
 161:main.c        ****     
 162:main.c        ****     isr_1_StartEx(isr_1_handler);
 331              		.loc 1 162 0
 332 0008 2B48     		ldr	r0, .L40
 333 000a FFF7FEFF 		bl	isr_1_StartEx
 334              	.LVL22:
 163:main.c        ****     
 164:main.c        ****     //start comparators
 165:main.c        ****     Comp_0_Start();
 335              		.loc 1 165 0
 336 000e FFF7FEFF 		bl	Comp_0_Start
 337              	.LVL23:
 166:main.c        ****     Comp_1_Start();
 338              		.loc 1 166 0
 339 0012 FFF7FEFF 		bl	Comp_1_Start
 340              	.LVL24:
 167:main.c        ****     Comp_2_Start();
 341              		.loc 1 167 0
 342 0016 FFF7FEFF 		bl	Comp_2_Start
 343              	.LVL25:
 168:main.c        ****     Comp_3_Start();
 344              		.loc 1 168 0
 345 001a FFF7FEFF 		bl	Comp_3_Start
ARM GAS  C:\Users\dulan\AppData\Local\Temp\ccAugHzz.s 			page 10


 346              	.LVL26:
 169:main.c        ****     
 170:main.c        ****     /*Start PWM Clk*/
 171:main.c        ****     Clock_PWM_Start(); 
 347              		.loc 1 171 0
 348 001e FFF7FEFF 		bl	Clock_PWM_Start
 349              	.LVL27:
 172:main.c        ****     //Start PWM
 173:main.c        ****     PWM_1_Start();
 350              		.loc 1 173 0
 351 0022 FFF7FEFF 		bl	PWM_1_Start
 352              	.LVL28:
 174:main.c        ****     PWM_2_Start();
 353              		.loc 1 174 0
 354 0026 FFF7FEFF 		bl	PWM_2_Start
 355              	.LVL29:
 175:main.c        ****      
 176:main.c        ****     // write comparision int for MC33926 duty cycle must me larger than 10% and less than 90%
 177:main.c        **** 
 178:main.c        ****     
 179:main.c        ****     PWM_1_WritePeriod(PWM_PERIOD);
 356              		.loc 1 179 0
 357 002a 6420     		movs	r0, #100
 358 002c FFF7FEFF 		bl	PWM_1_WritePeriod
 359              	.LVL30:
 180:main.c        ****     PWM_2_WritePeriod(PWM_PERIOD);
 360              		.loc 1 180 0
 361 0030 6420     		movs	r0, #100
 362 0032 FFF7FEFF 		bl	PWM_2_WritePeriod
 363              	.LVL31:
 181:main.c        ****     
 182:main.c        ****     PWM_1_WriteCompare(50);
 364              		.loc 1 182 0
 365 0036 3220     		movs	r0, #50
 366 0038 FFF7FEFF 		bl	PWM_1_WriteCompare
 367              	.LVL32:
 183:main.c        ****     PWM_2_WriteCompare(50);
 368              		.loc 1 183 0
 369 003c 3220     		movs	r0, #50
 370 003e FFF7FEFF 		bl	PWM_2_WriteCompare
 371              	.LVL33:
 184:main.c        ****     QuadDec_M1_Start();
 372              		.loc 1 184 0
 373 0042 FFF7FEFF 		bl	QuadDec_M1_Start
 374              	.LVL34:
 185:main.c        ****     QuadDec_M2_Start();
 375              		.loc 1 185 0
 376 0046 FFF7FEFF 		bl	QuadDec_M2_Start
 377              	.LVL35:
 378              	.L27:
 186:main.c        ****     
 187:main.c        ****     
 188:main.c        **** //**********************************calculate path    
 189:main.c        **** //    int startX = 0, startY = 0;
 190:main.c        **** //    int targetX = 4, targetY = 4;
 191:main.c        **** //
 192:main.c        **** //    Node* endNode = AStar(startX, startY, targetX, targetY);
ARM GAS  C:\Users\dulan\AppData\Local\Temp\ccAugHzz.s 			page 11


 193:main.c        **** //
 194:main.c        **** //    // Print the path
 195:main.c        **** //    printPath(endNode);
 196:main.c        **** //**************************************************    
 197:main.c        ****     
 198:main.c        ****     
 199:main.c        ****     for(;;)
 200:main.c        ****     {
 201:main.c        ****           //comp0 and comp1 =0  => straight
 202:main.c        ****            //comp2=0 => left
 203:main.c        ****            //comp3=0 => right
 204:main.c        ****            /* Place your application code here. */
 205:main.c        ****         
 206:main.c        **** //        if(abs(QuadDec_M1_GetCounter()>873)){
 207:main.c        **** //            stop();
 208:main.c        **** //            break;
 209:main.c        **** //        }
 210:main.c        **** 
 211:main.c        **** 
 212:main.c        ****        
 213:main.c        ****         if(!isTurning ){//if not turning check the sensors
 379              		.loc 1 213 0
 380 004a 1C4B     		ldr	r3, .L40+4
 381 004c 1B79     		ldrb	r3, [r3, #4]	@ zero_extendqisi2
 382 004e FBB9     		cbnz	r3, .L28
 214:main.c        ****             if(Sout_M1_Read()==0 || Sout_M2_Read()==0){
 383              		.loc 1 214 0
 384 0050 FFF7FEFF 		bl	Sout_M1_Read
 385              	.LVL36:
 386 0054 10B1     		cbz	r0, .L29
 387              		.loc 1 214 0 is_stmt 0 discriminator 1
 388 0056 FFF7FEFF 		bl	Sout_M2_Read
 389              	.LVL37:
 390 005a 18B9     		cbnz	r0, .L30
 391              	.L29:
 215:main.c        ****                     current_state = GO_STRAIGHT;
 392              		.loc 1 215 0 is_stmt 1
 393 005c 0022     		movs	r2, #0
 394 005e 184B     		ldr	r3, .L40+8
 395 0060 1A70     		strb	r2, [r3]
 396 0062 15E0     		b	.L28
 397              	.L30:
 216:main.c        ****             }else if(Sout_L_Read()==0) {//left on
 398              		.loc 1 216 0
 399 0064 FFF7FEFF 		bl	Sout_L_Read
 400              	.LVL38:
 401 0068 28B9     		cbnz	r0, .L31
 217:main.c        ****                     current_state = TURN_LEFT;
 402              		.loc 1 217 0
 403 006a 0123     		movs	r3, #1
 404 006c 144A     		ldr	r2, .L40+8
 405 006e 1370     		strb	r3, [r2]
 218:main.c        ****                     isTurning=true;
 406              		.loc 1 218 0
 407 0070 124A     		ldr	r2, .L40+4
 408 0072 1371     		strb	r3, [r2, #4]
 409 0074 0CE0     		b	.L28
ARM GAS  C:\Users\dulan\AppData\Local\Temp\ccAugHzz.s 			page 12


 410              	.L31:
 219:main.c        ****             }else if(Sout_R_Read()==0){//right on
 411              		.loc 1 219 0
 412 0076 FFF7FEFF 		bl	Sout_R_Read
 413              	.LVL39:
 414 007a 30B9     		cbnz	r0, .L32
 220:main.c        ****                     current_state = TURN_RIGHT;
 415              		.loc 1 220 0
 416 007c 0222     		movs	r2, #2
 417 007e 104B     		ldr	r3, .L40+8
 418 0080 1A70     		strb	r2, [r3]
 221:main.c        ****                     isTurning=true;
 419              		.loc 1 221 0
 420 0082 0122     		movs	r2, #1
 421 0084 0D4B     		ldr	r3, .L40+4
 422 0086 1A71     		strb	r2, [r3, #4]
 423 0088 02E0     		b	.L28
 424              	.L32:
 222:main.c        ****             }else {
 223:main.c        ****                     current_state = STOP;
 425              		.loc 1 223 0
 426 008a 0322     		movs	r2, #3
 427 008c 0C4B     		ldr	r3, .L40+8
 428 008e 1A70     		strb	r2, [r3]
 429              	.L28:
 224:main.c        ****             }
 225:main.c        ****         }
 226:main.c        ****         
 227:main.c        ****         
 228:main.c        **** 
 229:main.c        ****         
 230:main.c        ****         switch (current_state) {
 430              		.loc 1 230 0
 431 0090 0B4B     		ldr	r3, .L40+8
 432 0092 1B78     		ldrb	r3, [r3]	@ zero_extendqisi2
 433 0094 032B     		cmp	r3, #3
 434 0096 D8D8     		bhi	.L27
 435 0098 DFE803F0 		tbb	[pc, r3]
 436              	.L34:
 437 009c 02       		.byte	(.L33-.L34)/2
 438 009d 05       		.byte	(.L35-.L34)/2
 439 009e 08       		.byte	(.L36-.L34)/2
 440 009f 0B       		.byte	(.L37-.L34)/2
 441              		.p2align 1
 442              	.L33:
 231:main.c        ****             case GO_STRAIGHT:
 232:main.c        ****                 goStraight();
 443              		.loc 1 232 0
 444 00a0 FFF7FEFF 		bl	goStraight
 445              	.LVL40:
 233:main.c        ****                 break;
 446              		.loc 1 233 0
 447 00a4 D1E7     		b	.L27
 448              	.L35:
 234:main.c        ****             case TURN_LEFT:
 235:main.c        ****                 turnLeft();
 449              		.loc 1 235 0
ARM GAS  C:\Users\dulan\AppData\Local\Temp\ccAugHzz.s 			page 13


 450 00a6 FFF7FEFF 		bl	turnLeft
 451              	.LVL41:
 236:main.c        ****                 break;    
 452              		.loc 1 236 0
 453 00aa CEE7     		b	.L27
 454              	.L36:
 237:main.c        ****             case TURN_RIGHT:
 238:main.c        ****                 turnRight();
 455              		.loc 1 238 0
 456 00ac FFF7FEFF 		bl	turnRight
 457              	.LVL42:
 239:main.c        ****                 break;  
 458              		.loc 1 239 0
 459 00b0 CBE7     		b	.L27
 460              	.L37:
 240:main.c        ****             case STOP:
 241:main.c        ****                 stop();
 461              		.loc 1 241 0
 462 00b2 FFF7FEFF 		bl	stop
 463              	.LVL43:
 242:main.c        ****                 break;
 464              		.loc 1 242 0
 465 00b6 C8E7     		b	.L27
 466              	.L41:
 467              		.align	2
 468              	.L40:
 469 00b8 00000000 		.word	isr_1_handler
 470 00bc 00000000 		.word	.LANCHOR0
 471 00c0 00000000 		.word	.LANCHOR1
 472              		.cfi_endproc
 473              	.LFE69:
 474              		.size	main, .-main
 475              		.comm	comp3_sum,1,1
 476              		.comm	comp2_sum,1,1
 477              		.comm	comp1_sum,1,1
 478              		.comm	comp0_sum,1,1
 479              		.global	isTurning
 480              		.global	count
 481              		.global	current_state
 482              		.global	counter
 483              		.global	encoder_value_sum_M2
 484              		.global	encoder_value_sum_M1
 485              		.global	speed_M2
 486              		.global	speed_M1
 487              		.global	target_diatance
 488              		.global	current_distance_M2
 489              		.global	current_distance_M1
 490              		.global	distance_M2
 491              		.global	distance_M1
 492              		.global	timeInterval_s
 493              		.global	wheelCircumference_cm
 494              		.global	CPR
 495              		.global	encoderCounts_M2
 496              		.global	encoderCounts_M1
 497              		.data
 498              		.align	3
 499              		.set	.LANCHOR1,. + 0
ARM GAS  C:\Users\dulan\AppData\Local\Temp\ccAugHzz.s 			page 14


 500              		.type	current_state, %object
 501              		.size	current_state, 1
 502              	current_state:
 503 0000 03       		.byte	3
 504              		.type	counter, %object
 505              		.size	counter, 1
 506              	counter:
 507 0001 01       		.byte	1
 508 0002 00000000 		.space	6
 508      0000
 509              		.type	timeInterval_s, %object
 510              		.size	timeInterval_s, 8
 511              	timeInterval_s:
 512 0008 0C022B87 		.word	-2027224564
 513 000c 16D92540 		.word	1076222230
 514              		.type	wheelCircumference_cm, %object
 515              		.size	wheelCircumference_cm, 4
 516              	wheelCircumference_cm:
 517 0010 7201A241 		.word	1101136242
 518              		.type	CPR, %object
 519              		.size	CPR, 4
 520              	CPR:
 521 0014 E4000000 		.word	228
 522              		.bss
 523              		.align	2
 524              		.set	.LANCHOR0,. + 0
 525              		.type	count, %object
 526              		.size	count, 4
 527              	count:
 528 0000 00000000 		.space	4
 529              		.type	isTurning, %object
 530              		.size	isTurning, 1
 531              	isTurning:
 532 0004 00       		.space	1
 533 0005 000000   		.space	3
 534              		.type	encoder_value_sum_M2, %object
 535              		.size	encoder_value_sum_M2, 4
 536              	encoder_value_sum_M2:
 537 0008 00000000 		.space	4
 538              		.type	encoder_value_sum_M1, %object
 539              		.size	encoder_value_sum_M1, 4
 540              	encoder_value_sum_M1:
 541 000c 00000000 		.space	4
 542              		.type	speed_M2, %object
 543              		.size	speed_M2, 4
 544              	speed_M2:
 545 0010 00000000 		.space	4
 546              		.type	speed_M1, %object
 547              		.size	speed_M1, 4
 548              	speed_M1:
 549 0014 00000000 		.space	4
 550              		.type	target_diatance, %object
 551              		.size	target_diatance, 4
 552              	target_diatance:
 553 0018 00000000 		.space	4
 554              		.type	current_distance_M2, %object
 555              		.size	current_distance_M2, 4
ARM GAS  C:\Users\dulan\AppData\Local\Temp\ccAugHzz.s 			page 15


 556              	current_distance_M2:
 557 001c 00000000 		.space	4
 558              		.type	current_distance_M1, %object
 559              		.size	current_distance_M1, 4
 560              	current_distance_M1:
 561 0020 00000000 		.space	4
 562              		.type	distance_M2, %object
 563              		.size	distance_M2, 4
 564              	distance_M2:
 565 0024 00000000 		.space	4
 566              		.type	distance_M1, %object
 567              		.size	distance_M1, 4
 568              	distance_M1:
 569 0028 00000000 		.space	4
 570              		.type	encoderCounts_M2, %object
 571              		.size	encoderCounts_M2, 4
 572              	encoderCounts_M2:
 573 002c 00000000 		.space	4
 574              		.type	encoderCounts_M1, %object
 575              		.size	encoderCounts_M1, 4
 576              	encoderCounts_M1:
 577 0030 00000000 		.space	4
 578              		.text
 579              	.Letext0:
 580              		.file 2 "c:\\program files (x86)\\cypress\\psoc creator\\4.4\\psoc creator\\import\\gnu\\arm\\5.4.
 581              		.file 3 "c:\\program files (x86)\\cypress\\psoc creator\\4.4\\psoc creator\\import\\gnu\\arm\\5.4.
 582              		.file 4 "Generated_Source\\PSoC5/cytypes.h"
 583              		.file 5 "Generated_Source\\PSoC5/core_cm3.h"
 584              		.file 6 "Generated_Source\\PSoC5/Comp_0.h"
 585              		.file 7 "Generated_Source\\PSoC5/Comp_1.h"
 586              		.file 8 "Generated_Source\\PSoC5/Comp_2.h"
 587              		.file 9 "Generated_Source\\PSoC5/Comp_3.h"
 588              		.file 10 "Generated_Source\\PSoC5/Timer_1.h"
 589              		.file 11 "Generated_Source\\PSoC5/PWM_1.h"
 590              		.file 12 "Generated_Source\\PSoC5/PWM_2.h"
 591              		.file 13 "Generated_Source\\PSoC5/QuadDec_M1.h"
 592              		.file 14 "Generated_Source\\PSoC5/QuadDec_M2.h"
 593              		.file 15 "Generated_Source\\PSoC5/isr_1.h"
 594              		.file 16 "Generated_Source\\PSoC5/Clock_PWM.h"
 595              		.file 17 "Generated_Source\\PSoC5/Sout_M1.h"
 596              		.file 18 "Generated_Source\\PSoC5/Sout_M2.h"
 597              		.file 19 "Generated_Source\\PSoC5/Sout_L.h"
 598              		.file 20 "Generated_Source\\PSoC5/Sout_R.h"