ARM GAS  C:\Users\dulan\AppData\Local\Temp\cceev9tE.s 			page 1


   1              		.syntax unified
   2              		.cpu cortex-m3
   3              		.fpu softvfp
   4              		.eabi_attribute 20, 1
   5              		.eabi_attribute 21, 1
   6              		.eabi_attribute 23, 3
   7              		.eabi_attribute 24, 1
   8              		.eabi_attribute 25, 1
   9              		.eabi_attribute 26, 1
  10              		.eabi_attribute 30, 1
  11              		.eabi_attribute 34, 1
  12              		.eabi_attribute 18, 4
  13              		.thumb
  14              		.syntax unified
  15              		.file	"main.c"
  16              		.text
  17              	.Ltext0:
  18              		.cfi_sections	.debug_frame
  19              		.global	__aeabi_i2f
  20              		.global	__aeabi_fmul
  21              		.section	.text.isr_3_handler,"ax",%progbits
  22              		.align	2
  23              		.global	isr_3_handler
  24              		.thumb
  25              		.thumb_func
  26              		.type	isr_3_handler, %function
  27              	isr_3_handler:
  28              	.LFB64:
  29              		.file 1 "main.c"
   1:main.c        **** /* ========================================
   2:main.c        ****  *
   3:main.c        ****  * Copyright YOUR COMPANY, THE YEAR
   4:main.c        ****  * All Rights Reserved
   5:main.c        ****  * UNPUBLISHED, LICENSED SOFTWARE.
   6:main.c        ****  *
   7:main.c        ****  * CONFIDENTIAL AND PROPRIETARY INFORMATION
   8:main.c        ****  * WHICH IS THE PROPERTY OF your company.
   9:main.c        ****  *
  10:main.c        ****  * ========================================
  11:main.c        **** */
  12:main.c        **** /* ========================================
  13:main.c        ****  * Fully working code: 
  14:main.c        ****  * PWM      : 
  15:main.c        ****  * Encoder  : 
  16:main.c        ****  * ADC      :
  17:main.c        ****  * USB      : port displays speed and position.
  18:main.c        ****  * CMD: "PW xx"
  19:main.c        ****  * Copyright Univ of Auckland, 2016
  20:main.c        ****  * All Rights Reserved
  21:main.c        ****  * UNPUBLISHED, LICENSED SOFTWARE.
  22:main.c        ****  *
  23:main.c        ****  * CONFIDENTIAL AND PROPRIETARY INFORMATION
  24:main.c        ****  * WHICH IS THE PROPERTY OF Univ of Auckland.
  25:main.c        ****  *
  26:main.c        ****  * ========================================
  27:main.c        **** */
  28:main.c        **** #include <stdio.h>
ARM GAS  C:\Users\dulan\AppData\Local\Temp\cceev9tE.s 			page 2


  29:main.c        **** #include <string.h>
  30:main.c        **** #include <stdlib.h>
  31:main.c        **** #include <project.h>
  32:main.c        **** #include <stdbool.h>
  33:main.c        **** #include <math.h>
  34:main.c        **** #include "project.h"
  35:main.c        **** 
  36:main.c        **** //distance calculation paras
  37:main.c        **** int32 encoderCounts_M1 = 0;  
  38:main.c        **** int32 encoderCounts_M2 = 0;  
  39:main.c        **** int32 CPR = 228;  // Adjusted for 4x resolution(228/4)
  40:main.c        **** float wheelCircumference_cm = (M_PI*64.46)/10;// wheel circumference wheelDiameter_mm = 64.46)
  41:main.c        **** double timeInterval_s = 10.924;  // Effective time interval( (timer period )2.731*4)
  42:main.c        **** float32  distance_M1 = 0;
  43:main.c        **** float32  distance_M2 = 0;
  44:main.c        **** float32  current_distance_M1 = 0;
  45:main.c        **** float32  current_distance_M2 = 0;
  46:main.c        **** float32 target_diatance = 0;//cm
  47:main.c        **** float32 speed_M1 = 0;
  48:main.c        **** float32 speed_M2 = 0;
  49:main.c        **** int32 encoder_value_sum_M1 = 0;
  50:main.c        **** int32 encoder_value_sum_M2 = 0;
  51:main.c        **** uint8 counter = 1;
  52:main.c        **** 
  53:main.c        **** 
  54:main.c        **** 
  55:main.c        **** 
  56:main.c        **** 
  57:main.c        **** uint32 count = 0;
  58:main.c        **** uint32 turn_counter = 0;
  59:main.c        **** bool left_on=false;
  60:main.c        **** bool right_on;
  61:main.c        **** bool middle_on;
  62:main.c        **** bool turn_complete;
  63:main.c        **** 
  64:main.c        **** uint8 comp0_sum;
  65:main.c        **** uint8 comp1_sum;
  66:main.c        **** uint8 comp2_sum;
  67:main.c        **** uint8 comp3_sum;
  68:main.c        **** 
  69:main.c        **** uint8 PWM_R=99;
  70:main.c        **** uint8 PWM_L=100;
  71:main.c        **** 
  72:main.c        **** 
  73:main.c        **** CY_ISR(isr_3_handler) {
  30              		.loc 1 73 0
  31              		.cfi_startproc
  32              		@ args = 0, pretend = 0, frame = 0
  33              		@ frame_needed = 0, uses_anonymous_args = 0
  34 0000 F8B5     		push	{r3, r4, r5, r6, r7, lr}
  35              		.cfi_def_cfa_offset 24
  36              		.cfi_offset 3, -24
  37              		.cfi_offset 4, -20
  38              		.cfi_offset 5, -16
  39              		.cfi_offset 6, -12
  40              		.cfi_offset 7, -8
  41              		.cfi_offset 14, -4
ARM GAS  C:\Users\dulan\AppData\Local\Temp\cceev9tE.s 			page 3


  74:main.c        ****     if (counter < 10){
  42              		.loc 1 74 0
  43 0002 1D4B     		ldr	r3, .L5
  44 0004 1B78     		ldrb	r3, [r3]	@ zero_extendqisi2
  45 0006 092B     		cmp	r3, #9
  46 0008 03D8     		bhi	.L2
  75:main.c        ****         counter++;
  47              		.loc 1 75 0
  48 000a 0133     		adds	r3, r3, #1
  49 000c 1A4A     		ldr	r2, .L5
  50 000e 1370     		strb	r3, [r2]
  51 0010 2EE0     		b	.L3
  52              	.L2:
  76:main.c        ****     }else{
  77:main.c        ****         counter = 1;
  53              		.loc 1 77 0
  54 0012 194E     		ldr	r6, .L5
  55 0014 0123     		movs	r3, #1
  56 0016 3370     		strb	r3, [r6]
  78:main.c        ****         // Encoder counts (negative due to counterclockwise rotation)
  79:main.c        ****         encoderCounts_M1 = abs(QuadDec_M1_GetCounter());//QuadDec_M1_GetCounter();
  57              		.loc 1 79 0
  58 0018 FFF7FEFF 		bl	QuadDec_M1_GetCounter
  59              	.LVL0:
  60 001c 0028     		cmp	r0, #0
  61 001e B8BF     		it	lt
  62 0020 4042     		rsblt	r0, r0, #0
  63 0022 164C     		ldr	r4, .L5+4
  64 0024 2060     		str	r0, [r4]
  80:main.c        ****         encoderCounts_M2 = abs(QuadDec_M2_GetCounter());
  65              		.loc 1 80 0
  66 0026 FFF7FEFF 		bl	QuadDec_M2_GetCounter
  67              	.LVL1:
  68 002a 0028     		cmp	r0, #0
  69 002c B8BF     		it	lt
  70 002e 4042     		rsblt	r0, r0, #0
  71 0030 6060     		str	r0, [r4, #4]
  81:main.c        ****         
  82:main.c        ****         // sum of encodercounts
  83:main.c        ****         encoder_value_sum_M1 += encoderCounts_M1;
  72              		.loc 1 83 0
  73 0032 A268     		ldr	r2, [r4, #8]
  74 0034 2368     		ldr	r3, [r4]
  75 0036 1A44     		add	r2, r2, r3
  76 0038 A260     		str	r2, [r4, #8]
  84:main.c        ****         encoder_value_sum_M2 += encoderCounts_M2;
  77              		.loc 1 84 0
  78 003a E368     		ldr	r3, [r4, #12]
  79 003c C518     		adds	r5, r0, r3
  80 003e E560     		str	r5, [r4, #12]
  85:main.c        ****         
  86:main.c        ****         // distance calculations 
  87:main.c        ****         distance_M1 = (encoder_value_sum_M1/CPR) * wheelCircumference_cm;
  81              		.loc 1 87 0
  82 0040 7768     		ldr	r7, [r6, #4]
  83 0042 B668     		ldr	r6, [r6, #8]	@ float
  84 0044 92FBF7F0 		sdiv	r0, r2, r7
ARM GAS  C:\Users\dulan\AppData\Local\Temp\cceev9tE.s 			page 4


  85 0048 FFF7FEFF 		bl	__aeabi_i2f
  86              	.LVL2:
  87 004c 3146     		mov	r1, r6
  88 004e FFF7FEFF 		bl	__aeabi_fmul
  89              	.LVL3:
  90 0052 2061     		str	r0, [r4, #16]	@ float
  88:main.c        ****         distance_M2 = (encoder_value_sum_M2/CPR) * wheelCircumference_cm;
  91              		.loc 1 88 0
  92 0054 95FBF7F0 		sdiv	r0, r5, r7
  93 0058 FFF7FEFF 		bl	__aeabi_i2f
  94              	.LVL4:
  95 005c 3146     		mov	r1, r6
  96 005e FFF7FEFF 		bl	__aeabi_fmul
  97              	.LVL5:
  98 0062 6061     		str	r0, [r4, #20]	@ float
  89:main.c        **** 
  90:main.c        ****         //reset the encoder counters 
  91:main.c        ****         QuadDec_M1_SetCounter(0);
  99              		.loc 1 91 0
 100 0064 0020     		movs	r0, #0
 101 0066 FFF7FEFF 		bl	QuadDec_M1_SetCounter
 102              	.LVL6:
  92:main.c        ****         QuadDec_M2_SetCounter(0);     
 103              		.loc 1 92 0
 104 006a 0020     		movs	r0, #0
 105 006c FFF7FEFF 		bl	QuadDec_M2_SetCounter
 106              	.LVL7:
 107              	.L3:
  93:main.c        ****     }
  94:main.c        ****         Timer_1_ReadStatusRegister();
 108              		.loc 1 94 0
 109 0070 FFF7FEFF 		bl	Timer_1_ReadStatusRegister
 110              	.LVL8:
 111 0074 F8BD     		pop	{r3, r4, r5, r6, r7, pc}
 112              	.L6:
 113 0076 00BF     		.align	2
 114              	.L5:
 115 0078 00000000 		.word	.LANCHOR0
 116 007c 00000000 		.word	.LANCHOR1
 117              		.cfi_endproc
 118              	.LFE64:
 119              		.size	isr_3_handler, .-isr_3_handler
 120              		.section	.text.isr_2_handler,"ax",%progbits
 121              		.align	2
 122              		.global	isr_2_handler
 123              		.thumb
 124              		.thumb_func
 125              		.type	isr_2_handler, %function
 126              	isr_2_handler:
 127              	.LFB65:
  95:main.c        **** }
  96:main.c        **** 
  97:main.c        **** 
  98:main.c        **** CY_ISR(isr_2_handler) {
 128              		.loc 1 98 0
 129              		.cfi_startproc
 130              		@ args = 0, pretend = 0, frame = 0
ARM GAS  C:\Users\dulan\AppData\Local\Temp\cceev9tE.s 			page 5


 131              		@ frame_needed = 0, uses_anonymous_args = 0
 132 0000 08B5     		push	{r3, lr}
 133              		.cfi_def_cfa_offset 8
 134              		.cfi_offset 3, -8
 135              		.cfi_offset 14, -4
  99:main.c        ****     //every 1ms 
 100:main.c        ****     if(left_on==true){
 136              		.loc 1 100 0
 137 0002 104B     		ldr	r3, .L11
 138 0004 1B7E     		ldrb	r3, [r3, #24]	@ zero_extendqisi2
 139 0006 E3B1     		cbz	r3, .L7
 101:main.c        ****         if(turn_counter==0){
 140              		.loc 1 101 0
 141 0008 0E4B     		ldr	r3, .L11
 142 000a DB69     		ldr	r3, [r3, #28]
 143 000c 3BB9     		cbnz	r3, .L9
 102:main.c        ****             PWM_L=50;
 144              		.loc 1 102 0
 145 000e 0E4B     		ldr	r3, .L11+4
 146 0010 3222     		movs	r2, #50
 147 0012 1A73     		strb	r2, [r3, #12]
 103:main.c        ****             PWM_R=80; 
 148              		.loc 1 103 0
 149 0014 5022     		movs	r2, #80
 150 0016 5A73     		strb	r2, [r3, #13]
 104:main.c        ****             LED_1_Write(1);
 151              		.loc 1 104 0
 152 0018 0120     		movs	r0, #1
 153 001a FFF7FEFF 		bl	LED_1_Write
 154              	.LVL9:
 155              	.L9:
 105:main.c        ****         }
 106:main.c        ****         turn_counter++;
 156              		.loc 1 106 0
 157 001e 094A     		ldr	r2, .L11
 158 0020 D369     		ldr	r3, [r2, #28]
 159 0022 0133     		adds	r3, r3, #1
 160 0024 D361     		str	r3, [r2, #28]
 107:main.c        ****         if(turn_counter==650){
 161              		.loc 1 107 0
 162 0026 40F28A22 		movw	r2, #650
 163 002a 9342     		cmp	r3, r2
 164 002c 09D1     		bne	.L7
 108:main.c        ****             left_on=false;
 165              		.loc 1 108 0
 166 002e 054B     		ldr	r3, .L11
 167 0030 0020     		movs	r0, #0
 168 0032 1876     		strb	r0, [r3, #24]
 109:main.c        ****             PWM_L=50;
 169              		.loc 1 109 0
 170 0034 044A     		ldr	r2, .L11+4
 171 0036 3221     		movs	r1, #50
 172 0038 1173     		strb	r1, [r2, #12]
 110:main.c        ****             PWM_R=50;
 173              		.loc 1 110 0
 174 003a 5173     		strb	r1, [r2, #13]
 111:main.c        ****             turn_counter=0;
ARM GAS  C:\Users\dulan\AppData\Local\Temp\cceev9tE.s 			page 6


 175              		.loc 1 111 0
 176 003c D861     		str	r0, [r3, #28]
 112:main.c        ****             LED_1_Write(0);
 177              		.loc 1 112 0
 178 003e FFF7FEFF 		bl	LED_1_Write
 179              	.LVL10:
 180              	.L7:
 181 0042 08BD     		pop	{r3, pc}
 182              	.L12:
 183              		.align	2
 184              	.L11:
 185 0044 00000000 		.word	.LANCHOR1
 186 0048 00000000 		.word	.LANCHOR0
 187              		.cfi_endproc
 188              	.LFE65:
 189              		.size	isr_2_handler, .-isr_2_handler
 190              		.section	.text.isr_1_handler,"ax",%progbits
 191              		.align	2
 192              		.global	isr_1_handler
 193              		.thumb
 194              		.thumb_func
 195              		.type	isr_1_handler, %function
 196              	isr_1_handler:
 197              	.LFB66:
 113:main.c        ****         }
 114:main.c        ****         
 115:main.c        ****     }
 116:main.c        **** }
 117:main.c        **** 
 118:main.c        **** 
 119:main.c        **** CY_ISR(isr_1_handler) {
 198              		.loc 1 119 0
 199              		.cfi_startproc
 200              		@ args = 0, pretend = 0, frame = 0
 201              		@ frame_needed = 0, uses_anonymous_args = 0
 202 0000 08B5     		push	{r3, lr}
 203              		.cfi_def_cfa_offset 8
 204              		.cfi_offset 3, -8
 205              		.cfi_offset 14, -4
 120:main.c        ****     //every 1ms 
 121:main.c        ****     
 122:main.c        ****     //sum up comp values every 1ms
 123:main.c        ****     comp0_sum+=Comp_0_GetCompare();
 206              		.loc 1 123 0
 207 0002 FFF7FEFF 		bl	Comp_0_GetCompare
 208              	.LVL11:
 209 0006 164A     		ldr	r2, .L16
 210 0008 1378     		ldrb	r3, [r2]	@ zero_extendqisi2
 211 000a 1844     		add	r0, r0, r3
 212 000c 1070     		strb	r0, [r2]
 124:main.c        ****     comp1_sum+=Comp_1_GetCompare();
 213              		.loc 1 124 0
 214 000e FFF7FEFF 		bl	Comp_1_GetCompare
 215              	.LVL12:
 216 0012 144A     		ldr	r2, .L16+4
 217 0014 1378     		ldrb	r3, [r2]	@ zero_extendqisi2
 218 0016 1844     		add	r0, r0, r3
ARM GAS  C:\Users\dulan\AppData\Local\Temp\cceev9tE.s 			page 7


 219 0018 1070     		strb	r0, [r2]
 125:main.c        ****     comp2_sum+=Comp_2_GetCompare();
 220              		.loc 1 125 0
 221 001a FFF7FEFF 		bl	Comp_2_GetCompare
 222              	.LVL13:
 223 001e 124A     		ldr	r2, .L16+8
 224 0020 1378     		ldrb	r3, [r2]	@ zero_extendqisi2
 225 0022 1844     		add	r0, r0, r3
 226 0024 1070     		strb	r0, [r2]
 126:main.c        ****     comp3_sum+=Comp_3_GetCompare();
 227              		.loc 1 126 0
 228 0026 FFF7FEFF 		bl	Comp_3_GetCompare
 229              	.LVL14:
 230 002a 104A     		ldr	r2, .L16+12
 231 002c 1378     		ldrb	r3, [r2]	@ zero_extendqisi2
 232 002e 1844     		add	r0, r0, r3
 233 0030 1070     		strb	r0, [r2]
 127:main.c        ****     
 128:main.c        ****     
 129:main.c        ****     if(count==8){
 234              		.loc 1 129 0
 235 0032 0F4B     		ldr	r3, .L16+16
 236 0034 1B6A     		ldr	r3, [r3, #32]
 237 0036 082B     		cmp	r3, #8
 238 0038 0AD1     		bne	.L14
 130:main.c        ****         //reset to check again every 8ms
 131:main.c        ****         comp0_sum=0;
 239              		.loc 1 131 0
 240 003a 0023     		movs	r3, #0
 241 003c 084A     		ldr	r2, .L16
 242 003e 1370     		strb	r3, [r2]
 132:main.c        ****         comp1_sum=0;
 243              		.loc 1 132 0
 244 0040 084A     		ldr	r2, .L16+4
 245 0042 1370     		strb	r3, [r2]
 133:main.c        ****         comp2_sum=0;
 246              		.loc 1 133 0
 247 0044 084A     		ldr	r2, .L16+8
 248 0046 1370     		strb	r3, [r2]
 134:main.c        ****         comp3_sum=0;
 249              		.loc 1 134 0
 250 0048 084A     		ldr	r2, .L16+12
 251 004a 1370     		strb	r3, [r2]
 135:main.c        ****         count=0;
 252              		.loc 1 135 0
 253 004c 084A     		ldr	r2, .L16+16
 254 004e 1362     		str	r3, [r2, #32]
 255              	.L14:
 136:main.c        ****     }
 137:main.c        ****    
 138:main.c        **** 
 139:main.c        ****     count++;
 256              		.loc 1 139 0
 257 0050 074A     		ldr	r2, .L16+16
 258 0052 136A     		ldr	r3, [r2, #32]
 259 0054 0133     		adds	r3, r3, #1
 260 0056 1362     		str	r3, [r2, #32]
ARM GAS  C:\Users\dulan\AppData\Local\Temp\cceev9tE.s 			page 8


 140:main.c        ****     Timer_1_ReadStatusRegister();
 261              		.loc 1 140 0
 262 0058 FFF7FEFF 		bl	Timer_1_ReadStatusRegister
 263              	.LVL15:
 264 005c 08BD     		pop	{r3, pc}
 265              	.L17:
 266 005e 00BF     		.align	2
 267              	.L16:
 268 0060 00000000 		.word	comp0_sum
 269 0064 00000000 		.word	comp1_sum
 270 0068 00000000 		.word	comp2_sum
 271 006c 00000000 		.word	comp3_sum
 272 0070 00000000 		.word	.LANCHOR1
 273              		.cfi_endproc
 274              	.LFE66:
 275              		.size	isr_1_handler, .-isr_1_handler
 276              		.section	.text.stop,"ax",%progbits
 277              		.align	2
 278              		.global	stop
 279              		.thumb
 280              		.thumb_func
 281              		.type	stop, %function
 282              	stop:
 283              	.LFB67:
 141:main.c        **** }
 142:main.c        **** 
 143:main.c        **** void stop(){
 284              		.loc 1 143 0
 285              		.cfi_startproc
 286              		@ args = 0, pretend = 0, frame = 0
 287              		@ frame_needed = 0, uses_anonymous_args = 0
 288              		@ link register save eliminated.
 144:main.c        ****     PWM_R=50;
 289              		.loc 1 144 0
 290 0000 024B     		ldr	r3, .L19
 291 0002 3222     		movs	r2, #50
 292 0004 5A73     		strb	r2, [r3, #13]
 145:main.c        ****     PWM_L=50;
 293              		.loc 1 145 0
 294 0006 1A73     		strb	r2, [r3, #12]
 295 0008 7047     		bx	lr
 296              	.L20:
 297 000a 00BF     		.align	2
 298              	.L19:
 299 000c 00000000 		.word	.LANCHOR0
 300              		.cfi_endproc
 301              	.LFE67:
 302              		.size	stop, .-stop
 303              		.section	.text.turnLeft,"ax",%progbits
 304              		.align	2
 305              		.global	turnLeft
 306              		.thumb
 307              		.thumb_func
 308              		.type	turnLeft, %function
 309              	turnLeft:
 310              	.LFB68:
 146:main.c        **** }
ARM GAS  C:\Users\dulan\AppData\Local\Temp\cceev9tE.s 			page 9


 147:main.c        **** void turnLeft(){
 311              		.loc 1 147 0
 312              		.cfi_startproc
 313              		@ args = 0, pretend = 0, frame = 0
 314              		@ frame_needed = 0, uses_anonymous_args = 0
 315              		@ link register save eliminated.
 148:main.c        ****     
 149:main.c        ****     if(turn_complete){
 316              		.loc 1 149 0
 317 0000 034B     		ldr	r3, .L23
 318 0002 1B78     		ldrb	r3, [r3]	@ zero_extendqisi2
 319 0004 13B1     		cbz	r3, .L21
 150:main.c        ****        left_on=false;
 320              		.loc 1 150 0
 321 0006 0022     		movs	r2, #0
 322 0008 024B     		ldr	r3, .L23+4
 323 000a 1A76     		strb	r2, [r3, #24]
 324              	.L21:
 325 000c 7047     		bx	lr
 326              	.L24:
 327 000e 00BF     		.align	2
 328              	.L23:
 329 0010 00000000 		.word	turn_complete
 330 0014 00000000 		.word	.LANCHOR1
 331              		.cfi_endproc
 332              	.LFE68:
 333              		.size	turnLeft, .-turnLeft
 334              		.section	.text.goStraight,"ax",%progbits
 335              		.align	2
 336              		.global	goStraight
 337              		.thumb
 338              		.thumb_func
 339              		.type	goStraight, %function
 340              	goStraight:
 341              	.LFB69:
 151:main.c        ****     }
 152:main.c        ****     
 153:main.c        **** }
 154:main.c        **** 
 155:main.c        **** void goStraight(){
 342              		.loc 1 155 0
 343              		.cfi_startproc
 344              		@ args = 0, pretend = 0, frame = 0
 345              		@ frame_needed = 0, uses_anonymous_args = 0
 346              		@ link register save eliminated.
 156:main.c        ****     //comp0==>middle left comp1==>middle right
 157:main.c        ****     if(comp0_sum>0 && comp1_sum==0){//s_ML out of line
 347              		.loc 1 157 0
 348 0000 0E4B     		ldr	r3, .L29
 349 0002 1B78     		ldrb	r3, [r3]	@ zero_extendqisi2
 350 0004 3BB1     		cbz	r3, .L26
 351              		.loc 1 157 0 is_stmt 0 discriminator 1
 352 0006 0E4A     		ldr	r2, .L29+4
 353 0008 1278     		ldrb	r2, [r2]	@ zero_extendqisi2
 354 000a 22B9     		cbnz	r2, .L26
 158:main.c        ****         PWM_L=PWM_L+1;
 355              		.loc 1 158 0 is_stmt 1
ARM GAS  C:\Users\dulan\AppData\Local\Temp\cceev9tE.s 			page 10


 356 000c 0D4A     		ldr	r2, .L29+8
 357 000e 137B     		ldrb	r3, [r2, #12]	@ zero_extendqisi2
 358 0010 0133     		adds	r3, r3, #1
 359 0012 1373     		strb	r3, [r2, #12]
 360 0014 7047     		bx	lr
 361              	.L26:
 159:main.c        ****     }else if(comp0_sum==0 && comp1_sum>0){//s_MR out of line
 362              		.loc 1 159 0
 363 0016 3BB9     		cbnz	r3, .L28
 364              		.loc 1 159 0 is_stmt 0 discriminator 1
 365 0018 094A     		ldr	r2, .L29+4
 366 001a 1278     		ldrb	r2, [r2]	@ zero_extendqisi2
 367 001c 22B1     		cbz	r2, .L28
 160:main.c        ****         PWM_R=PWM_R+1;
 368              		.loc 1 160 0 is_stmt 1
 369 001e 094A     		ldr	r2, .L29+8
 370 0020 537B     		ldrb	r3, [r2, #13]	@ zero_extendqisi2
 371 0022 0133     		adds	r3, r3, #1
 372 0024 5373     		strb	r3, [r2, #13]
 373 0026 7047     		bx	lr
 374              	.L28:
 161:main.c        ****         
 162:main.c        ****     }else if(comp1_sum==0 && comp0_sum==0){
 375              		.loc 1 162 0
 376 0028 054A     		ldr	r2, .L29+4
 377 002a 1278     		ldrb	r2, [r2]	@ zero_extendqisi2
 378 002c 2AB9     		cbnz	r2, .L25
 379              		.loc 1 162 0 is_stmt 0 discriminator 1
 380 002e 23B9     		cbnz	r3, .L25
 163:main.c        ****         PWM_R=75;
 381              		.loc 1 163 0 is_stmt 1
 382 0030 044B     		ldr	r3, .L29+8
 383 0032 4B22     		movs	r2, #75
 384 0034 5A73     		strb	r2, [r3, #13]
 164:main.c        ****         PWM_L=76;
 385              		.loc 1 164 0
 386 0036 4C22     		movs	r2, #76
 387 0038 1A73     		strb	r2, [r3, #12]
 388              	.L25:
 389 003a 7047     		bx	lr
 390              	.L30:
 391              		.align	2
 392              	.L29:
 393 003c 00000000 		.word	comp0_sum
 394 0040 00000000 		.word	comp1_sum
 395 0044 00000000 		.word	.LANCHOR0
 396              		.cfi_endproc
 397              	.LFE69:
 398              		.size	goStraight, .-goStraight
 399              		.section	.text.go_distance,"ax",%progbits
 400              		.align	2
 401              		.global	go_distance
 402              		.thumb
 403              		.thumb_func
 404              		.type	go_distance, %function
 405              	go_distance:
 406              	.LFB70:
ARM GAS  C:\Users\dulan\AppData\Local\Temp\cceev9tE.s 			page 11


 165:main.c        ****     }
 166:main.c        ****      
 167:main.c        **** }
 168:main.c        **** void go_distance(int distance){
 407              		.loc 1 168 0
 408              		.cfi_startproc
 409              		@ args = 0, pretend = 0, frame = 0
 410              		@ frame_needed = 0, uses_anonymous_args = 0
 411              	.LVL16:
 412 0000 10B5     		push	{r4, lr}
 413              		.cfi_def_cfa_offset 8
 414              		.cfi_offset 4, -8
 415              		.cfi_offset 14, -4
 169:main.c        ****     distance_M1=0;
 416              		.loc 1 169 0
 417 0002 034C     		ldr	r4, .L33
 418 0004 0023     		movs	r3, #0
 419 0006 2361     		str	r3, [r4, #16]	@ float
 170:main.c        ****     target_diatance=distance;
 420              		.loc 1 170 0
 421 0008 FFF7FEFF 		bl	__aeabi_i2f
 422              	.LVL17:
 423 000c 6062     		str	r0, [r4, #36]	@ float
 424 000e 10BD     		pop	{r4, pc}
 425              	.L34:
 426              		.align	2
 427              	.L33:
 428 0010 00000000 		.word	.LANCHOR1
 429              		.cfi_endproc
 430              	.LFE70:
 431              		.size	go_distance, .-go_distance
 432              		.global	__aeabi_f2d
 433              		.global	__aeabi_ddiv
 434              		.global	__aeabi_dcmpgt
 435              		.global	__aeabi_fcmpeq
 436              		.section	.text.main,"ax",%progbits
 437              		.align	2
 438              		.global	main
 439              		.thumb
 440              		.thumb_func
 441              		.type	main, %function
 442              	main:
 443              	.LFB71:
 171:main.c        **** }
 172:main.c        **** 
 173:main.c        **** 
 174:main.c        **** 
 175:main.c        **** 
 176:main.c        **** int main(void)
 177:main.c        **** {
 444              		.loc 1 177 0
 445              		.cfi_startproc
 446              		@ Volatile: function does not return.
 447              		@ args = 0, pretend = 0, frame = 0
 448              		@ frame_needed = 0, uses_anonymous_args = 0
 449 0000 80B5     		push	{r7, lr}
 450              		.cfi_def_cfa_offset 8
ARM GAS  C:\Users\dulan\AppData\Local\Temp\cceev9tE.s 			page 12


 451              		.cfi_offset 7, -8
 452              		.cfi_offset 14, -4
 178:main.c        ****     CyGlobalIntEnable; /* Enable global interrupts. */
 453              		.loc 1 178 0
 454              		.syntax unified
 455              	@ 178 "main.c" 1
 456 0002 62B6     		CPSIE   i
 457              	@ 0 "" 2
 179:main.c        **** 
 180:main.c        ****     /* Place your initialization/startup code here (e.g. MyInst_Start()) */
 181:main.c        ****     Timer_1_Start();
 458              		.loc 1 181 0
 459              		.thumb
 460              		.syntax unified
 461 0004 FFF7FEFF 		bl	Timer_1_Start
 462              	.LVL18:
 182:main.c        ****     
 183:main.c        ****     isr_1_StartEx(isr_1_handler);
 463              		.loc 1 183 0
 464 0008 4348     		ldr	r0, .L49+8
 465 000a FFF7FEFF 		bl	isr_1_StartEx
 466              	.LVL19:
 184:main.c        ****     isr_3_StartEx(isr_3_handler);
 467              		.loc 1 184 0
 468 000e 4348     		ldr	r0, .L49+12
 469 0010 FFF7FEFF 		bl	isr_3_StartEx
 470              	.LVL20:
 185:main.c        ****     isr_2_StartEx(isr_2_handler);
 471              		.loc 1 185 0
 472 0014 4248     		ldr	r0, .L49+16
 473 0016 FFF7FEFF 		bl	isr_2_StartEx
 474              	.LVL21:
 186:main.c        ****     
 187:main.c        ****     //start comparators
 188:main.c        ****     Comp_0_Start();
 475              		.loc 1 188 0
 476 001a FFF7FEFF 		bl	Comp_0_Start
 477              	.LVL22:
 189:main.c        ****     Comp_1_Start();
 478              		.loc 1 189 0
 479 001e FFF7FEFF 		bl	Comp_1_Start
 480              	.LVL23:
 190:main.c        ****     Comp_2_Start();
 481              		.loc 1 190 0
 482 0022 FFF7FEFF 		bl	Comp_2_Start
 483              	.LVL24:
 191:main.c        ****     Comp_3_Start();
 484              		.loc 1 191 0
 485 0026 FFF7FEFF 		bl	Comp_3_Start
 486              	.LVL25:
 192:main.c        ****     
 193:main.c        ****     /*Start PWM Clk*/
 194:main.c        ****     Clock_PWM_Start(); 
 487              		.loc 1 194 0
 488 002a FFF7FEFF 		bl	Clock_PWM_Start
 489              	.LVL26:
 195:main.c        ****     //Start PWM
ARM GAS  C:\Users\dulan\AppData\Local\Temp\cceev9tE.s 			page 13


 196:main.c        ****     PWM_1_Start();
 490              		.loc 1 196 0
 491 002e FFF7FEFF 		bl	PWM_1_Start
 492              	.LVL27:
 197:main.c        ****     PWM_2_Start();
 493              		.loc 1 197 0
 494 0032 FFF7FEFF 		bl	PWM_2_Start
 495              	.LVL28:
 198:main.c        ****     
 199:main.c        ****     // write comparision int for MC33926 duty cycle must me larger than 10% and less than 90%
 200:main.c        **** 
 201:main.c        ****     
 202:main.c        ****     PWM_1_WritePeriod(100);
 496              		.loc 1 202 0
 497 0036 6420     		movs	r0, #100
 498 0038 FFF7FEFF 		bl	PWM_1_WritePeriod
 499              	.LVL29:
 203:main.c        ****     PWM_2_WritePeriod(100);
 500              		.loc 1 203 0
 501 003c 6420     		movs	r0, #100
 502 003e FFF7FEFF 		bl	PWM_2_WritePeriod
 503              	.LVL30:
 204:main.c        ****     
 205:main.c        ****     QuadDec_M1_Start();
 504              		.loc 1 205 0
 505 0042 FFF7FEFF 		bl	QuadDec_M1_Start
 506              	.LVL31:
 206:main.c        ****     QuadDec_M2_Start();
 507              		.loc 1 206 0
 508 0046 FFF7FEFF 		bl	QuadDec_M2_Start
 509              	.LVL32:
 207:main.c        ****     
 208:main.c        ****     go_distance(100);
 510              		.loc 1 208 0
 511 004a 6420     		movs	r0, #100
 512 004c FFF7FEFF 		bl	go_distance
 513              	.LVL33:
 514              	.L45:
 209:main.c        ****     
 210:main.c        ****     for(;;)
 211:main.c        ****     {
 212:main.c        ****           //comp0 and comp1 =0  => straight
 213:main.c        ****            //comp2=0 => left
 214:main.c        ****            //comp3=0 => right
 215:main.c        ****            /* Place your application code here. */
 216:main.c        **** //        if(left_on==false){
 217:main.c        ****             if(comp2_sum==0){
 515              		.loc 1 217 0
 516 0050 344B     		ldr	r3, .L49+20
 517 0052 1B78     		ldrb	r3, [r3]	@ zero_extendqisi2
 518 0054 2BB9     		cbnz	r3, .L36
 218:main.c        **** //               left_on=true;
 219:main.c        ****                 PWM_R=72;
 519              		.loc 1 219 0
 520 0056 344B     		ldr	r3, .L49+24
 521 0058 4822     		movs	r2, #72
 522 005a 5A73     		strb	r2, [r3, #13]
ARM GAS  C:\Users\dulan\AppData\Local\Temp\cceev9tE.s 			page 14


 220:main.c        ****                 PWM_L=38;  
 523              		.loc 1 220 0
 524 005c 2622     		movs	r2, #38
 525 005e 1A73     		strb	r2, [r3, #12]
 526 0060 2EE0     		b	.L37
 527              	.L36:
 221:main.c        ****             }else if(comp3_sum==0){
 528              		.loc 1 221 0
 529 0062 324A     		ldr	r2, .L49+28
 530 0064 1278     		ldrb	r2, [r2]	@ zero_extendqisi2
 531 0066 2AB9     		cbnz	r2, .L38
 222:main.c        ****                 PWM_R=35;
 532              		.loc 1 222 0
 533 0068 2F4B     		ldr	r3, .L49+24
 534 006a 2322     		movs	r2, #35
 535 006c 5A73     		strb	r2, [r3, #13]
 223:main.c        ****                 PWM_L=73;  
 536              		.loc 1 223 0
 537 006e 4922     		movs	r2, #73
 538 0070 1A73     		strb	r2, [r3, #12]
 539 0072 25E0     		b	.L37
 540              	.L38:
 224:main.c        ****             }else if(comp0_sum>0 && comp1_sum==0){//s_ML out of line
 541              		.loc 1 224 0
 542 0074 2E49     		ldr	r1, .L49+32
 543 0076 0978     		ldrb	r1, [r1]	@ zero_extendqisi2
 544 0078 39B1     		cbz	r1, .L39
 545              		.loc 1 224 0 is_stmt 0 discriminator 1
 546 007a 2E48     		ldr	r0, .L49+36
 547 007c 0078     		ldrb	r0, [r0]	@ zero_extendqisi2
 548 007e 20B9     		cbnz	r0, .L39
 225:main.c        ****                 PWM_L=PWM_L+1;
 549              		.loc 1 225 0 is_stmt 1
 550 0080 294A     		ldr	r2, .L49+24
 551 0082 137B     		ldrb	r3, [r2, #12]	@ zero_extendqisi2
 552 0084 0133     		adds	r3, r3, #1
 553 0086 1373     		strb	r3, [r2, #12]
 554 0088 1AE0     		b	.L37
 555              	.L39:
 226:main.c        ****             }else if(comp0_sum==0 && comp1_sum>0){//s_MR out of line
 556              		.loc 1 226 0
 557 008a 39B9     		cbnz	r1, .L40
 558              		.loc 1 226 0 is_stmt 0 discriminator 1
 559 008c 2948     		ldr	r0, .L49+36
 560 008e 0078     		ldrb	r0, [r0]	@ zero_extendqisi2
 561 0090 20B1     		cbz	r0, .L40
 227:main.c        ****                 PWM_R=PWM_R+1;
 562              		.loc 1 227 0 is_stmt 1
 563 0092 254A     		ldr	r2, .L49+24
 564 0094 537B     		ldrb	r3, [r2, #13]	@ zero_extendqisi2
 565 0096 0133     		adds	r3, r3, #1
 566 0098 5373     		strb	r3, [r2, #13]
 567 009a 11E0     		b	.L37
 568              	.L40:
 228:main.c        ****                 
 229:main.c        ****             }else if(comp1_sum==0 && comp0_sum==0){
 569              		.loc 1 229 0
ARM GAS  C:\Users\dulan\AppData\Local\Temp\cceev9tE.s 			page 15


 570 009c 2548     		ldr	r0, .L49+36
 571 009e 0078     		ldrb	r0, [r0]	@ zero_extendqisi2
 572 00a0 30B9     		cbnz	r0, .L41
 573              		.loc 1 229 0 is_stmt 0 discriminator 1
 574 00a2 29B9     		cbnz	r1, .L41
 230:main.c        ****                 PWM_R=72;
 575              		.loc 1 230 0 is_stmt 1
 576 00a4 204B     		ldr	r3, .L49+24
 577 00a6 4822     		movs	r2, #72
 578 00a8 5A73     		strb	r2, [r3, #13]
 231:main.c        ****                 PWM_L=73;
 579              		.loc 1 231 0
 580 00aa 4922     		movs	r2, #73
 581 00ac 1A73     		strb	r2, [r3, #12]
 582 00ae 07E0     		b	.L37
 583              	.L41:
 232:main.c        ****             }else if(comp0_sum>0 && comp1_sum>0 && comp2_sum>0 && comp3_sum>0){
 584              		.loc 1 232 0
 585 00b0 31B1     		cbz	r1, .L37
 586              		.loc 1 232 0 is_stmt 0 discriminator 1
 587 00b2 28B1     		cbz	r0, .L37
 588              		.loc 1 232 0 discriminator 2
 589 00b4 23B1     		cbz	r3, .L37
 590              		.loc 1 232 0 discriminator 3
 591 00b6 1AB1     		cbz	r2, .L37
 233:main.c        ****                 PWM_R=50;
 592              		.loc 1 233 0 is_stmt 1
 593 00b8 1B4B     		ldr	r3, .L49+24
 594 00ba 3222     		movs	r2, #50
 595 00bc 5A73     		strb	r2, [r3, #13]
 234:main.c        ****                 PWM_L=50;
 596              		.loc 1 234 0
 597 00be 1A73     		strb	r2, [r3, #12]
 598              	.L37:
 235:main.c        ****             }
 236:main.c        ****  //       }  
 237:main.c        ****             if(distance_M1>(target_diatance/1.03) && target_diatance!=0){
 599              		.loc 1 237 0
 600 00c0 1D4C     		ldr	r4, .L49+40
 601 00c2 2069     		ldr	r0, [r4, #16]	@ float
 602 00c4 FFF7FEFF 		bl	__aeabi_f2d
 603              	.LVL34:
 604 00c8 0646     		mov	r6, r0
 605 00ca 0F46     		mov	r7, r1
 606 00cc 646A     		ldr	r4, [r4, #36]	@ float
 607 00ce 2046     		mov	r0, r4
 608 00d0 FFF7FEFF 		bl	__aeabi_f2d
 609              	.LVL35:
 610 00d4 0EA3     		adr	r3, .L49
 611 00d6 D3E90023 		ldrd	r2, [r3]
 612 00da FFF7FEFF 		bl	__aeabi_ddiv
 613              	.LVL36:
 614 00de 0246     		mov	r2, r0
 615 00e0 0B46     		mov	r3, r1
 616 00e2 3046     		mov	r0, r6
 617 00e4 3946     		mov	r1, r7
 618 00e6 FFF7FEFF 		bl	__aeabi_dcmpgt
ARM GAS  C:\Users\dulan\AppData\Local\Temp\cceev9tE.s 			page 16


 619              	.LVL37:
 620 00ea 30B1     		cbz	r0, .L42
 621              		.loc 1 237 0 is_stmt 0 discriminator 1
 622 00ec 0021     		movs	r1, #0
 623 00ee 2046     		mov	r0, r4
 624 00f0 FFF7FEFF 		bl	__aeabi_fcmpeq
 625              	.LVL38:
 626 00f4 08B9     		cbnz	r0, .L42
 238:main.c        ****                 stop();
 627              		.loc 1 238 0 is_stmt 1
 628 00f6 FFF7FEFF 		bl	stop
 629              	.LVL39:
 630              	.L42:
 239:main.c        ****             }
 240:main.c        **** 
 241:main.c        ****         //PWM1 right wheel
 242:main.c        ****           PWM_1_WriteCompare(PWM_R);
 631              		.loc 1 242 0
 632 00fa 0B4C     		ldr	r4, .L49+24
 633 00fc 607B     		ldrb	r0, [r4, #13]	@ zero_extendqisi2
 634 00fe FFF7FEFF 		bl	PWM_1_WriteCompare
 635              	.LVL40:
 243:main.c        ****         //PWM2 corresponds to left wheel
 244:main.c        ****           PWM_2_WriteCompare(PWM_L);
 636              		.loc 1 244 0
 637 0102 207B     		ldrb	r0, [r4, #12]	@ zero_extendqisi2
 638 0104 FFF7FEFF 		bl	PWM_2_WriteCompare
 639              	.LVL41:
 245:main.c        ****               
 246:main.c        **** 
 247:main.c        ****     }
 640              		.loc 1 247 0
 641 0108 A2E7     		b	.L45
 642              	.L50:
 643 010a 00BFAFF3 		.align	3
 643      0080
 644              	.L49:
 645 0110 7B14AE47 		.word	1202590843
 646 0114 E17AF03F 		.word	1072724705
 647 0118 00000000 		.word	isr_1_handler
 648 011c 00000000 		.word	isr_3_handler
 649 0120 00000000 		.word	isr_2_handler
 650 0124 00000000 		.word	comp2_sum
 651 0128 00000000 		.word	.LANCHOR0
 652 012c 00000000 		.word	comp3_sum
 653 0130 00000000 		.word	comp0_sum
 654 0134 00000000 		.word	comp1_sum
 655 0138 00000000 		.word	.LANCHOR1
 656              		.cfi_endproc
 657              	.LFE71:
 658              		.size	main, .-main
 659              		.global	PWM_L
 660              		.global	PWM_R
 661              		.comm	comp3_sum,1,1
 662              		.comm	comp2_sum,1,1
 663              		.comm	comp1_sum,1,1
 664              		.comm	comp0_sum,1,1
ARM GAS  C:\Users\dulan\AppData\Local\Temp\cceev9tE.s 			page 17


 665              		.comm	turn_complete,1,1
 666              		.comm	middle_on,1,1
 667              		.comm	right_on,1,1
 668              		.global	left_on
 669              		.global	turn_counter
 670              		.global	count
 671              		.global	counter
 672              		.global	encoder_value_sum_M2
 673              		.global	encoder_value_sum_M1
 674              		.global	speed_M2
 675              		.global	speed_M1
 676              		.global	target_diatance
 677              		.global	current_distance_M2
 678              		.global	current_distance_M1
 679              		.global	distance_M2
 680              		.global	distance_M1
 681              		.global	timeInterval_s
 682              		.global	wheelCircumference_cm
 683              		.global	CPR
 684              		.global	encoderCounts_M2
 685              		.global	encoderCounts_M1
 686              		.data
 687              		.align	3
 688              		.set	.LANCHOR0,. + 0
 689              		.type	counter, %object
 690              		.size	counter, 1
 691              	counter:
 692 0000 01       		.byte	1
 693 0001 000000   		.space	3
 694              		.type	CPR, %object
 695              		.size	CPR, 4
 696              	CPR:
 697 0004 E4000000 		.word	228
 698              		.type	wheelCircumference_cm, %object
 699              		.size	wheelCircumference_cm, 4
 700              	wheelCircumference_cm:
 701 0008 7201A241 		.word	1101136242
 702              		.type	PWM_L, %object
 703              		.size	PWM_L, 1
 704              	PWM_L:
 705 000c 64       		.byte	100
 706              		.type	PWM_R, %object
 707              		.size	PWM_R, 1
 708              	PWM_R:
 709 000d 63       		.byte	99
 710 000e 0000     		.space	2
 711              		.type	timeInterval_s, %object
 712              		.size	timeInterval_s, 8
 713              	timeInterval_s:
 714 0010 0C022B87 		.word	-2027224564
 715 0014 16D92540 		.word	1076222230
 716              		.bss
 717              		.align	2
 718              		.set	.LANCHOR1,. + 0
 719              		.type	encoderCounts_M1, %object
 720              		.size	encoderCounts_M1, 4
 721              	encoderCounts_M1:
ARM GAS  C:\Users\dulan\AppData\Local\Temp\cceev9tE.s 			page 18


 722 0000 00000000 		.space	4
 723              		.type	encoderCounts_M2, %object
 724              		.size	encoderCounts_M2, 4
 725              	encoderCounts_M2:
 726 0004 00000000 		.space	4
 727              		.type	encoder_value_sum_M1, %object
 728              		.size	encoder_value_sum_M1, 4
 729              	encoder_value_sum_M1:
 730 0008 00000000 		.space	4
 731              		.type	encoder_value_sum_M2, %object
 732              		.size	encoder_value_sum_M2, 4
 733              	encoder_value_sum_M2:
 734 000c 00000000 		.space	4
 735              		.type	distance_M1, %object
 736              		.size	distance_M1, 4
 737              	distance_M1:
 738 0010 00000000 		.space	4
 739              		.type	distance_M2, %object
 740              		.size	distance_M2, 4
 741              	distance_M2:
 742 0014 00000000 		.space	4
 743              		.type	left_on, %object
 744              		.size	left_on, 1
 745              	left_on:
 746 0018 00       		.space	1
 747 0019 000000   		.space	3
 748              		.type	turn_counter, %object
 749              		.size	turn_counter, 4
 750              	turn_counter:
 751 001c 00000000 		.space	4
 752              		.type	count, %object
 753              		.size	count, 4
 754              	count:
 755 0020 00000000 		.space	4
 756              		.type	target_diatance, %object
 757              		.size	target_diatance, 4
 758              	target_diatance:
 759 0024 00000000 		.space	4
 760              		.type	speed_M2, %object
 761              		.size	speed_M2, 4
 762              	speed_M2:
 763 0028 00000000 		.space	4
 764              		.type	speed_M1, %object
 765              		.size	speed_M1, 4
 766              	speed_M1:
 767 002c 00000000 		.space	4
 768              		.type	current_distance_M2, %object
 769              		.size	current_distance_M2, 4
 770              	current_distance_M2:
 771 0030 00000000 		.space	4
 772              		.type	current_distance_M1, %object
 773              		.size	current_distance_M1, 4
 774              	current_distance_M1:
 775 0034 00000000 		.space	4
 776              		.text
 777              	.Letext0:
 778              		.file 2 "c:\\program files (x86)\\cypress\\psoc creator\\4.4\\psoc creator\\import\\gnu\\arm\\5.4.
ARM GAS  C:\Users\dulan\AppData\Local\Temp\cceev9tE.s 			page 19


 779              		.file 3 "c:\\program files (x86)\\cypress\\psoc creator\\4.4\\psoc creator\\import\\gnu\\arm\\5.4.
 780              		.file 4 "Generated_Source\\PSoC5/cytypes.h"
 781              		.file 5 "Generated_Source\\PSoC5/core_cm3.h"
 782              		.file 6 "Generated_Source\\PSoC5/QuadDec_M1.h"
 783              		.file 7 "Generated_Source\\PSoC5/QuadDec_M2.h"
 784              		.file 8 "Generated_Source\\PSoC5/Timer_1.h"
 785              		.file 9 "Generated_Source\\PSoC5/LED_1.h"
 786              		.file 10 "Generated_Source\\PSoC5/Comp_0.h"
 787              		.file 11 "Generated_Source\\PSoC5/Comp_1.h"
 788              		.file 12 "Generated_Source\\PSoC5/Comp_2.h"
 789              		.file 13 "Generated_Source\\PSoC5/Comp_3.h"
 790              		.file 14 "Generated_Source\\PSoC5/isr_1.h"
 791              		.file 15 "Generated_Source\\PSoC5/isr_3.h"
 792              		.file 16 "Generated_Source\\PSoC5/isr_2.h"
 793              		.file 17 "Generated_Source\\PSoC5/Clock_PWM.h"
 794              		.file 18 "Generated_Source\\PSoC5/PWM_1.h"
 795              		.file 19 "Generated_Source\\PSoC5/PWM_2.h"