ARM GAS  C:\Users\umasu\AppData\Local\Temp\ccVAKsVb.s 			page 1


   1              		.syntax unified
   2              		.cpu cortex-m3
   3              		.fpu softvfp
   4              		.eabi_attribute 20, 1
   5              		.eabi_attribute 21, 1
   6              		.eabi_attribute 23, 3
   7              		.eabi_attribute 24, 1
   8              		.eabi_attribute 25, 1
   9              		.eabi_attribute 26, 1
  10              		.eabi_attribute 30, 1
  11              		.eabi_attribute 34, 1
  12              		.eabi_attribute 18, 4
  13              		.thumb
  14              		.syntax unified
  15              		.file	"main.c"
  16              		.text
  17              	.Ltext0:
  18              		.cfi_sections	.debug_frame
  19              		.section	.text.isr_2_handler,"ax",%progbits
  20              		.align	2
  21              		.global	isr_2_handler
  22              		.thumb
  23              		.thumb_func
  24              		.type	isr_2_handler, %function
  25              	isr_2_handler:
  26              	.LFB65:
  27              		.file 1 "main.c"
   1:main.c        **** /* ========================================
   2:main.c        ****  *
   3:main.c        ****  * Copyright YOUR COMPANY, THE YEAR
   4:main.c        ****  * All Rights Reserved
   5:main.c        ****  * UNPUBLISHED, LICENSED SOFTWARE.
   6:main.c        ****  *
   7:main.c        ****  * CONFIDENTIAL AND PROPRIETARY INFORMATION
   8:main.c        ****  * WHICH IS THE PROPERTY OF your company.
   9:main.c        ****  *
  10:main.c        ****  * ========================================
  11:main.c        **** */
  12:main.c        **** /* ========================================
  13:main.c        ****  * Fully working code: 
  14:main.c        ****  * PWM      : 
  15:main.c        ****  * Encoder  : 
  16:main.c        ****  * ADC      :
  17:main.c        ****  * USB      : port displays speed and position.
  18:main.c        ****  * CMD: "PW xx"
  19:main.c        ****  * Copyright Univ of Auckland, 2016
  20:main.c        ****  * All Rights Reserved
  21:main.c        ****  * UNPUBLISHED, LICENSED SOFTWARE.
  22:main.c        ****  *
  23:main.c        ****  * CONFIDENTIAL AND PROPRIETARY INFORMATION
  24:main.c        ****  * WHICH IS THE PROPERTY OF Univ of Auckland.
  25:main.c        ****  *
  26:main.c        ****  * ========================================
  27:main.c        **** */
  28:main.c        **** #include <stdio.h>
  29:main.c        **** #include <string.h>
  30:main.c        **** #include <stdlib.h>
ARM GAS  C:\Users\umasu\AppData\Local\Temp\ccVAKsVb.s 			page 2


  31:main.c        **** #include <project.h>
  32:main.c        **** #include <stdbool.h>
  33:main.c        **** #include <math.h>
  34:main.c        **** #include "project.h"
  35:main.c        **** 
  36:main.c        **** //distance calculation paras
  37:main.c        **** int32 encoderCounts_M1 = 0;  
  38:main.c        **** int32 encoderCounts_M2 = 0;  
  39:main.c        **** int32 CPR = 228;  // Adjusted for 4x resolution(228/4)
  40:main.c        **** float wheelCircumference_cm = (M_PI*64.46)/10;// wheel circumference wheelDiameter_mm = 64.46)
  41:main.c        **** double timeInterval_s = 10.924;  // Effective time interval( (timer period )2.731*4)
  42:main.c        **** float32  distance_M1 = 0;
  43:main.c        **** float32  distance_M2 = 0;
  44:main.c        **** float32  current_distance_M1 = 0;
  45:main.c        **** float32  current_distance_M2 = 0;
  46:main.c        **** float32 target_diatance = 100;//cm
  47:main.c        **** float32 speed_M1 = 0;
  48:main.c        **** float32 speed_M2 = 0;
  49:main.c        **** int32 encoder_value_sum_M1 = 0;
  50:main.c        **** int32 encoder_value_sum_M2 = 0;
  51:main.c        **** int32 prev_encoder_value_M1 = 0;
  52:main.c        **** int32 prev_encoder_value_M2 = 0;
  53:main.c        **** uint8 counter = 1;
  54:main.c        **** 
  55:main.c        **** 
  56:main.c        **** 
  57:main.c        **** 
  58:main.c        **** 
  59:main.c        **** 
  60:main.c        **** uint32 count = 0;
  61:main.c        **** uint32 turn_counter = 0;
  62:main.c        **** bool left_on=0;
  63:main.c        **** bool right_on;
  64:main.c        **** bool middle_on;
  65:main.c        **** bool turn_complete;
  66:main.c        **** 
  67:main.c        **** uint8 comp0_sum;
  68:main.c        **** uint8 comp1_sum;
  69:main.c        **** uint8 comp2_sum;
  70:main.c        **** uint8 comp3_sum;
  71:main.c        **** 
  72:main.c        **** uint8 PWM_R=65;
  73:main.c        **** uint8 PWM_L=66;
  74:main.c        **** 
  75:main.c        **** 
  76:main.c        **** CY_ISR(isr_3_handler) {
  77:main.c        ****     if (counter < 10){
  78:main.c        ****         counter++;
  79:main.c        ****     }else{
  80:main.c        ****         counter = 1;
  81:main.c        ****         // Encoder counts (negative due to counterclockwise rotation)
  82:main.c        ****         encoderCounts_M1 = abs(QuadDec_M1_GetCounter());//QuadDec_M1_GetCounter();
  83:main.c        ****         encoderCounts_M2 = abs(QuadDec_M2_GetCounter());
  84:main.c        ****             
  85:main.c        ****         
  86:main.c        ****         // sum of encodercounts
  87:main.c        ****         encoder_value_sum_M1 += encoderCounts_M1 - prev_encoder_value_M1;
ARM GAS  C:\Users\umasu\AppData\Local\Temp\ccVAKsVb.s 			page 3


  88:main.c        ****         encoder_value_sum_M2 += encoderCounts_M2 - prev_encoder_value_M2;
  89:main.c        ****         
  90:main.c        ****         current_distance_M1 = ((encoderCounts_M1 - prev_encoder_value_M1)/CPR)*wheelCircumference_c
  91:main.c        ****         
  92:main.c        ****         // distance calculations 
  93:main.c        ****         distance_M1 = (encoder_value_sum_M1/CPR) * wheelCircumference_cm;
  94:main.c        ****         distance_M2 = (encoder_value_sum_M2/CPR) * wheelCircumference_cm;
  95:main.c        **** 
  96:main.c        ****         
  97:main.c        ****         //update prev encoder value
  98:main.c        ****         prev_encoder_value_M1 = encoderCounts_M1;
  99:main.c        ****         prev_encoder_value_M2 = encoderCounts_M2;
 100:main.c        ****         
 101:main.c        ****         
 102:main.c        ****         //reset the encoder counters 
 103:main.c        ****         QuadDec_M1_SetCounter(0);
 104:main.c        ****         QuadDec_M2_SetCounter(0);     
 105:main.c        ****     }
 106:main.c        ****         Timer_1_ReadStatusRegister();
 107:main.c        **** }
 108:main.c        **** 
 109:main.c        **** 
 110:main.c        **** CY_ISR(isr_2_handler) {
  28              		.loc 1 110 0
  29              		.cfi_startproc
  30              		@ args = 0, pretend = 0, frame = 0
  31              		@ frame_needed = 0, uses_anonymous_args = 0
  32              		@ link register save eliminated.
 111:main.c        ****     //every 1ms 
 112:main.c        ****     if(turn_counter==400){
  33              		.loc 1 112 0
  34 0000 0A4B     		ldr	r3, .L4
  35 0002 1B68     		ldr	r3, [r3]
  36 0004 B3F5C87F 		cmp	r3, #400
  37 0008 04D1     		bne	.L2
 113:main.c        ****          PWM_L=30;
  38              		.loc 1 113 0
  39 000a 094A     		ldr	r2, .L4+4
  40 000c 1E21     		movs	r1, #30
  41 000e 1170     		strb	r1, [r2]
 114:main.c        ****         PWM_R=70; 
  42              		.loc 1 114 0
  43 0010 4621     		movs	r1, #70
  44 0012 5170     		strb	r1, [r2, #1]
  45              	.L2:
 115:main.c        ****     }
 116:main.c        ****     if(turn_counter==950){
  46              		.loc 1 116 0
  47 0014 40F2B632 		movw	r2, #950
  48 0018 9342     		cmp	r3, r2
  49 001a 03D1     		bne	.L3
 117:main.c        ****         PWM_L=50;
  50              		.loc 1 117 0
  51 001c 044A     		ldr	r2, .L4+4
  52 001e 3221     		movs	r1, #50
  53 0020 1170     		strb	r1, [r2]
 118:main.c        ****         PWM_R=50;
ARM GAS  C:\Users\umasu\AppData\Local\Temp\ccVAKsVb.s 			page 4


  54              		.loc 1 118 0
  55 0022 5170     		strb	r1, [r2, #1]
  56              	.L3:
 119:main.c        ****     }
 120:main.c        ****     
 121:main.c        ****         
 122:main.c        ****     
 123:main.c        ****     turn_counter++;
  57              		.loc 1 123 0
  58 0024 0133     		adds	r3, r3, #1
  59 0026 014A     		ldr	r2, .L4
  60 0028 1360     		str	r3, [r2]
  61 002a 7047     		bx	lr
  62              	.L5:
  63              		.align	2
  64              	.L4:
  65 002c 00000000 		.word	.LANCHOR0
  66 0030 00000000 		.word	.LANCHOR1
  67              		.cfi_endproc
  68              	.LFE65:
  69              		.size	isr_2_handler, .-isr_2_handler
  70              		.global	__aeabi_i2f
  71              		.global	__aeabi_fmul
  72              		.section	.text.isr_3_handler,"ax",%progbits
  73              		.align	2
  74              		.global	isr_3_handler
  75              		.thumb
  76              		.thumb_func
  77              		.type	isr_3_handler, %function
  78              	isr_3_handler:
  79              	.LFB64:
  76:main.c        ****     if (counter < 10){
  80              		.loc 1 76 0
  81              		.cfi_startproc
  82              		@ args = 0, pretend = 0, frame = 0
  83              		@ frame_needed = 0, uses_anonymous_args = 0
  84 0000 2DE9F047 		push	{r4, r5, r6, r7, r8, r9, r10, lr}
  85              		.cfi_def_cfa_offset 32
  86              		.cfi_offset 4, -32
  87              		.cfi_offset 5, -28
  88              		.cfi_offset 6, -24
  89              		.cfi_offset 7, -20
  90              		.cfi_offset 8, -16
  91              		.cfi_offset 9, -12
  92              		.cfi_offset 10, -8
  93              		.cfi_offset 14, -4
  77:main.c        ****         counter++;
  94              		.loc 1 77 0
  95 0004 284B     		ldr	r3, .L10
  96 0006 9B78     		ldrb	r3, [r3, #2]	@ zero_extendqisi2
  97 0008 092B     		cmp	r3, #9
  98 000a 03D8     		bhi	.L7
  78:main.c        ****     }else{
  99              		.loc 1 78 0
 100 000c 0133     		adds	r3, r3, #1
 101 000e 264A     		ldr	r2, .L10
 102 0010 9370     		strb	r3, [r2, #2]
ARM GAS  C:\Users\umasu\AppData\Local\Temp\ccVAKsVb.s 			page 5


 103 0012 44E0     		b	.L8
 104              	.L7:
  80:main.c        ****         // Encoder counts (negative due to counterclockwise rotation)
 105              		.loc 1 80 0
 106 0014 DFF89080 		ldr	r8, .L10
 107 0018 0123     		movs	r3, #1
 108 001a 88F80230 		strb	r3, [r8, #2]
  82:main.c        ****         encoderCounts_M2 = abs(QuadDec_M2_GetCounter());
 109              		.loc 1 82 0
 110 001e FFF7FEFF 		bl	QuadDec_M1_GetCounter
 111              	.LVL0:
 112 0022 0028     		cmp	r0, #0
 113 0024 B8BF     		it	lt
 114 0026 4042     		rsblt	r0, r0, #0
 115 0028 204C     		ldr	r4, .L10+4
 116 002a 6060     		str	r0, [r4, #4]
  83:main.c        ****             
 117              		.loc 1 83 0
 118 002c FFF7FEFF 		bl	QuadDec_M2_GetCounter
 119              	.LVL1:
 120 0030 80EAE077 		eor	r7, r0, r0, asr #31
 121 0034 A7EBE077 		sub	r7, r7, r0, asr #31
 122 0038 A760     		str	r7, [r4, #8]
  87:main.c        ****         encoder_value_sum_M2 += encoderCounts_M2 - prev_encoder_value_M2;
 123              		.loc 1 87 0
 124 003a D4F80490 		ldr	r9, [r4, #4]
 125 003e E068     		ldr	r0, [r4, #12]
 126 0040 C0EB0900 		rsb	r0, r0, r9
 127 0044 2669     		ldr	r6, [r4, #16]
 128 0046 0644     		add	r6, r6, r0
 129 0048 2661     		str	r6, [r4, #16]
  88:main.c        ****         
 130              		.loc 1 88 0
 131 004a 6569     		ldr	r5, [r4, #20]
 132 004c 7D1B     		subs	r5, r7, r5
 133 004e A369     		ldr	r3, [r4, #24]
 134 0050 1D44     		add	r5, r5, r3
 135 0052 A561     		str	r5, [r4, #24]
  90:main.c        ****         
 136              		.loc 1 90 0
 137 0054 D8F804A0 		ldr	r10, [r8, #4]
 138 0058 D8F80880 		ldr	r8, [r8, #8]	@ float
 139 005c 90FBFAF0 		sdiv	r0, r0, r10
 140 0060 FFF7FEFF 		bl	__aeabi_i2f
 141              	.LVL2:
 142 0064 4146     		mov	r1, r8
 143 0066 FFF7FEFF 		bl	__aeabi_fmul
 144              	.LVL3:
 145 006a E061     		str	r0, [r4, #28]	@ float
  93:main.c        ****         distance_M2 = (encoder_value_sum_M2/CPR) * wheelCircumference_cm;
 146              		.loc 1 93 0
 147 006c 96FBFAF0 		sdiv	r0, r6, r10
 148 0070 FFF7FEFF 		bl	__aeabi_i2f
 149              	.LVL4:
 150 0074 4146     		mov	r1, r8
 151 0076 FFF7FEFF 		bl	__aeabi_fmul
 152              	.LVL5:
ARM GAS  C:\Users\umasu\AppData\Local\Temp\ccVAKsVb.s 			page 6


 153 007a 2062     		str	r0, [r4, #32]	@ float
  94:main.c        **** 
 154              		.loc 1 94 0
 155 007c 95FBFAF0 		sdiv	r0, r5, r10
 156 0080 FFF7FEFF 		bl	__aeabi_i2f
 157              	.LVL6:
 158 0084 4146     		mov	r1, r8
 159 0086 FFF7FEFF 		bl	__aeabi_fmul
 160              	.LVL7:
 161 008a 6062     		str	r0, [r4, #36]	@ float
  98:main.c        ****         prev_encoder_value_M2 = encoderCounts_M2;
 162              		.loc 1 98 0
 163 008c C4F80C90 		str	r9, [r4, #12]
  99:main.c        ****         
 164              		.loc 1 99 0
 165 0090 6761     		str	r7, [r4, #20]
 103:main.c        ****         QuadDec_M2_SetCounter(0);     
 166              		.loc 1 103 0
 167 0092 0020     		movs	r0, #0
 168 0094 FFF7FEFF 		bl	QuadDec_M1_SetCounter
 169              	.LVL8:
 104:main.c        ****     }
 170              		.loc 1 104 0
 171 0098 0020     		movs	r0, #0
 172 009a FFF7FEFF 		bl	QuadDec_M2_SetCounter
 173              	.LVL9:
 174              	.L8:
 106:main.c        **** }
 175              		.loc 1 106 0
 176 009e FFF7FEFF 		bl	Timer_1_ReadStatusRegister
 177              	.LVL10:
 178 00a2 BDE8F087 		pop	{r4, r5, r6, r7, r8, r9, r10, pc}
 179              	.L11:
 180 00a6 00BF     		.align	2
 181              	.L10:
 182 00a8 00000000 		.word	.LANCHOR1
 183 00ac 00000000 		.word	.LANCHOR0
 184              		.cfi_endproc
 185              	.LFE64:
 186              		.size	isr_3_handler, .-isr_3_handler
 187              		.section	.text.isr_1_handler,"ax",%progbits
 188              		.align	2
 189              		.global	isr_1_handler
 190              		.thumb
 191              		.thumb_func
 192              		.type	isr_1_handler, %function
 193              	isr_1_handler:
 194              	.LFB66:
 124:main.c        ****     
 125:main.c        **** }
 126:main.c        **** 
 127:main.c        **** 
 128:main.c        **** CY_ISR(isr_1_handler) {
 195              		.loc 1 128 0
 196              		.cfi_startproc
 197              		@ args = 0, pretend = 0, frame = 0
 198              		@ frame_needed = 0, uses_anonymous_args = 0
ARM GAS  C:\Users\umasu\AppData\Local\Temp\ccVAKsVb.s 			page 7


 199 0000 08B5     		push	{r3, lr}
 200              		.cfi_def_cfa_offset 8
 201              		.cfi_offset 3, -8
 202              		.cfi_offset 14, -4
 129:main.c        ****     //every 1ms 
 130:main.c        ****     
 131:main.c        ****     //check comp values every 1ms
 132:main.c        ****     comp0_sum+=Comp_0_GetCompare();
 203              		.loc 1 132 0
 204 0002 FFF7FEFF 		bl	Comp_0_GetCompare
 205              	.LVL11:
 206 0006 164A     		ldr	r2, .L15
 207 0008 1378     		ldrb	r3, [r2]	@ zero_extendqisi2
 208 000a 1844     		add	r0, r0, r3
 209 000c 1070     		strb	r0, [r2]
 133:main.c        ****     comp1_sum+=Comp_1_GetCompare();
 210              		.loc 1 133 0
 211 000e FFF7FEFF 		bl	Comp_1_GetCompare
 212              	.LVL12:
 213 0012 144A     		ldr	r2, .L15+4
 214 0014 1378     		ldrb	r3, [r2]	@ zero_extendqisi2
 215 0016 1844     		add	r0, r0, r3
 216 0018 1070     		strb	r0, [r2]
 134:main.c        ****     comp2_sum+=Comp_2_GetCompare();
 217              		.loc 1 134 0
 218 001a FFF7FEFF 		bl	Comp_2_GetCompare
 219              	.LVL13:
 220 001e 124A     		ldr	r2, .L15+8
 221 0020 1378     		ldrb	r3, [r2]	@ zero_extendqisi2
 222 0022 1844     		add	r0, r0, r3
 223 0024 1070     		strb	r0, [r2]
 135:main.c        ****     comp3_sum+=Comp_3_GetCompare();
 224              		.loc 1 135 0
 225 0026 FFF7FEFF 		bl	Comp_3_GetCompare
 226              	.LVL14:
 227 002a 104A     		ldr	r2, .L15+12
 228 002c 1378     		ldrb	r3, [r2]	@ zero_extendqisi2
 229 002e 1844     		add	r0, r0, r3
 230 0030 1070     		strb	r0, [r2]
 136:main.c        ****     
 137:main.c        ****     
 138:main.c        ****     if(count==3){
 231              		.loc 1 138 0
 232 0032 0F4B     		ldr	r3, .L15+16
 233 0034 9B6A     		ldr	r3, [r3, #40]
 234 0036 032B     		cmp	r3, #3
 235 0038 0AD1     		bne	.L13
 139:main.c        ****         //reset to check again every 6ms
 140:main.c        ****         comp0_sum=0;
 236              		.loc 1 140 0
 237 003a 0023     		movs	r3, #0
 238 003c 084A     		ldr	r2, .L15
 239 003e 1370     		strb	r3, [r2]
 141:main.c        ****         comp1_sum=0;
 240              		.loc 1 141 0
 241 0040 084A     		ldr	r2, .L15+4
 242 0042 1370     		strb	r3, [r2]
ARM GAS  C:\Users\umasu\AppData\Local\Temp\ccVAKsVb.s 			page 8


 142:main.c        ****         comp2_sum=0;
 243              		.loc 1 142 0
 244 0044 084A     		ldr	r2, .L15+8
 245 0046 1370     		strb	r3, [r2]
 143:main.c        ****         comp3_sum=0;
 246              		.loc 1 143 0
 247 0048 084A     		ldr	r2, .L15+12
 248 004a 1370     		strb	r3, [r2]
 144:main.c        ****         count=0;
 249              		.loc 1 144 0
 250 004c 084A     		ldr	r2, .L15+16
 251 004e 9362     		str	r3, [r2, #40]
 252              	.L13:
 145:main.c        ****     }
 146:main.c        ****    
 147:main.c        **** 
 148:main.c        ****     count++;
 253              		.loc 1 148 0
 254 0050 074A     		ldr	r2, .L15+16
 255 0052 936A     		ldr	r3, [r2, #40]
 256 0054 0133     		adds	r3, r3, #1
 257 0056 9362     		str	r3, [r2, #40]
 149:main.c        ****     Timer_1_ReadStatusRegister();
 258              		.loc 1 149 0
 259 0058 FFF7FEFF 		bl	Timer_1_ReadStatusRegister
 260              	.LVL15:
 261 005c 08BD     		pop	{r3, pc}
 262              	.L16:
 263 005e 00BF     		.align	2
 264              	.L15:
 265 0060 00000000 		.word	comp0_sum
 266 0064 00000000 		.word	comp1_sum
 267 0068 00000000 		.word	comp2_sum
 268 006c 00000000 		.word	comp3_sum
 269 0070 00000000 		.word	.LANCHOR0
 270              		.cfi_endproc
 271              	.LFE66:
 272              		.size	isr_1_handler, .-isr_1_handler
 273              		.section	.text.stop,"ax",%progbits
 274              		.align	2
 275              		.global	stop
 276              		.thumb
 277              		.thumb_func
 278              		.type	stop, %function
 279              	stop:
 280              	.LFB67:
 150:main.c        **** }
 151:main.c        **** 
 152:main.c        **** void stop(){
 281              		.loc 1 152 0
 282              		.cfi_startproc
 283              		@ args = 0, pretend = 0, frame = 0
 284              		@ frame_needed = 0, uses_anonymous_args = 0
 285              		@ link register save eliminated.
 153:main.c        ****     PWM_R=50;
 286              		.loc 1 153 0
 287 0000 024B     		ldr	r3, .L18
ARM GAS  C:\Users\umasu\AppData\Local\Temp\ccVAKsVb.s 			page 9


 288 0002 3222     		movs	r2, #50
 289 0004 5A70     		strb	r2, [r3, #1]
 154:main.c        ****     PWM_L=50;
 290              		.loc 1 154 0
 291 0006 1A70     		strb	r2, [r3]
 292 0008 7047     		bx	lr
 293              	.L19:
 294 000a 00BF     		.align	2
 295              	.L18:
 296 000c 00000000 		.word	.LANCHOR1
 297              		.cfi_endproc
 298              	.LFE67:
 299              		.size	stop, .-stop
 300              		.section	.text.turnLeft,"ax",%progbits
 301              		.align	2
 302              		.global	turnLeft
 303              		.thumb
 304              		.thumb_func
 305              		.type	turnLeft, %function
 306              	turnLeft:
 307              	.LFB68:
 155:main.c        **** }
 156:main.c        **** 
 157:main.c        **** 
 158:main.c        **** 
 159:main.c        **** 
 160:main.c        **** 
 161:main.c        **** void turnLeft(){
 308              		.loc 1 161 0
 309              		.cfi_startproc
 310              		@ args = 0, pretend = 0, frame = 0
 311              		@ frame_needed = 0, uses_anonymous_args = 0
 312 0000 08B5     		push	{r3, lr}
 313              		.cfi_def_cfa_offset 8
 314              		.cfi_offset 3, -8
 315              		.cfi_offset 14, -4
 162:main.c        ****     isr_2_StartEx(isr_2_handler);
 316              		.loc 1 162 0
 317 0002 0248     		ldr	r0, .L22
 318 0004 FFF7FEFF 		bl	isr_2_StartEx
 319              	.LVL16:
 320 0008 08BD     		pop	{r3, pc}
 321              	.L23:
 322 000a 00BF     		.align	2
 323              	.L22:
 324 000c 00000000 		.word	isr_2_handler
 325              		.cfi_endproc
 326              	.LFE68:
 327              		.size	turnLeft, .-turnLeft
 328              		.section	.text.goStraight,"ax",%progbits
 329              		.align	2
 330              		.global	goStraight
 331              		.thumb
 332              		.thumb_func
 333              		.type	goStraight, %function
 334              	goStraight:
 335              	.LFB69:
ARM GAS  C:\Users\umasu\AppData\Local\Temp\ccVAKsVb.s 			page 10


 163:main.c        ****     
 164:main.c        **** }
 165:main.c        **** 
 166:main.c        **** void goStraight(){
 336              		.loc 1 166 0
 337              		.cfi_startproc
 338              		@ args = 0, pretend = 0, frame = 0
 339              		@ frame_needed = 0, uses_anonymous_args = 0
 340              		@ link register save eliminated.
 167:main.c        ****     //comp0==>middle left comp1==>middle right
 168:main.c        ****     if(comp0_sum>0 && comp1_sum==0){//s_ML out of line
 341              		.loc 1 168 0
 342 0000 0E4B     		ldr	r3, .L28
 343 0002 1B78     		ldrb	r3, [r3]	@ zero_extendqisi2
 344 0004 3BB1     		cbz	r3, .L25
 345              		.loc 1 168 0 is_stmt 0 discriminator 1
 346 0006 0E4A     		ldr	r2, .L28+4
 347 0008 1278     		ldrb	r2, [r2]	@ zero_extendqisi2
 348 000a 22B9     		cbnz	r2, .L25
 169:main.c        ****         PWM_L=PWM_L+1;
 349              		.loc 1 169 0 is_stmt 1
 350 000c 0D4A     		ldr	r2, .L28+8
 351 000e 1378     		ldrb	r3, [r2]	@ zero_extendqisi2
 352 0010 0133     		adds	r3, r3, #1
 353 0012 1370     		strb	r3, [r2]
 354 0014 7047     		bx	lr
 355              	.L25:
 170:main.c        ****     }else if(comp0_sum==0 && comp1_sum>0){//s_MR out of line
 356              		.loc 1 170 0
 357 0016 3BB9     		cbnz	r3, .L27
 358              		.loc 1 170 0 is_stmt 0 discriminator 1
 359 0018 094A     		ldr	r2, .L28+4
 360 001a 1278     		ldrb	r2, [r2]	@ zero_extendqisi2
 361 001c 22B1     		cbz	r2, .L27
 171:main.c        ****         PWM_R=PWM_R+1;
 362              		.loc 1 171 0 is_stmt 1
 363 001e 094A     		ldr	r2, .L28+8
 364 0020 5378     		ldrb	r3, [r2, #1]	@ zero_extendqisi2
 365 0022 0133     		adds	r3, r3, #1
 366 0024 5370     		strb	r3, [r2, #1]
 367 0026 7047     		bx	lr
 368              	.L27:
 172:main.c        ****         
 173:main.c        ****     }else if(comp1_sum==0 && comp0_sum==0){
 369              		.loc 1 173 0
 370 0028 054A     		ldr	r2, .L28+4
 371 002a 1278     		ldrb	r2, [r2]	@ zero_extendqisi2
 372 002c 2AB9     		cbnz	r2, .L24
 373              		.loc 1 173 0 is_stmt 0 discriminator 1
 374 002e 23B9     		cbnz	r3, .L24
 174:main.c        ****         PWM_R=70;
 375              		.loc 1 174 0 is_stmt 1
 376 0030 044B     		ldr	r3, .L28+8
 377 0032 4622     		movs	r2, #70
 378 0034 5A70     		strb	r2, [r3, #1]
 175:main.c        ****         PWM_L=71;
 379              		.loc 1 175 0
ARM GAS  C:\Users\umasu\AppData\Local\Temp\ccVAKsVb.s 			page 11


 380 0036 4722     		movs	r2, #71
 381 0038 1A70     		strb	r2, [r3]
 382              	.L24:
 383 003a 7047     		bx	lr
 384              	.L29:
 385              		.align	2
 386              	.L28:
 387 003c 00000000 		.word	comp0_sum
 388 0040 00000000 		.word	comp1_sum
 389 0044 00000000 		.word	.LANCHOR1
 390              		.cfi_endproc
 391              	.LFE69:
 392              		.size	goStraight, .-goStraight
 393              		.section	.text.turnRight,"ax",%progbits
 394              		.align	2
 395              		.global	turnRight
 396              		.thumb
 397              		.thumb_func
 398              		.type	turnRight, %function
 399              	turnRight:
 400              	.LFB70:
 176:main.c        ****     }
 177:main.c        ****      
 178:main.c        **** }
 179:main.c        **** 
 180:main.c        **** void turnRight(){
 401              		.loc 1 180 0
 402              		.cfi_startproc
 403              		@ args = 0, pretend = 0, frame = 0
 404              		@ frame_needed = 0, uses_anonymous_args = 0
 405              		@ link register save eliminated.
 406              	.L32:
 181:main.c        ****         
 182:main.c        ****     PWM_R=30;
 183:main.c        ****     PWM_L=71;
 184:main.c        ****     while(comp1_sum==0 && comp0_sum==0);
 407              		.loc 1 184 0 discriminator 2
 408 0000 054B     		ldr	r3, .L33
 409 0002 1B78     		ldrb	r3, [r3]	@ zero_extendqisi2
 410 0004 1BB9     		cbnz	r3, .L31
 411              		.loc 1 184 0 is_stmt 0 discriminator 1
 412 0006 054B     		ldr	r3, .L33+4
 413 0008 1B78     		ldrb	r3, [r3]	@ zero_extendqisi2
 414 000a 002B     		cmp	r3, #0
 415 000c F8D0     		beq	.L32
 416              	.L31:
 185:main.c        ****     PWM_R=50;
 417              		.loc 1 185 0 is_stmt 1
 418 000e 044B     		ldr	r3, .L33+8
 419 0010 3222     		movs	r2, #50
 420 0012 5A70     		strb	r2, [r3, #1]
 186:main.c        ****     PWM_L=50;
 421              		.loc 1 186 0
 422 0014 1A70     		strb	r2, [r3]
 423 0016 7047     		bx	lr
 424              	.L34:
 425              		.align	2
ARM GAS  C:\Users\umasu\AppData\Local\Temp\ccVAKsVb.s 			page 12


 426              	.L33:
 427 0018 00000000 		.word	comp1_sum
 428 001c 00000000 		.word	comp0_sum
 429 0020 00000000 		.word	.LANCHOR1
 430              		.cfi_endproc
 431              	.LFE70:
 432              		.size	turnRight, .-turnRight
 433              		.section	.text.main,"ax",%progbits
 434              		.align	2
 435              		.global	main
 436              		.thumb
 437              		.thumb_func
 438              		.type	main, %function
 439              	main:
 440              	.LFB71:
 187:main.c        ****     
 188:main.c        **** }
 189:main.c        **** 
 190:main.c        **** 
 191:main.c        **** 
 192:main.c        **** int main(void)
 193:main.c        **** {
 441              		.loc 1 193 0
 442              		.cfi_startproc
 443              		@ Volatile: function does not return.
 444              		@ args = 0, pretend = 0, frame = 0
 445              		@ frame_needed = 0, uses_anonymous_args = 0
 446 0000 08B5     		push	{r3, lr}
 447              		.cfi_def_cfa_offset 8
 448              		.cfi_offset 3, -8
 449              		.cfi_offset 14, -4
 194:main.c        ****     CyGlobalIntEnable; /* Enable global interrupts. */
 450              		.loc 1 194 0
 451              		.syntax unified
 452              	@ 194 "main.c" 1
 453 0002 62B6     		CPSIE   i
 454              	@ 0 "" 2
 195:main.c        **** 
 196:main.c        ****     /* Place your initialization/startup code here (e.g. MyInst_Start()) */
 197:main.c        ****     Timer_1_Start();
 455              		.loc 1 197 0
 456              		.thumb
 457              		.syntax unified
 458 0004 FFF7FEFF 		bl	Timer_1_Start
 459              	.LVL17:
 198:main.c        ****     isr_1_StartEx(isr_1_handler);
 460              		.loc 1 198 0
 461 0008 1B48     		ldr	r0, .L41
 462 000a FFF7FEFF 		bl	isr_1_StartEx
 463              	.LVL18:
 199:main.c        ****     isr_3_StartEx(isr_3_handler);
 464              		.loc 1 199 0
 465 000e 1B48     		ldr	r0, .L41+4
 466 0010 FFF7FEFF 		bl	isr_3_StartEx
 467              	.LVL19:
 200:main.c        ****     
 201:main.c        ****     //start comparators
ARM GAS  C:\Users\umasu\AppData\Local\Temp\ccVAKsVb.s 			page 13


 202:main.c        ****     Comp_0_Start();
 468              		.loc 1 202 0
 469 0014 FFF7FEFF 		bl	Comp_0_Start
 470              	.LVL20:
 203:main.c        ****     Comp_1_Start();
 471              		.loc 1 203 0
 472 0018 FFF7FEFF 		bl	Comp_1_Start
 473              	.LVL21:
 204:main.c        ****     Comp_2_Start();
 474              		.loc 1 204 0
 475 001c FFF7FEFF 		bl	Comp_2_Start
 476              	.LVL22:
 205:main.c        ****     Comp_3_Start();
 477              		.loc 1 205 0
 478 0020 FFF7FEFF 		bl	Comp_3_Start
 479              	.LVL23:
 206:main.c        ****     
 207:main.c        ****     /*Start PWM Clk*/
 208:main.c        ****     Clock_PWM_Start(); 
 480              		.loc 1 208 0
 481 0024 FFF7FEFF 		bl	Clock_PWM_Start
 482              	.LVL24:
 209:main.c        ****     //Start PWM
 210:main.c        ****     PWM_1_Start();
 483              		.loc 1 210 0
 484 0028 FFF7FEFF 		bl	PWM_1_Start
 485              	.LVL25:
 211:main.c        ****     PWM_2_Start();
 486              		.loc 1 211 0
 487 002c FFF7FEFF 		bl	PWM_2_Start
 488              	.LVL26:
 212:main.c        ****     
 213:main.c        ****     // write comparision int for MC33926 duty cycle must me larger than 10% and less than 90%
 214:main.c        **** 
 215:main.c        ****     
 216:main.c        ****     PWM_1_WritePeriod(100);
 489              		.loc 1 216 0
 490 0030 6420     		movs	r0, #100
 491 0032 FFF7FEFF 		bl	PWM_1_WritePeriod
 492              	.LVL27:
 217:main.c        ****     PWM_2_WritePeriod(100);
 493              		.loc 1 217 0
 494 0036 6420     		movs	r0, #100
 495 0038 FFF7FEFF 		bl	PWM_2_WritePeriod
 496              	.LVL28:
 218:main.c        ****     
 219:main.c        ****     QuadDec_M1_Start();
 497              		.loc 1 219 0
 498 003c FFF7FEFF 		bl	QuadDec_M1_Start
 499              	.LVL29:
 220:main.c        ****     QuadDec_M2_Start();
 500              		.loc 1 220 0
 501 0040 FFF7FEFF 		bl	QuadDec_M2_Start
 502              	.LVL30:
 503              	.L36:
 221:main.c        ****    
 222:main.c        ****     
ARM GAS  C:\Users\umasu\AppData\Local\Temp\ccVAKsVb.s 			page 14


 223:main.c        ****     
 224:main.c        ****     for(;;)
 225:main.c        ****     {
 226:main.c        ****           //comp0 and comp1 =0  => straight
 227:main.c        ****            //comp2=0 => left
 228:main.c        ****            //comp3=0 => right
 229:main.c        ****            /* Place your application code here. */
 230:main.c        **** //        
 231:main.c        **** //        if(comp2_sum > 0){
 232:main.c        **** //            LED_2_Write(1);
 233:main.c        **** //            while(distance_M1 >= distance_M1+3){
 234:main.c        **** //                goStraight();
 235:main.c        **** //            }
 236:main.c        **** //            stop();
 237:main.c        **** //        }
 238:main.c        ****         
 239:main.c        **** ////   current_encoder_count = abs(QuadDec_M1_GetCounter());     
 240:main.c        **** //        if(abs(QuadDec_M1_GetCounter()) < current_encoder_count+50){
 241:main.c        **** //            goStraight();
 242:main.c        **** //            LED_1_Write(1);
 243:main.c        **** //        }
 244:main.c        **** //        }
 245:main.c        ****             //stop();
 246:main.c        ****       
 247:main.c        **** //        if(comp0_sum>0 && comp1_sum==0){//s_ML out of line
 248:main.c        **** //            PWM_L=PWM_L+1;
 249:main.c        **** //        }else if(comp0_sum==0 && comp1_sum>0){//s_MR out of line
 250:main.c        **** //            PWM_R=PWM_R+1;
 251:main.c        **** //            
 252:main.c        **** //        }else if(comp1_sum==0 && comp0_sum==0){
 253:main.c        **** //            PWM_R=75;
 254:main.c        **** //            PWM_L=76;
 255:main.c        **** //        }
 256:main.c        ****      //***************************// target dis task
 257:main.c        **** //        /target distance task
 258:main.c        **** //        if(distance_M1 >=target_diatance ){// M1 is faster than M2 
 259:main.c        **** //            LED_1_Write(1);
 260:main.c        **** //            stop(); 
 261:main.c        **** //      }else{
 262:main.c        **** //            goStraight();
 263:main.c        **** //        }
 264:main.c        **** //        
 265:main.c        **** //
 266:main.c        **** //        //right wheel
 267:main.c        **** //          PWM_1_WriteCompare(PWM_R);
 268:main.c        **** //       //PWM2 corresponds to left wheel
 269:main.c        **** //          PWM_2_WriteCompare(PWM_L);
 270:main.c        ****         
 271:main.c        ****              //***************************
 272:main.c        ****             
 273:main.c        ****         
 274:main.c        ****         
 275:main.c        ****         
 276:main.c        ****         
 277:main.c        ****         
 278:main.c        ****         
 279:main.c        ****         if (comp2_sum == 0){
ARM GAS  C:\Users\umasu\AppData\Local\Temp\ccVAKsVb.s 			page 15


 504              		.loc 1 279 0
 505 0044 0E4B     		ldr	r3, .L41+8
 506 0046 1B78     		ldrb	r3, [r3]	@ zero_extendqisi2
 507 0048 002B     		cmp	r3, #0
 508 004a FBD1     		bne	.L36
 280:main.c        ****             PWM_1_WriteCompare(70);
 509              		.loc 1 280 0
 510 004c 4620     		movs	r0, #70
 511 004e FFF7FEFF 		bl	PWM_1_WriteCompare
 512              	.LVL31:
 281:main.c        ****             PWM_2_WriteCompare(40);
 513              		.loc 1 281 0
 514 0052 2820     		movs	r0, #40
 515 0054 FFF7FEFF 		bl	PWM_2_WriteCompare
 516              	.LVL32:
 282:main.c        ****             while (comp0_sum>0||comp1_sum>0){
 517              		.loc 1 282 0
 518 0058 05E0     		b	.L37
 519              	.L38:
 283:main.c        ****                 PWM_1_WriteCompare(50);
 520              		.loc 1 283 0
 521 005a 3220     		movs	r0, #50
 522 005c FFF7FEFF 		bl	PWM_1_WriteCompare
 523              	.LVL33:
 284:main.c        ****                 PWM_2_WriteCompare(50);
 524              		.loc 1 284 0
 525 0060 3220     		movs	r0, #50
 526 0062 FFF7FEFF 		bl	PWM_2_WriteCompare
 527              	.LVL34:
 528              	.L37:
 282:main.c        ****             while (comp0_sum>0||comp1_sum>0){
 529              		.loc 1 282 0
 530 0066 074B     		ldr	r3, .L41+12
 531 0068 1B78     		ldrb	r3, [r3]	@ zero_extendqisi2
 532 006a 002B     		cmp	r3, #0
 533 006c F5D1     		bne	.L38
 282:main.c        ****             while (comp0_sum>0||comp1_sum>0){
 534              		.loc 1 282 0 is_stmt 0 discriminator 1
 535 006e 064B     		ldr	r3, .L41+16
 536 0070 1B78     		ldrb	r3, [r3]	@ zero_extendqisi2
 537 0072 002B     		cmp	r3, #0
 538 0074 F1D1     		bne	.L38
 539 0076 E5E7     		b	.L36
 540              	.L42:
 541              		.align	2
 542              	.L41:
 543 0078 00000000 		.word	isr_1_handler
 544 007c 00000000 		.word	isr_3_handler
 545 0080 00000000 		.word	comp2_sum
 546 0084 00000000 		.word	comp0_sum
 547 0088 00000000 		.word	comp1_sum
 548              		.cfi_endproc
 549              	.LFE71:
 550              		.size	main, .-main
 551              		.global	PWM_L
 552              		.global	PWM_R
 553              		.comm	comp3_sum,1,1
ARM GAS  C:\Users\umasu\AppData\Local\Temp\ccVAKsVb.s 			page 16


 554              		.comm	comp2_sum,1,1
 555              		.comm	comp1_sum,1,1
 556              		.comm	comp0_sum,1,1
 557              		.comm	turn_complete,1,1
 558              		.comm	middle_on,1,1
 559              		.comm	right_on,1,1
 560              		.global	left_on
 561              		.global	turn_counter
 562              		.global	count
 563              		.global	counter
 564              		.global	prev_encoder_value_M2
 565              		.global	prev_encoder_value_M1
 566              		.global	encoder_value_sum_M2
 567              		.global	encoder_value_sum_M1
 568              		.global	speed_M2
 569              		.global	speed_M1
 570              		.global	target_diatance
 571              		.global	current_distance_M2
 572              		.global	current_distance_M1
 573              		.global	distance_M2
 574              		.global	distance_M1
 575              		.global	timeInterval_s
 576              		.global	wheelCircumference_cm
 577              		.global	CPR
 578              		.global	encoderCounts_M2
 579              		.global	encoderCounts_M1
 580              		.data
 581              		.align	3
 582              		.set	.LANCHOR1,. + 0
 583              		.type	PWM_L, %object
 584              		.size	PWM_L, 1
 585              	PWM_L:
 586 0000 42       		.byte	66
 587              		.type	PWM_R, %object
 588              		.size	PWM_R, 1
 589              	PWM_R:
 590 0001 41       		.byte	65
 591              		.type	counter, %object
 592              		.size	counter, 1
 593              	counter:
 594 0002 01       		.byte	1
 595 0003 00       		.space	1
 596              		.type	CPR, %object
 597              		.size	CPR, 4
 598              	CPR:
 599 0004 E4000000 		.word	228
 600              		.type	wheelCircumference_cm, %object
 601              		.size	wheelCircumference_cm, 4
 602              	wheelCircumference_cm:
 603 0008 7201A241 		.word	1101136242
 604              		.type	target_diatance, %object
 605              		.size	target_diatance, 4
 606              	target_diatance:
 607 000c 0000C842 		.word	1120403456
 608              		.type	timeInterval_s, %object
 609              		.size	timeInterval_s, 8
 610              	timeInterval_s:
ARM GAS  C:\Users\umasu\AppData\Local\Temp\ccVAKsVb.s 			page 17


 611 0010 0C022B87 		.word	-2027224564
 612 0014 16D92540 		.word	1076222230
 613              		.bss
 614              		.align	2
 615              		.set	.LANCHOR0,. + 0
 616              		.type	turn_counter, %object
 617              		.size	turn_counter, 4
 618              	turn_counter:
 619 0000 00000000 		.space	4
 620              		.type	encoderCounts_M1, %object
 621              		.size	encoderCounts_M1, 4
 622              	encoderCounts_M1:
 623 0004 00000000 		.space	4
 624              		.type	encoderCounts_M2, %object
 625              		.size	encoderCounts_M2, 4
 626              	encoderCounts_M2:
 627 0008 00000000 		.space	4
 628              		.type	prev_encoder_value_M1, %object
 629              		.size	prev_encoder_value_M1, 4
 630              	prev_encoder_value_M1:
 631 000c 00000000 		.space	4
 632              		.type	encoder_value_sum_M1, %object
 633              		.size	encoder_value_sum_M1, 4
 634              	encoder_value_sum_M1:
 635 0010 00000000 		.space	4
 636              		.type	prev_encoder_value_M2, %object
 637              		.size	prev_encoder_value_M2, 4
 638              	prev_encoder_value_M2:
 639 0014 00000000 		.space	4
 640              		.type	encoder_value_sum_M2, %object
 641              		.size	encoder_value_sum_M2, 4
 642              	encoder_value_sum_M2:
 643 0018 00000000 		.space	4
 644              		.type	current_distance_M1, %object
 645              		.size	current_distance_M1, 4
 646              	current_distance_M1:
 647 001c 00000000 		.space	4
 648              		.type	distance_M1, %object
 649              		.size	distance_M1, 4
 650              	distance_M1:
 651 0020 00000000 		.space	4
 652              		.type	distance_M2, %object
 653              		.size	distance_M2, 4
 654              	distance_M2:
 655 0024 00000000 		.space	4
 656              		.type	count, %object
 657              		.size	count, 4
 658              	count:
 659 0028 00000000 		.space	4
 660              		.type	left_on, %object
 661              		.size	left_on, 1
 662              	left_on:
 663 002c 00       		.space	1
 664 002d 000000   		.space	3
 665              		.type	speed_M2, %object
 666              		.size	speed_M2, 4
 667              	speed_M2:
ARM GAS  C:\Users\umasu\AppData\Local\Temp\ccVAKsVb.s 			page 18


 668 0030 00000000 		.space	4
 669              		.type	speed_M1, %object
 670              		.size	speed_M1, 4
 671              	speed_M1:
 672 0034 00000000 		.space	4
 673              		.type	current_distance_M2, %object
 674              		.size	current_distance_M2, 4
 675              	current_distance_M2:
 676 0038 00000000 		.space	4
 677              		.text
 678              	.Letext0:
 679              		.file 2 "c:\\program files (x86)\\cypress\\psoc creator\\4.2\\psoc creator\\import\\gnu\\arm\\5.4.
 680              		.file 3 "c:\\program files (x86)\\cypress\\psoc creator\\4.2\\psoc creator\\import\\gnu\\arm\\5.4.
 681              		.file 4 "Generated_Source\\PSoC5/cytypes.h"
 682              		.file 5 "Generated_Source\\PSoC5/core_cm3.h"
 683              		.file 6 "Generated_Source\\PSoC5/QuadDec_M1.h"
 684              		.file 7 "Generated_Source\\PSoC5/QuadDec_M2.h"
 685              		.file 8 "Generated_Source\\PSoC5/Timer_1.h"
 686              		.file 9 "Generated_Source\\PSoC5/Comp_0.h"
 687              		.file 10 "Generated_Source\\PSoC5/Comp_1.h"
 688              		.file 11 "Generated_Source\\PSoC5/Comp_2.h"
 689              		.file 12 "Generated_Source\\PSoC5/Comp_3.h"
 690              		.file 13 "Generated_Source\\PSoC5/isr_2.h"
 691              		.file 14 "Generated_Source\\PSoC5/isr_1.h"
 692              		.file 15 "Generated_Source\\PSoC5/isr_3.h"
 693              		.file 16 "Generated_Source\\PSoC5/Clock_PWM.h"
 694              		.file 17 "Generated_Source\\PSoC5/PWM_1.h"
 695              		.file 18 "Generated_Source\\PSoC5/PWM_2.h"