ARM GAS  C:\Users\CALEBW~1\AppData\Local\Temp\ccjqYMsY.s 			page 1


   1              		.syntax unified
   2              		.cpu cortex-m3
   3              		.fpu softvfp
   4              		.eabi_attribute 20, 1
   5              		.eabi_attribute 21, 1
   6              		.eabi_attribute 23, 3
   7              		.eabi_attribute 24, 1
   8              		.eabi_attribute 25, 1
   9              		.eabi_attribute 26, 1
  10              		.eabi_attribute 30, 1
  11              		.eabi_attribute 34, 1
  12              		.eabi_attribute 18, 4
  13              		.thumb
  14              		.syntax unified
  15              		.file	"main.c"
  16              		.text
  17              	.Ltext0:
  18              		.cfi_sections	.debug_frame
  19              		.section	.text.stop,"ax",%progbits
  20              		.align	2
  21              		.global	stop
  22              		.thumb
  23              		.thumb_func
  24              		.type	stop, %function
  25              	stop:
  26              	.LFB64:
  27              		.file 1 "main.c"
   1:main.c        **** /* ========================================
   2:main.c        ****  *
   3:main.c        ****  * Copyright YOUR COMPANY, THE YEAR
   4:main.c        ****  * All Rights Reserved
   5:main.c        ****  * UNPUBLISHED, LICENSED SOFTWARE.
   6:main.c        ****  *
   7:main.c        ****  * CONFIDENTIAL AND PROPRIETARY INFORMATION
   8:main.c        ****  * WHICH IS THE PROPERTY OF your company.
   9:main.c        ****  *
  10:main.c        ****  * ========================================
  11:main.c        **** */
  12:main.c        **** #include "project.h"
  13:main.c        **** #include <stdio.h>
  14:main.c        **** #include <string.h>
  15:main.c        **** #include <stdlib.h>
  16:main.c        **** #include <project.h>
  17:main.c        **** #include <stdbool.h>
  18:main.c        **** #include <math.h>
  19:main.c        **** #include <cytypes.h>
  20:main.c        **** #include "cyapicallbacks.h"
  21:main.c        **** 
  22:main.c        **** //distance calculation paras
  23:main.c        **** int32 encoderCounts_M1 = 0;  
  24:main.c        **** int32 encoderCounts_M2 = 0;  
  25:main.c        **** int32 CPR = 228; 
  26:main.c        **** float wheelCircumference_cm = 20.30725;
  27:main.c        **** double timeInterval_ms = 0.01;//10.924
  28:main.c        **** float32  distance_M1 = 0;
  29:main.c        **** float32  distance_M2 = 0;
  30:main.c        **** float32  current_distance_M1 = 0;
ARM GAS  C:\Users\CALEBW~1\AppData\Local\Temp\ccjqYMsY.s 			page 2


  31:main.c        **** float32  current_distance_M2 = 0;
  32:main.c        **** float32 target_diatance = 0;//cm
  33:main.c        **** volatile float32 speed_M1 = 0;
  34:main.c        **** volatile float32 speed_M2 = 0;
  35:main.c        **** int32 encoder_value_sum_M1 = 0;
  36:main.c        **** int32 encoder_value_sum_M2 = 0;
  37:main.c        **** uint8 counter = 1;
  38:main.c        **** bool isTurning=false;
  39:main.c        **** 
  40:main.c        **** typedef enum {
  41:main.c        ****     GO_STRAIGHT,
  42:main.c        ****     TURN_LEFT,
  43:main.c        ****     TURN_RIGHT,
  44:main.c        ****     STOP,
  45:main.c        **** } RobotState;
  46:main.c        **** 
  47:main.c        **** RobotState current_state = STOP;// intialse state
  48:main.c        **** 
  49:main.c        **** // Sout 0 is white and 1 
  50:main.c        **** 
  51:main.c        **** void stop(){
  28              		.loc 1 51 0
  29              		.cfi_startproc
  30              		@ args = 0, pretend = 0, frame = 0
  31              		@ frame_needed = 0, uses_anonymous_args = 0
  32 0000 08B5     		push	{r3, lr}
  33              		.cfi_def_cfa_offset 8
  34              		.cfi_offset 3, -8
  35              		.cfi_offset 14, -4
  52:main.c        ****     PWM_1_WriteCompare(50);
  36              		.loc 1 52 0
  37 0002 3220     		movs	r0, #50
  38 0004 FFF7FEFF 		bl	PWM_1_WriteCompare
  39              	.LVL0:
  53:main.c        ****     PWM_2_WriteCompare(50);
  40              		.loc 1 53 0
  41 0008 3220     		movs	r0, #50
  42 000a FFF7FEFF 		bl	PWM_2_WriteCompare
  43              	.LVL1:
  44 000e 08BD     		pop	{r3, pc}
  45              		.cfi_endproc
  46              	.LFE64:
  47              		.size	stop, .-stop
  48              		.section	.text.turnLeft,"ax",%progbits
  49              		.align	2
  50              		.global	turnLeft
  51              		.thumb
  52              		.thumb_func
  53              		.type	turnLeft, %function
  54              	turnLeft:
  55              	.LFB65:
  54:main.c        **** }
  55:main.c        **** void turnLeft(){
  56              		.loc 1 55 0
  57              		.cfi_startproc
  58              		@ args = 0, pretend = 0, frame = 0
  59              		@ frame_needed = 0, uses_anonymous_args = 0
ARM GAS  C:\Users\CALEBW~1\AppData\Local\Temp\ccjqYMsY.s 			page 3


  60 0000 08B5     		push	{r3, lr}
  61              		.cfi_def_cfa_offset 8
  62              		.cfi_offset 3, -8
  63              		.cfi_offset 14, -4
  56:main.c        ****     PWM_1_WriteCompare(65);
  64              		.loc 1 56 0
  65 0002 4120     		movs	r0, #65
  66 0004 FFF7FEFF 		bl	PWM_1_WriteCompare
  67              	.LVL2:
  57:main.c        ****     PWM_2_WriteCompare(50);
  68              		.loc 1 57 0
  69 0008 3220     		movs	r0, #50
  70 000a FFF7FEFF 		bl	PWM_2_WriteCompare
  71              	.LVL3:
  72              	.L4:
  58:main.c        ****     while((Sout_Left_Read()==0) || Sout_MidLeft_Read() ==1){
  73              		.loc 1 58 0 discriminator 3
  74 000e FFF7FEFF 		bl	Sout_Left_Read
  75              	.LVL4:
  76 0012 0028     		cmp	r0, #0
  77 0014 FBD0     		beq	.L4
  78              		.loc 1 58 0 is_stmt 0 discriminator 2
  79 0016 FFF7FEFF 		bl	Sout_MidLeft_Read
  80              	.LVL5:
  81 001a 0128     		cmp	r0, #1
  82 001c F7D0     		beq	.L4
  83 001e 07E0     		b	.L6
  84              	.L8:
  59:main.c        ****         ;;
  60:main.c        ****     }
  61:main.c        **** //    while(Sout_M2_Read()==1){
  62:main.c        **** //        ;;
  63:main.c        **** //    }
  64:main.c        ****     
  65:main.c        ****     while(Sout_MidLeft_Read()==0){
  66:main.c        ****         stop();
  85              		.loc 1 66 0 is_stmt 1
  86 0020 FFF7FEFF 		bl	stop
  87              	.LVL6:
  67:main.c        ****         CyDelay(50);
  88              		.loc 1 67 0
  89 0024 3220     		movs	r0, #50
  90 0026 FFF7FEFF 		bl	CyDelay
  91              	.LVL7:
  68:main.c        ****         if( Sout_MidLeft_Read() == 0){
  92              		.loc 1 68 0
  93 002a FFF7FEFF 		bl	Sout_MidLeft_Read
  94              	.LVL8:
  95 002e 18B1     		cbz	r0, .L7
  96              	.L6:
  65:main.c        ****         stop();
  97              		.loc 1 65 0
  98 0030 FFF7FEFF 		bl	Sout_MidLeft_Read
  99              	.LVL9:
 100 0034 0028     		cmp	r0, #0
 101 0036 F3D0     		beq	.L8
 102              	.L7:
ARM GAS  C:\Users\CALEBW~1\AppData\Local\Temp\ccjqYMsY.s 			page 4


  69:main.c        ****             break;
  70:main.c        ****         }
  71:main.c        ****     }
  72:main.c        ****     if(Sout_MidRight_Read()==0 || Sout_MidLeft_Read()==0){
 103              		.loc 1 72 0
 104 0038 FFF7FEFF 		bl	Sout_MidRight_Read
 105              	.LVL10:
 106 003c 10B1     		cbz	r0, .L9
 107              		.loc 1 72 0 is_stmt 0 discriminator 1
 108 003e FFF7FEFF 		bl	Sout_MidLeft_Read
 109              	.LVL11:
 110 0042 80B9     		cbnz	r0, .L3
 111              	.L9:
  73:main.c        ****        isTurning=false;
 112              		.loc 1 73 0 is_stmt 1
 113 0044 0023     		movs	r3, #0
 114 0046 084A     		ldr	r2, .L12
 115 0048 1370     		strb	r3, [r2]
  74:main.c        ****        current_state=GO_STRAIGHT;
 116              		.loc 1 74 0
 117 004a 084A     		ldr	r2, .L12+4
 118 004c 1370     		strb	r3, [r2]
  75:main.c        ****        stop();
 119              		.loc 1 75 0
 120 004e FFF7FEFF 		bl	stop
 121              	.LVL12:
  76:main.c        ****        CyDelay(1000);
 122              		.loc 1 76 0
 123 0052 4FF47A70 		mov	r0, #1000
 124 0056 FFF7FEFF 		bl	CyDelay
 125              	.LVL13:
  77:main.c        ****        PWM_1_WriteCompare(65);
 126              		.loc 1 77 0
 127 005a 4120     		movs	r0, #65
 128 005c FFF7FEFF 		bl	PWM_1_WriteCompare
 129              	.LVL14:
  78:main.c        ****        PWM_2_WriteCompare(60);
 130              		.loc 1 78 0
 131 0060 3C20     		movs	r0, #60
 132 0062 FFF7FEFF 		bl	PWM_2_WriteCompare
 133              	.LVL15:
 134              	.L3:
 135 0066 08BD     		pop	{r3, pc}
 136              	.L13:
 137              		.align	2
 138              	.L12:
 139 0068 00000000 		.word	.LANCHOR0
 140 006c 00000000 		.word	.LANCHOR1
 141              		.cfi_endproc
 142              	.LFE65:
 143              		.size	turnLeft, .-turnLeft
 144              		.section	.text.turnRight,"ax",%progbits
 145              		.align	2
 146              		.global	turnRight
 147              		.thumb
 148              		.thumb_func
 149              		.type	turnRight, %function
ARM GAS  C:\Users\CALEBW~1\AppData\Local\Temp\ccjqYMsY.s 			page 5


 150              	turnRight:
 151              	.LFB66:
  79:main.c        ****     }
  80:main.c        ****     
  81:main.c        **** }
  82:main.c        **** void turnRight(){
 152              		.loc 1 82 0
 153              		.cfi_startproc
 154              		@ args = 0, pretend = 0, frame = 0
 155              		@ frame_needed = 0, uses_anonymous_args = 0
 156 0000 08B5     		push	{r3, lr}
 157              		.cfi_def_cfa_offset 8
 158              		.cfi_offset 3, -8
 159              		.cfi_offset 14, -4
  83:main.c        ****     PWM_1_WriteCompare(50);
 160              		.loc 1 83 0
 161 0002 3220     		movs	r0, #50
 162 0004 FFF7FEFF 		bl	PWM_1_WriteCompare
 163              	.LVL16:
  84:main.c        ****     PWM_2_WriteCompare(70);
 164              		.loc 1 84 0
 165 0008 4620     		movs	r0, #70
 166 000a FFF7FEFF 		bl	PWM_2_WriteCompare
 167              	.LVL17:
 168              	.L15:
  85:main.c        ****      while((Sout_Right_Read()==0) || Sout_MidLeft_Read() == 1){
 169              		.loc 1 85 0 discriminator 3
 170 000e FFF7FEFF 		bl	Sout_Right_Read
 171              	.LVL18:
 172 0012 0028     		cmp	r0, #0
 173 0014 FBD0     		beq	.L15
 174              		.loc 1 85 0 is_stmt 0 discriminator 2
 175 0016 FFF7FEFF 		bl	Sout_MidLeft_Read
 176              	.LVL19:
 177 001a 0128     		cmp	r0, #1
 178 001c F7D0     		beq	.L15
 179 001e 0BE0     		b	.L17
 180              	.L19:
  86:main.c        ****         ;;
  87:main.c        ****     }
  88:main.c        **** //    while(Sout_M2_Read()==1){
  89:main.c        **** //        ;;
  90:main.c        **** //    }
  91:main.c        **** //    
  92:main.c        ****     while(Sout_MidRight_Read()==0){
  93:main.c        ****         PWM_1_WriteCompare(50);
 181              		.loc 1 93 0 is_stmt 1
 182 0020 3220     		movs	r0, #50
 183 0022 FFF7FEFF 		bl	PWM_1_WriteCompare
 184              	.LVL20:
  94:main.c        ****         PWM_2_WriteCompare(50);
 185              		.loc 1 94 0
 186 0026 3220     		movs	r0, #50
 187 0028 FFF7FEFF 		bl	PWM_2_WriteCompare
 188              	.LVL21:
  95:main.c        ****         CyDelay(50);
 189              		.loc 1 95 0
ARM GAS  C:\Users\CALEBW~1\AppData\Local\Temp\ccjqYMsY.s 			page 6


 190 002c 3220     		movs	r0, #50
 191 002e FFF7FEFF 		bl	CyDelay
 192              	.LVL22:
  96:main.c        ****         if( Sout_MidLeft_Read() == 0){
 193              		.loc 1 96 0
 194 0032 FFF7FEFF 		bl	Sout_MidLeft_Read
 195              	.LVL23:
 196 0036 18B1     		cbz	r0, .L18
 197              	.L17:
  92:main.c        ****         PWM_1_WriteCompare(50);
 198              		.loc 1 92 0
 199 0038 FFF7FEFF 		bl	Sout_MidRight_Read
 200              	.LVL24:
 201 003c 0028     		cmp	r0, #0
 202 003e EFD0     		beq	.L19
 203              	.L18:
  97:main.c        ****             break;
  98:main.c        ****         }
  99:main.c        ****     }
 100:main.c        ****     if(Sout_MidRight_Read()==0 || Sout_MidLeft_Read()==0){
 204              		.loc 1 100 0
 205 0040 FFF7FEFF 		bl	Sout_MidRight_Read
 206              	.LVL25:
 207 0044 10B1     		cbz	r0, .L20
 208              		.loc 1 100 0 is_stmt 0 discriminator 1
 209 0046 FFF7FEFF 		bl	Sout_MidLeft_Read
 210              	.LVL26:
 211 004a 80B9     		cbnz	r0, .L14
 212              	.L20:
 101:main.c        ****        isTurning=false;
 213              		.loc 1 101 0 is_stmt 1
 214 004c 0023     		movs	r3, #0
 215 004e 084A     		ldr	r2, .L23
 216 0050 1370     		strb	r3, [r2]
 102:main.c        ****        current_state=GO_STRAIGHT;
 217              		.loc 1 102 0
 218 0052 084A     		ldr	r2, .L23+4
 219 0054 1370     		strb	r3, [r2]
 103:main.c        ****        stop();
 220              		.loc 1 103 0
 221 0056 FFF7FEFF 		bl	stop
 222              	.LVL27:
 104:main.c        ****        CyDelay(1000);
 223              		.loc 1 104 0
 224 005a 4FF47A70 		mov	r0, #1000
 225 005e FFF7FEFF 		bl	CyDelay
 226              	.LVL28:
 105:main.c        ****        PWM_1_WriteCompare(60);
 227              		.loc 1 105 0
 228 0062 3C20     		movs	r0, #60
 229 0064 FFF7FEFF 		bl	PWM_1_WriteCompare
 230              	.LVL29:
 106:main.c        ****        PWM_2_WriteCompare(61);
 231              		.loc 1 106 0
 232 0068 3D20     		movs	r0, #61
 233 006a FFF7FEFF 		bl	PWM_2_WriteCompare
 234              	.LVL30:
ARM GAS  C:\Users\CALEBW~1\AppData\Local\Temp\ccjqYMsY.s 			page 7


 235              	.L14:
 236 006e 08BD     		pop	{r3, pc}
 237              	.L24:
 238              		.align	2
 239              	.L23:
 240 0070 00000000 		.word	.LANCHOR0
 241 0074 00000000 		.word	.LANCHOR1
 242              		.cfi_endproc
 243              	.LFE66:
 244              		.size	turnRight, .-turnRight
 245              		.global	__aeabi_fcmpge
 246              		.section	.text.goStraight,"ax",%progbits
 247              		.align	2
 248              		.global	goStraight
 249              		.thumb
 250              		.thumb_func
 251              		.type	goStraight, %function
 252              	goStraight:
 253              	.LFB67:
 107:main.c        ****     }
 108:main.c        **** }
 109:main.c        ****     
 110:main.c        **** 
 111:main.c        **** 
 112:main.c        **** void goStraight(){
 254              		.loc 1 112 0
 255              		.cfi_startproc
 256              		@ args = 0, pretend = 0, frame = 0
 257              		@ frame_needed = 0, uses_anonymous_args = 0
 258 0000 08B5     		push	{r3, lr}
 259              		.cfi_def_cfa_offset 8
 260              		.cfi_offset 3, -8
 261              		.cfi_offset 14, -4
 113:main.c        ****     
 114:main.c        ****     if (Sout_MidRight_Read() == 0 && Sout_MidLeft_Read() > 0){
 262              		.loc 1 114 0
 263 0002 FFF7FEFF 		bl	Sout_MidRight_Read
 264              	.LVL31:
 265 0006 C8B9     		cbnz	r0, .L26
 266              		.loc 1 114 0 is_stmt 0 discriminator 1
 267 0008 FFF7FEFF 		bl	Sout_MidLeft_Read
 268              	.LVL32:
 269 000c B0B1     		cbz	r0, .L26
 115:main.c        ****         if (speed_M1 >= 5){
 270              		.loc 1 115 0 is_stmt 1
 271 000e 184B     		ldr	r3, .L37
 272 0010 5868     		ldr	r0, [r3, #4]	@ float
 273 0012 1849     		ldr	r1, .L37+4
 274 0014 FFF7FEFF 		bl	__aeabi_fcmpge
 275              	.LVL33:
 276 0018 30B1     		cbz	r0, .L35
 116:main.c        ****             PWM_2_WriteCompare(PWM_2_ReadCompare() -1);
 277              		.loc 1 116 0
 278 001a FFF7FEFF 		bl	PWM_2_ReadCompare
 279              	.LVL34:
 280 001e 0138     		subs	r0, r0, #1
 281 0020 C0B2     		uxtb	r0, r0
ARM GAS  C:\Users\CALEBW~1\AppData\Local\Temp\ccjqYMsY.s 			page 8


 282 0022 FFF7FEFF 		bl	PWM_2_WriteCompare
 283              	.LVL35:
 284 0026 05E0     		b	.L29
 285              	.L35:
 117:main.c        ****         }
 118:main.c        ****         else {
 119:main.c        ****          PWM_1_WriteCompare(PWM_1_ReadCompare()+ 1);   
 286              		.loc 1 119 0
 287 0028 FFF7FEFF 		bl	PWM_1_ReadCompare
 288              	.LVL36:
 289 002c 0130     		adds	r0, r0, #1
 290 002e C0B2     		uxtb	r0, r0
 291 0030 FFF7FEFF 		bl	PWM_1_WriteCompare
 292              	.LVL37:
 293              	.L29:
 120:main.c        ****         }
 121:main.c        ****         speed_M1;
 294              		.loc 1 121 0
 295 0034 0E4B     		ldr	r3, .L37
 296 0036 5A68     		ldr	r2, [r3, #4]	@ float
 122:main.c        ****         speed_M2;
 297              		.loc 1 122 0
 298 0038 9B68     		ldr	r3, [r3, #8]	@ float
 299 003a 08BD     		pop	{r3, pc}
 300              	.L26:
 123:main.c        ****     } else if (Sout_MidRight_Read() > 0 && Sout_MidLeft_Read() == 0){
 301              		.loc 1 123 0
 302 003c FFF7FEFF 		bl	Sout_MidRight_Read
 303              	.LVL38:
 304 0040 78B1     		cbz	r0, .L31
 305              		.loc 1 123 0 is_stmt 0 discriminator 1
 306 0042 FFF7FEFF 		bl	Sout_MidLeft_Read
 307              	.LVL39:
 308 0046 60B9     		cbnz	r0, .L31
 124:main.c        ****         if (speed_M2 >= 5)
 309              		.loc 1 124 0 is_stmt 1
 310 0048 094B     		ldr	r3, .L37
 311 004a 9868     		ldr	r0, [r3, #8]	@ float
 312 004c 0949     		ldr	r1, .L37+4
 313 004e FFF7FEFF 		bl	__aeabi_fcmpge
 314              	.LVL40:
 315 0052 60B1     		cbz	r0, .L25
 125:main.c        ****         PWM_1_WriteCompare(PWM_1_ReadCompare() -1);
 316              		.loc 1 125 0
 317 0054 FFF7FEFF 		bl	PWM_1_ReadCompare
 318              	.LVL41:
 319 0058 0138     		subs	r0, r0, #1
 320 005a C0B2     		uxtb	r0, r0
 321 005c FFF7FEFF 		bl	PWM_1_WriteCompare
 322              	.LVL42:
 323 0060 08BD     		pop	{r3, pc}
 324              	.L31:
 126:main.c        ****     }
 127:main.c        ****     else {
 128:main.c        ****          PWM_2_WriteCompare(PWM_2_ReadCompare()+ 1);   
 325              		.loc 1 128 0
 326 0062 FFF7FEFF 		bl	PWM_2_ReadCompare
ARM GAS  C:\Users\CALEBW~1\AppData\Local\Temp\ccjqYMsY.s 			page 9


 327              	.LVL43:
 328 0066 0130     		adds	r0, r0, #1
 329 0068 C0B2     		uxtb	r0, r0
 330 006a FFF7FEFF 		bl	PWM_2_WriteCompare
 331              	.LVL44:
 332              	.L25:
 333 006e 08BD     		pop	{r3, pc}
 334              	.L38:
 335              		.align	2
 336              	.L37:
 337 0070 00000000 		.word	.LANCHOR0
 338 0074 0000A040 		.word	1084227584
 339              		.cfi_endproc
 340              	.LFE67:
 341              		.size	goStraight, .-goStraight
 342              		.section	.text.go_distance,"ax",%progbits
 343              		.align	2
 344              		.global	go_distance
 345              		.thumb
 346              		.thumb_func
 347              		.type	go_distance, %function
 348              	go_distance:
 349              	.LFB68:
 129:main.c        ****         }
 130:main.c        **** 
 131:main.c        ****     
 132:main.c        ****     
 133:main.c        **** ////    //comp0==>middle left comp1==>middle right
 134:main.c        **** //    if(comp0_sum>0 && comp1_sum==0){//s_ML out of line
 135:main.c        **** ////        
 136:main.c        **** //            PWM_2_WriteCompare(PWM_2_ReadCompare() +1);
 137:main.c        **** ////        }
 138:main.c        **** //    }else if(comp0_sum==0 && comp1_sum>0){//s_MR out of line
 139:main.c        **** ////
 140:main.c        **** //            PWM_1_WriteCompare(PWM_1_ReadCompare() +1);
 141:main.c        **** ////        }
 142:main.c        **** //    }else if(comp1_sum==0 && comp0_sum==0){
 143:main.c        **** //        PWM_1_WriteCompare(65);
 144:main.c        **** //        PWM_2_WriteCompare(66);
 145:main.c        **** //    }
 146:main.c        **** //    if (speed_M1 > speed_M2){
 147:main.c        **** //     if (PWM_1_ReadCompare() >=80){
 148:main.c        **** //        PWM_1_WriteCompare(PWM_1_ReadCompare()-5);   
 149:main.c        **** //    }
 150:main.c        **** //    else{
 151:main.c        **** //        PWM_2_WriteCompare(PWM_2_ReadCompare()+5);
 152:main.c        **** //    }
 153:main.c        **** // }
 154:main.c        **** //    else if (speed_M1 < speed_M2){
 155:main.c        **** //        if (PWM_2_ReadCompare() >=80){
 156:main.c        **** //        PWM_2_WriteCompare(PWM_2_ReadCompare()-5);   
 157:main.c        **** //    }else{
 158:main.c        **** //        PWM_1_WriteCompare(PWM_1_ReadCompare()+5);
 159:main.c        **** //    }
 160:main.c        **** //    }
 161:main.c        **** //    else {}
 162:main.c        **** //        if(comp0_sum>0 && comp1_sum==0){//s_ML out of line
ARM GAS  C:\Users\CALEBW~1\AppData\Local\Temp\ccjqYMsY.s 			page 10


 163:main.c        **** ////        
 164:main.c        **** //            //PWM_2_WriteCompare(PWM_2_ReadCompare() +1);
 165:main.c        **** //            if (speed_M1 < speed_M2){
 166:main.c        **** //                if (speed_M1 >= 30){
 167:main.c        **** //                    PWM_1_WriteCompare(PWM_1_ReadCompare() -5);
 168:main.c        **** //                }
 169:main.c        **** //                else{
 170:main.c        **** //                    PWM_1_WriteCompare(PWM_1_ReadCompare() + 5);
 171:main.c        **** //                }
 172:main.c        **** //            }else {
 173:main.c        **** //                if (speed_M2 >= 30){
 174:main.c        **** //                    PWM_2_WriteCompare(PWM_2_ReadCompare() -5);
 175:main.c        **** //                }
 176:main.c        **** //                else{
 177:main.c        **** //                    PWM_2_WriteCompare(PWM_2_ReadCompare() + 5);
 178:main.c        **** //                }
 179:main.c        **** //            }
 180:main.c        **** //            
 181:main.c        **** //          
 182:main.c        **** //            
 183:main.c        **** ////        }
 184:main.c        **** //    }else if(comp0_sum==0 && comp1_sum>0){//s_MR out of line
 185:main.c        **** ////
 186:main.c        **** //            if (speed_M1 < speed_M2){
 187:main.c        **** //                if (speed_M1 >= 30){
 188:main.c        **** //                    PWM_1_WriteCompare(PWM_1_ReadCompare() -5);
 189:main.c        **** //                }
 190:main.c        **** //                else{
 191:main.c        **** //                    PWM_1_WriteCompare(PWM_1_ReadCompare() + 5);
 192:main.c        **** //                }
 193:main.c        **** //            }else {
 194:main.c        **** //                if (speed_M2 >= 30){
 195:main.c        **** //                    PWM_2_WriteCompare(PWM_2_ReadCompare() -5);
 196:main.c        **** //                }
 197:main.c        **** //                else{
 198:main.c        **** //                    PWM_2_WriteCompare(PWM_2_ReadCompare() + 5);
 199:main.c        **** //                }
 200:main.c        **** //            }
 201:main.c        **** ////        }
 202:main.c        **** //    }else if(comp1_sum==0 && comp0_sum==0){
 203:main.c        **** //        ;
 204:main.c        **** //    }
 205:main.c        **** //        
 206:main.c        **** }
 207:main.c        ****      
 208:main.c        **** void go_distance(float32 distance){
 350              		.loc 1 208 0
 351              		.cfi_startproc
 352              		@ args = 0, pretend = 0, frame = 0
 353              		@ frame_needed = 0, uses_anonymous_args = 0
 354              		@ link register save eliminated.
 355              	.LVL45:
 209:main.c        ****     distance_M1=0;
 356              		.loc 1 209 0
 357 0000 024B     		ldr	r3, .L40
 358 0002 0022     		movs	r2, #0
 359 0004 DA60     		str	r2, [r3, #12]	@ float
ARM GAS  C:\Users\CALEBW~1\AppData\Local\Temp\ccjqYMsY.s 			page 11


 210:main.c        ****     target_diatance=distance;
 360              		.loc 1 210 0
 361 0006 1861     		str	r0, [r3, #16]	@ float
 362 0008 7047     		bx	lr
 363              	.L41:
 364 000a 00BF     		.align	2
 365              	.L40:
 366 000c 00000000 		.word	.LANCHOR0
 367              		.cfi_endproc
 368              	.LFE68:
 369              		.size	go_distance, .-go_distance
 370              		.section	.text.main,"ax",%progbits
 371              		.align	2
 372              		.global	main
 373              		.thumb
 374              		.thumb_func
 375              		.type	main, %function
 376              	main:
 377              	.LFB69:
 211:main.c        **** }
 212:main.c        **** 
 213:main.c        **** 
 214:main.c        **** 
 215:main.c        **** 
 216:main.c        **** int main(void)
 217:main.c        **** {
 378              		.loc 1 217 0
 379              		.cfi_startproc
 380              		@ Volatile: function does not return.
 381              		@ args = 0, pretend = 0, frame = 0
 382              		@ frame_needed = 0, uses_anonymous_args = 0
 383 0000 08B5     		push	{r3, lr}
 384              		.cfi_def_cfa_offset 8
 385              		.cfi_offset 3, -8
 386              		.cfi_offset 14, -4
 218:main.c        ****     CyGlobalIntEnable; /* Enable global interrupts. */
 387              		.loc 1 218 0
 388              		.syntax unified
 389              	@ 218 "main.c" 1
 390 0002 62B6     		CPSIE   i
 391              	@ 0 "" 2
 219:main.c        ****     Timer_1_Start();
 392              		.loc 1 219 0
 393              		.thumb
 394              		.syntax unified
 395 0004 FFF7FEFF 		bl	Timer_1_Start
 396              	.LVL46:
 220:main.c        ****     
 221:main.c        ****     Comp_0_Start();
 397              		.loc 1 221 0
 398 0008 FFF7FEFF 		bl	Comp_0_Start
 399              	.LVL47:
 222:main.c        ****     Comp_1_Start();
 400              		.loc 1 222 0
 401 000c FFF7FEFF 		bl	Comp_1_Start
 402              	.LVL48:
 223:main.c        ****     Comp_2_Start();
ARM GAS  C:\Users\CALEBW~1\AppData\Local\Temp\ccjqYMsY.s 			page 12


 403              		.loc 1 223 0
 404 0010 FFF7FEFF 		bl	Comp_2_Start
 405              	.LVL49:
 224:main.c        ****     Comp_3_Start();
 406              		.loc 1 224 0
 407 0014 FFF7FEFF 		bl	Comp_3_Start
 408              	.LVL50:
 225:main.c        ****     
 226:main.c        ****     PWM_1_WritePeriod(100);
 409              		.loc 1 226 0
 410 0018 6420     		movs	r0, #100
 411 001a FFF7FEFF 		bl	PWM_1_WritePeriod
 412              	.LVL51:
 227:main.c        ****     PWM_2_WritePeriod(100);
 413              		.loc 1 227 0
 414 001e 6420     		movs	r0, #100
 415 0020 FFF7FEFF 		bl	PWM_2_WritePeriod
 416              	.LVL52:
 228:main.c        ****     PWM_1_WriteCompare(55);
 417              		.loc 1 228 0
 418 0024 3720     		movs	r0, #55
 419 0026 FFF7FEFF 		bl	PWM_1_WriteCompare
 420              	.LVL53:
 229:main.c        ****     PWM_2_WriteCompare(56);
 421              		.loc 1 229 0
 422 002a 3820     		movs	r0, #56
 423 002c FFF7FEFF 		bl	PWM_2_WriteCompare
 424              	.LVL54:
 230:main.c        ****     Clock_PWM_Start(); 
 425              		.loc 1 230 0
 426 0030 FFF7FEFF 		bl	Clock_PWM_Start
 427              	.LVL55:
 231:main.c        ****     PWM_1_Start();
 428              		.loc 1 231 0
 429 0034 FFF7FEFF 		bl	PWM_1_Start
 430              	.LVL56:
 232:main.c        ****     PWM_2_Start();
 431              		.loc 1 232 0
 432 0038 FFF7FEFF 		bl	PWM_2_Start
 433              	.LVL57:
 233:main.c        ****     
 234:main.c        ****     QuadDec_M1_Start();
 434              		.loc 1 234 0
 435 003c FFF7FEFF 		bl	QuadDec_M1_Start
 436              	.LVL58:
 235:main.c        ****     QuadDec_M2_Start();
 437              		.loc 1 235 0
 438 0040 FFF7FEFF 		bl	QuadDec_M2_Start
 439              	.LVL59:
 440 0044 3AE0     		b	.L43
 441              	.L49:
 236:main.c        ****     /* Place your initialization/startup code here (e.g. MyInst_Start()) */
 237:main.c        **** 
 238:main.c        ****     for(;;)
 239:main.c        ****     {
 240:main.c        ****         /* Place your application code here. */
 241:main.c        ****         while(!isTurning){
ARM GAS  C:\Users\CALEBW~1\AppData\Local\Temp\ccjqYMsY.s 			page 13


 242:main.c        ****           if (((Sout_MidRight_Read() == 0) || (Sout_MidLeft_Read() == 0)) && ((Sout_Left_Read()) > 
 442              		.loc 1 242 0
 443 0046 FFF7FEFF 		bl	Sout_MidRight_Read
 444              	.LVL60:
 445 004a 10B1     		cbz	r0, .L44
 446              		.loc 1 242 0 is_stmt 0 discriminator 2
 447 004c FFF7FEFF 		bl	Sout_MidLeft_Read
 448              	.LVL61:
 449 0050 50B9     		cbnz	r0, .L45
 450              	.L44:
 451              		.loc 1 242 0 discriminator 3
 452 0052 FFF7FEFF 		bl	Sout_Left_Read
 453              	.LVL62:
 454 0056 0128     		cmp	r0, #1
 455 0058 06D9     		bls	.L45
 456              		.loc 1 242 0 discriminator 4
 457 005a FFF7FEFF 		bl	Sout_Right_Read
 458              	.LVL63:
 459 005e 18B1     		cbz	r0, .L45
 243:main.c        ****             current_state = GO_STRAIGHT;
 460              		.loc 1 243 0 is_stmt 1
 461 0060 0022     		movs	r2, #0
 462 0062 2B4B     		ldr	r3, .L58
 463 0064 1A70     		strb	r2, [r3]
 464 0066 29E0     		b	.L43
 465              	.L45:
 244:main.c        ****         } else if(Sout_Left_Read() == 0){
 466              		.loc 1 244 0
 467 0068 FFF7FEFF 		bl	Sout_Left_Read
 468              	.LVL64:
 469 006c 78B9     		cbnz	r0, .L47
 245:main.c        ****             stop();
 470              		.loc 1 245 0
 471 006e FFF7FEFF 		bl	stop
 472              	.LVL65:
 246:main.c        ****             CyDelay(200);
 473              		.loc 1 246 0
 474 0072 C820     		movs	r0, #200
 475 0074 FFF7FEFF 		bl	CyDelay
 476              	.LVL66:
 247:main.c        ****             if (Sout_Left_Read() == 0){
 477              		.loc 1 247 0
 478 0078 FFF7FEFF 		bl	Sout_Left_Read
 479              	.LVL67:
 480 007c F0B9     		cbnz	r0, .L43
 248:main.c        ****                 current_state = TURN_LEFT;
 481              		.loc 1 248 0
 482 007e 0124     		movs	r4, #1
 483 0080 234B     		ldr	r3, .L58
 484 0082 1C70     		strb	r4, [r3]
 249:main.c        ****                 QuadDec_M1_SetCounter(0);
 485              		.loc 1 249 0
 486 0084 FFF7FEFF 		bl	QuadDec_M1_SetCounter
 487              	.LVL68:
 250:main.c        ****                 isTurning=true;
 488              		.loc 1 250 0
 489 0088 224B     		ldr	r3, .L58+4
ARM GAS  C:\Users\CALEBW~1\AppData\Local\Temp\ccjqYMsY.s 			page 14


 490 008a 1C70     		strb	r4, [r3]
 491 008c 16E0     		b	.L43
 492              	.L47:
 251:main.c        ****             }
 252:main.c        ****         } else if (Sout_Right_Read() == 0){
 493              		.loc 1 252 0
 494 008e FFF7FEFF 		bl	Sout_Right_Read
 495              	.LVL69:
 496 0092 80B9     		cbnz	r0, .L48
 253:main.c        ****             stop();
 497              		.loc 1 253 0
 498 0094 FFF7FEFF 		bl	stop
 499              	.LVL70:
 254:main.c        ****             CyDelay(200);
 500              		.loc 1 254 0
 501 0098 C820     		movs	r0, #200
 502 009a FFF7FEFF 		bl	CyDelay
 503              	.LVL71:
 255:main.c        ****             if(Sout_Right_Read() == 0){
 504              		.loc 1 255 0
 505 009e FFF7FEFF 		bl	Sout_Right_Read
 506              	.LVL72:
 507 00a2 58B9     		cbnz	r0, .L43
 256:main.c        ****                 current_state = TURN_RIGHT;
 508              		.loc 1 256 0
 509 00a4 0222     		movs	r2, #2
 510 00a6 1A4B     		ldr	r3, .L58
 511 00a8 1A70     		strb	r2, [r3]
 257:main.c        ****                 QuadDec_M2_SetCounter(0);//reset 
 512              		.loc 1 257 0
 513 00aa FFF7FEFF 		bl	QuadDec_M2_SetCounter
 514              	.LVL73:
 258:main.c        ****                 isTurning=true;
 515              		.loc 1 258 0
 516 00ae 0122     		movs	r2, #1
 517 00b0 184B     		ldr	r3, .L58+4
 518 00b2 1A70     		strb	r2, [r3]
 519 00b4 02E0     		b	.L43
 520              	.L48:
 259:main.c        ****             }
 260:main.c        ****         } else {
 261:main.c        ****            current_state = STOP; 
 521              		.loc 1 261 0
 522 00b6 0322     		movs	r2, #3
 523 00b8 154B     		ldr	r3, .L58
 524 00ba 1A70     		strb	r2, [r3]
 525              	.L43:
 241:main.c        ****           if (((Sout_MidRight_Read() == 0) || (Sout_MidLeft_Read() == 0)) && ((Sout_Left_Read()) > 
 526              		.loc 1 241 0
 527 00bc 154B     		ldr	r3, .L58+4
 528 00be 1B78     		ldrb	r3, [r3]	@ zero_extendqisi2
 529 00c0 002B     		cmp	r3, #0
 530 00c2 C0D0     		beq	.L49
 262:main.c        ****         }
 263:main.c        ****         
 264:main.c        ****         }
 265:main.c        ****         switch (current_state) {
ARM GAS  C:\Users\CALEBW~1\AppData\Local\Temp\ccjqYMsY.s 			page 15


 531              		.loc 1 265 0
 532 00c4 124B     		ldr	r3, .L58
 533 00c6 1B78     		ldrb	r3, [r3]	@ zero_extendqisi2
 534 00c8 032B     		cmp	r3, #3
 535 00ca F7D8     		bhi	.L43
 536 00cc DFE803F0 		tbb	[pc, r3]
 537              	.L51:
 538 00d0 02       		.byte	(.L50-.L51)/2
 539 00d1 07       		.byte	(.L52-.L51)/2
 540 00d2 11       		.byte	(.L53-.L51)/2
 541 00d3 19       		.byte	(.L54-.L51)/2
 542              		.p2align 1
 543              	.L50:
 266:main.c        ****             case GO_STRAIGHT:
 267:main.c        ****                 goStraight();
 544              		.loc 1 267 0
 545 00d4 FFF7FEFF 		bl	goStraight
 546              	.LVL74:
 268:main.c        ****                 break;
 547              		.loc 1 268 0
 548 00d8 F0E7     		b	.L43
 549              	.L55:
 269:main.c        ****             case TURN_LEFT:
 270:main.c        ****                 while(isTurning){//keep turning until QuadDec value reached
 271:main.c        ****                     turnLeft();
 550              		.loc 1 271 0
 551 00da FFF7FEFF 		bl	turnLeft
 552              	.LVL75:
 553              	.L52:
 270:main.c        ****                     turnLeft();
 554              		.loc 1 270 0
 555 00de 0D4B     		ldr	r3, .L58+4
 556 00e0 1B78     		ldrb	r3, [r3]	@ zero_extendqisi2
 557 00e2 002B     		cmp	r3, #0
 558 00e4 F9D1     		bne	.L55
 272:main.c        ****                 };
 273:main.c        ****                 current_state=STOP;
 559              		.loc 1 273 0
 560 00e6 0322     		movs	r2, #3
 561 00e8 094B     		ldr	r3, .L58
 562 00ea 1A70     		strb	r2, [r3]
 274:main.c        ****                 break;    
 563              		.loc 1 274 0
 564 00ec E6E7     		b	.L43
 565              	.L56:
 275:main.c        ****             case TURN_RIGHT:
 276:main.c        ****                 while(isTurning){
 277:main.c        ****                     turnRight();
 566              		.loc 1 277 0
 567 00ee FFF7FEFF 		bl	turnRight
 568              	.LVL76:
 569              	.L53:
 276:main.c        ****                     turnRight();
 570              		.loc 1 276 0
 571 00f2 084B     		ldr	r3, .L58+4
 572 00f4 1B78     		ldrb	r3, [r3]	@ zero_extendqisi2
 573 00f6 002B     		cmp	r3, #0
ARM GAS  C:\Users\CALEBW~1\AppData\Local\Temp\ccjqYMsY.s 			page 16


 574 00f8 F9D1     		bne	.L56
 278:main.c        ****                 };
 279:main.c        ****                 current_state=STOP;
 575              		.loc 1 279 0
 576 00fa 0322     		movs	r2, #3
 577 00fc 044B     		ldr	r3, .L58
 578 00fe 1A70     		strb	r2, [r3]
 280:main.c        ****                 break;  
 579              		.loc 1 280 0
 580 0100 DCE7     		b	.L43
 581              	.L54:
 281:main.c        ****             case STOP:
 282:main.c        ****                 PWM_1_WriteCompare(50);
 582              		.loc 1 282 0
 583 0102 3220     		movs	r0, #50
 584 0104 FFF7FEFF 		bl	PWM_1_WriteCompare
 585              	.LVL77:
 283:main.c        ****                 PWM_2_WriteCompare(50);
 586              		.loc 1 283 0
 587 0108 3220     		movs	r0, #50
 588 010a FFF7FEFF 		bl	PWM_2_WriteCompare
 589              	.LVL78:
 284:main.c        ****                 break;
 590              		.loc 1 284 0
 591 010e D5E7     		b	.L43
 592              	.L59:
 593              		.align	2
 594              	.L58:
 595 0110 00000000 		.word	.LANCHOR1
 596 0114 00000000 		.word	.LANCHOR0
 597              		.cfi_endproc
 598              	.LFE69:
 599              		.size	main, .-main
 600              		.global	current_state
 601              		.global	isTurning
 602              		.global	counter
 603              		.global	encoder_value_sum_M2
 604              		.global	encoder_value_sum_M1
 605              		.global	speed_M2
 606              		.global	speed_M1
 607              		.global	target_diatance
 608              		.global	current_distance_M2
 609              		.global	current_distance_M1
 610              		.global	distance_M2
 611              		.global	distance_M1
 612              		.global	timeInterval_ms
 613              		.global	wheelCircumference_cm
 614              		.global	CPR
 615              		.global	encoderCounts_M2
 616              		.global	encoderCounts_M1
 617              		.data
 618              		.align	3
 619              		.set	.LANCHOR1,. + 0
 620              		.type	current_state, %object
 621              		.size	current_state, 1
 622              	current_state:
 623 0000 03       		.byte	3
ARM GAS  C:\Users\CALEBW~1\AppData\Local\Temp\ccjqYMsY.s 			page 17


 624              		.type	counter, %object
 625              		.size	counter, 1
 626              	counter:
 627 0001 01       		.byte	1
 628 0002 00000000 		.space	6
 628      0000
 629              		.type	timeInterval_ms, %object
 630              		.size	timeInterval_ms, 8
 631              	timeInterval_ms:
 632 0008 7B14AE47 		.word	1202590843
 633 000c E17A843F 		.word	1065646817
 634              		.type	wheelCircumference_cm, %object
 635              		.size	wheelCircumference_cm, 4
 636              	wheelCircumference_cm:
 637 0010 3F75A241 		.word	1101165887
 638              		.type	CPR, %object
 639              		.size	CPR, 4
 640              	CPR:
 641 0014 E4000000 		.word	228
 642              		.bss
 643              		.align	2
 644              		.set	.LANCHOR0,. + 0
 645              		.type	isTurning, %object
 646              		.size	isTurning, 1
 647              	isTurning:
 648 0000 00       		.space	1
 649 0001 000000   		.space	3
 650              		.type	speed_M1, %object
 651              		.size	speed_M1, 4
 652              	speed_M1:
 653 0004 00000000 		.space	4
 654              		.type	speed_M2, %object
 655              		.size	speed_M2, 4
 656              	speed_M2:
 657 0008 00000000 		.space	4
 658              		.type	distance_M1, %object
 659              		.size	distance_M1, 4
 660              	distance_M1:
 661 000c 00000000 		.space	4
 662              		.type	target_diatance, %object
 663              		.size	target_diatance, 4
 664              	target_diatance:
 665 0010 00000000 		.space	4
 666              		.type	encoder_value_sum_M2, %object
 667              		.size	encoder_value_sum_M2, 4
 668              	encoder_value_sum_M2:
 669 0014 00000000 		.space	4
 670              		.type	encoder_value_sum_M1, %object
 671              		.size	encoder_value_sum_M1, 4
 672              	encoder_value_sum_M1:
 673 0018 00000000 		.space	4
 674              		.type	current_distance_M2, %object
 675              		.size	current_distance_M2, 4
 676              	current_distance_M2:
 677 001c 00000000 		.space	4
 678              		.type	current_distance_M1, %object
 679              		.size	current_distance_M1, 4
ARM GAS  C:\Users\CALEBW~1\AppData\Local\Temp\ccjqYMsY.s 			page 18


 680              	current_distance_M1:
 681 0020 00000000 		.space	4
 682              		.type	distance_M2, %object
 683              		.size	distance_M2, 4
 684              	distance_M2:
 685 0024 00000000 		.space	4
 686              		.type	encoderCounts_M2, %object
 687              		.size	encoderCounts_M2, 4
 688              	encoderCounts_M2:
 689 0028 00000000 		.space	4
 690              		.type	encoderCounts_M1, %object
 691              		.size	encoderCounts_M1, 4
 692              	encoderCounts_M1:
 693 002c 00000000 		.space	4
 694              		.text
 695              	.Letext0:
 696              		.file 2 "c:\\program files (x86)\\cypress\\psoc creator\\4.4\\psoc creator\\import\\gnu\\arm\\5.4.
 697              		.file 3 "c:\\program files (x86)\\cypress\\psoc creator\\4.4\\psoc creator\\import\\gnu\\arm\\5.4.
 698              		.file 4 "Generated_Source\\PSoC5/cytypes.h"
 699              		.file 5 "Generated_Source\\PSoC5/core_cm3.h"
 700              		.file 6 "Generated_Source\\PSoC5/PWM_1.h"
 701              		.file 7 "Generated_Source\\PSoC5/PWM_2.h"
 702              		.file 8 "Generated_Source\\PSoC5/Sout_Left.h"
 703              		.file 9 "Generated_Source\\PSoC5/Sout_MidLeft.h"
 704              		.file 10 "Generated_Source\\PSoC5/CyLib.h"
 705              		.file 11 "Generated_Source\\PSoC5/Sout_MidRight.h"
 706              		.file 12 "Generated_Source\\PSoC5/Sout_Right.h"
 707              		.file 13 "Generated_Source\\PSoC5/Timer_1.h"
 708              		.file 14 "Generated_Source\\PSoC5/Comp_0.h"
 709              		.file 15 "Generated_Source\\PSoC5/Comp_1.h"
 710              		.file 16 "Generated_Source\\PSoC5/Comp_2.h"
 711              		.file 17 "Generated_Source\\PSoC5/Comp_3.h"
 712              		.file 18 "Generated_Source\\PSoC5/Clock_PWM.h"
 713              		.file 19 "Generated_Source\\PSoC5/QuadDec_M1.h"
 714              		.file 20 "Generated_Source\\PSoC5/QuadDec_M2.h"