ARM GAS  C:\Users\CALEBW~1\AppData\Local\Temp\ccZTHlPy.s 			page 1


   1              		.syntax unified
   2              		.cpu cortex-m3
   3              		.fpu softvfp
   4              		.eabi_attribute 20, 1
   5              		.eabi_attribute 21, 1
   6              		.eabi_attribute 23, 3
   7              		.eabi_attribute 24, 1
   8              		.eabi_attribute 25, 1
   9              		.eabi_attribute 26, 1
  10              		.eabi_attribute 30, 1
  11              		.eabi_attribute 34, 1
  12              		.eabi_attribute 18, 4
  13              		.thumb
  14              		.syntax unified
  15              		.file	"main.c"
  16              		.text
  17              	.Ltext0:
  18              		.cfi_sections	.debug_frame
  19              		.global	__aeabi_i2d
  20              		.global	__aeabi_dmul
  21              		.global	__aeabi_d2uiz
  22              		.section	.text.isr_TC_handler,"ax",%progbits
  23              		.align	2
  24              		.global	isr_TC_handler
  25              		.thumb
  26              		.thumb_func
  27              		.type	isr_TC_handler, %function
  28              	isr_TC_handler:
  29              	.LFB64:
  30              		.file 1 "main.c"
   1:main.c        **** /* ========================================
   2:main.c        ****  *
   3:main.c        ****  * Copyright YOUR COMPANY, THE YEAR
   4:main.c        ****  * All Rights Reserved
   5:main.c        ****  * UNPUBLISHED, LICENSED SOFTWARE.
   6:main.c        ****  *
   7:main.c        ****  * CONFIDENTIAL AND PROPRIETARY INFORMATION
   8:main.c        ****  * WHICH IS THE PROPERTY OF your company.
   9:main.c        ****  *
  10:main.c        ****  * ========================================
  11:main.c        **** */
  12:main.c        **** #include <stdio.h> 
  13:main.c        **** #include <stdlib.h>
  14:main.c        **** #include <math.h>
  15:main.c        **** 
  16:main.c        **** #include "project.h"
  17:main.c        **** #include "defines.h"
  18:main.c        **** 
  19:main.c        **** void usbPutString(char *s);
  20:main.c        **** int32 ci = 0;
  21:main.c        **** int32 cj = 0;
  22:main.c        **** 
  23:main.c        **** uint8 counter = 1;
  24:main.c        **** 
  25:main.c        **** uint32 speedi = 0;
  26:main.c        **** uint32 speedj = 0;
  27:main.c        **** uint8 ready_to_send = 0;
ARM GAS  C:\Users\CALEBW~1\AppData\Local\Temp\ccZTHlPy.s 			page 2


  28:main.c        **** char bufferi[64];
  29:main.c        **** char bufferj[64];
  30:main.c        **** 
  31:main.c        **** CY_ISR(isr_TC_handler){
  31              		.loc 1 31 0
  32              		.cfi_startproc
  33              		@ args = 0, pretend = 0, frame = 0
  34              		@ frame_needed = 0, uses_anonymous_args = 0
  35 0000 38B5     		push	{r3, r4, r5, lr}
  36              		.cfi_def_cfa_offset 16
  37              		.cfi_offset 3, -16
  38              		.cfi_offset 4, -12
  39              		.cfi_offset 5, -8
  40              		.cfi_offset 14, -4
  32:main.c        ****     /*if ( counter == 20){
  33:main.c        ****         PWM_1_WriteCompare(0);
  34:main.c        ****         PWM_2_WriteCompare(0);
  35:main.c        ****     }*/
  36:main.c        ****     
  37:main.c        ****     if (counter % 4 != 0){
  41              		.loc 1 37 0
  42 0002 214B     		ldr	r3, .L5+8
  43 0004 1B78     		ldrb	r3, [r3]	@ zero_extendqisi2
  44 0006 13F0030F 		tst	r3, #3
  45 000a 03D0     		beq	.L2
  38:main.c        ****      counter++;
  46              		.loc 1 38 0
  47 000c 0133     		adds	r3, r3, #1
  48 000e 1E4A     		ldr	r2, .L5+8
  49 0010 1370     		strb	r3, [r2]
  50 0012 30E0     		b	.L3
  51              	.L2:
  39:main.c        ****     }else{
  40:main.c        ****         // 2.731ms *4 ~=11 ms
  41:main.c        ****         ci = QuadDec_M1_GetCounter();
  52              		.loc 1 41 0
  53 0014 FFF7FEFF 		bl	QuadDec_M1_GetCounter
  54              	.LVL0:
  55 0018 1C4C     		ldr	r4, .L5+12
  56 001a 2060     		str	r0, [r4]
  42:main.c        ****         cj = QuadDec_M2_GetCounter();
  57              		.loc 1 42 0
  58 001c FFF7FEFF 		bl	QuadDec_M2_GetCounter
  59              	.LVL1:
  60 0020 0546     		mov	r5, r0
  61 0022 6060     		str	r0, [r4, #4]
  43:main.c        ****         speedi = (uint32)(-ci * 8.13/4);
  62              		.loc 1 43 0
  63 0024 2068     		ldr	r0, [r4]
  64 0026 4042     		negs	r0, r0
  65 0028 FFF7FEFF 		bl	__aeabi_i2d
  66              	.LVL2:
  67 002c 14A3     		adr	r3, .L5
  68 002e D3E90023 		ldrd	r2, [r3]
  69 0032 FFF7FEFF 		bl	__aeabi_dmul
  70              	.LVL3:
  71 0036 0022     		movs	r2, #0
ARM GAS  C:\Users\CALEBW~1\AppData\Local\Temp\ccZTHlPy.s 			page 3


  72 0038 154B     		ldr	r3, .L5+16
  73 003a FFF7FEFF 		bl	__aeabi_dmul
  74              	.LVL4:
  75 003e FFF7FEFF 		bl	__aeabi_d2uiz
  76              	.LVL5:
  77 0042 A060     		str	r0, [r4, #8]
  44:main.c        ****         speedj = (uint32)(-cj * 8.13/4);
  78              		.loc 1 44 0
  79 0044 6842     		negs	r0, r5
  80 0046 FFF7FEFF 		bl	__aeabi_i2d
  81              	.LVL6:
  82 004a 0DA3     		adr	r3, .L5
  83 004c D3E90023 		ldrd	r2, [r3]
  84 0050 FFF7FEFF 		bl	__aeabi_dmul
  85              	.LVL7:
  86 0054 0022     		movs	r2, #0
  87 0056 0E4B     		ldr	r3, .L5+16
  88 0058 FFF7FEFF 		bl	__aeabi_dmul
  89              	.LVL8:
  90 005c FFF7FEFF 		bl	__aeabi_d2uiz
  91              	.LVL9:
  92 0060 E060     		str	r0, [r4, #12]
  45:main.c        ****         counter = 1;
  93              		.loc 1 45 0
  94 0062 0123     		movs	r3, #1
  95 0064 084A     		ldr	r2, .L5+8
  96 0066 1370     		strb	r3, [r2]
  46:main.c        ****         ready_to_send = 1;
  97              		.loc 1 46 0
  98 0068 2374     		strb	r3, [r4, #16]
  47:main.c        ****         QuadDec_M1_SetCounter(0);
  99              		.loc 1 47 0
 100 006a 0020     		movs	r0, #0
 101 006c FFF7FEFF 		bl	QuadDec_M1_SetCounter
 102              	.LVL10:
  48:main.c        ****         QuadDec_M2_SetCounter(0);
 103              		.loc 1 48 0
 104 0070 0020     		movs	r0, #0
 105 0072 FFF7FEFF 		bl	QuadDec_M2_SetCounter
 106              	.LVL11:
 107              	.L3:
  49:main.c        ****     }
  50:main.c        ****     Timer_1_ReadStatusRegister();
 108              		.loc 1 50 0
 109 0076 FFF7FEFF 		bl	Timer_1_ReadStatusRegister
 110              	.LVL12:
 111 007a 38BD     		pop	{r3, r4, r5, pc}
 112              	.L6:
 113 007c AFF30080 		.align	3
 114              	.L5:
 115 0080 C3F5285C 		.word	1546188227
 116 0084 8F422040 		.word	1075856015
 117 0088 00000000 		.word	.LANCHOR0
 118 008c 00000000 		.word	.LANCHOR1
 119 0090 0000D03F 		.word	1070596096
 120              		.cfi_endproc
 121              	.LFE64:
ARM GAS  C:\Users\CALEBW~1\AppData\Local\Temp\ccZTHlPy.s 			page 4


 122              		.size	isr_TC_handler, .-isr_TC_handler
 123              		.section	.text.usbPutString,"ax",%progbits
 124              		.align	2
 125              		.global	usbPutString
 126              		.thumb
 127              		.thumb_func
 128              		.type	usbPutString, %function
 129              	usbPutString:
 130              	.LFB66:
  51:main.c        ****     
  52:main.c        **** }
  53:main.c        ****  
  54:main.c        **** int main(void)
  55:main.c        **** {
  56:main.c        ****     CyGlobalIntEnable; /* Enable global interrupts. */
  57:main.c        ****     /*Start PWM Clk*/
  58:main.c        ****     Clock_PWM_Start(); 
  59:main.c        ****     //Start PWM
  60:main.c        ****     PWM_1_Start();
  61:main.c        ****     PWM_2_Start();
  62:main.c        ****     // write comparision int for MC33926 duty cycle must me larger than 10% and less than 90%
  63:main.c        ****     PWM_2_WriteCompare(60);
  64:main.c        ****     PWM_1_WriteCompare(60);
  65:main.c        ****     PWM_1_WritePeriod(100);
  66:main.c        ****     PWM_2_WritePeriod(100);
  67:main.c        ****     //Start UART for operation
  68:main.c        ****     USBUART_1_Start(0, USBUART_1_5V_OPERATION);
  69:main.c        ****     while (USBUART_1_GetConfiguration()==0){};
  70:main.c        ****     //sprintf(buffer, "Hello\n");
  71:main.c        ****     //usbPutString(buffer);
  72:main.c        ****     QuadDec_M1_Start();
  73:main.c        ****     QuadDec_M2_Start();
  74:main.c        ****     Timer_1_Start();
  75:main.c        ****     isr_1_StartEx(isr_TC_handler);
  76:main.c        ****     
  77:main.c        **** //    usbPutString(itoa(ci,buffer,10));
  78:main.c        ****     
  79:main.c        **** 
  80:main.c        ****     /* Place your initialization/startup code here (e.g. MyInst_Start()) */
  81:main.c        **** 
  82:main.c        ****     for(;;)
  83:main.c        ****     {
  84:main.c        ****         if (ready_to_send == 1){
  85:main.c        ****             sprintf(bufferi, "speed_M1: %ld\r\n", speedi);
  86:main.c        ****             usbPutString(bufferi);
  87:main.c        ****             
  88:main.c        ****             sprintf(bufferj, "speed_M2: %ld\r\n", speedj);
  89:main.c        ****             usbPutString(bufferj);
  90:main.c        ****             ready_to_send = 0;
  91:main.c        ****             
  92:main.c        ****         }
  93:main.c        ****         
  94:main.c        ****         /* Place your application code here. */
  95:main.c        ****     }
  96:main.c        **** }
  97:main.c        **** 
  98:main.c        **** 
ARM GAS  C:\Users\CALEBW~1\AppData\Local\Temp\ccZTHlPy.s 			page 5


  99:main.c        **** void usbPutString(char *s)
 100:main.c        **** {
 131              		.loc 1 100 0
 132              		.cfi_startproc
 133              		@ args = 0, pretend = 0, frame = 0
 134              		@ frame_needed = 0, uses_anonymous_args = 0
 135              	.LVL13:
 136 0000 10B5     		push	{r4, lr}
 137              		.cfi_def_cfa_offset 8
 138              		.cfi_offset 4, -8
 139              		.cfi_offset 14, -4
 140 0002 0446     		mov	r4, r0
 141              	.LVL14:
 142              	.L8:
 101:main.c        **** // !! Assumes that *s is a string with allocated space >=64 chars     
 102:main.c        **** //  Since USB implementation retricts data packets to 64 chars, this function truncates the
 103:main.c        **** //  length to 62 char (63rd char is a '!')
 104:main.c        **** 
 105:main.c        **** #ifdef USE_USB     
 106:main.c        ****     while (USBUART_1_CDCIsReady() == 0);
 143              		.loc 1 106 0 discriminator 1
 144 0004 FFF7FEFF 		bl	USBUART_1_CDCIsReady
 145              	.LVL15:
 146 0008 0028     		cmp	r0, #0
 147 000a FBD0     		beq	.L8
 107:main.c        ****     s[63]='\0';
 148              		.loc 1 107 0
 149 000c 0023     		movs	r3, #0
 150 000e 84F83F30 		strb	r3, [r4, #63]
 108:main.c        ****     s[62]='!';
 151              		.loc 1 108 0
 152 0012 2123     		movs	r3, #33
 153 0014 84F83E30 		strb	r3, [r4, #62]
 109:main.c        ****     USBUART_1_PutData((uint8*)s,strlen(s));
 154              		.loc 1 109 0
 155 0018 2046     		mov	r0, r4
 156 001a FFF7FEFF 		bl	strlen
 157              	.LVL16:
 158 001e 81B2     		uxth	r1, r0
 159 0020 2046     		mov	r0, r4
 160 0022 FFF7FEFF 		bl	USBUART_1_PutData
 161              	.LVL17:
 162 0026 10BD     		pop	{r4, pc}
 163              		.cfi_endproc
 164              	.LFE66:
 165              		.size	usbPutString, .-usbPutString
 166              		.section	.text.main,"ax",%progbits
 167              		.align	2
 168              		.global	main
 169              		.thumb
 170              		.thumb_func
 171              		.type	main, %function
 172              	main:
 173              	.LFB65:
  55:main.c        ****     CyGlobalIntEnable; /* Enable global interrupts. */
 174              		.loc 1 55 0
 175              		.cfi_startproc
ARM GAS  C:\Users\CALEBW~1\AppData\Local\Temp\ccZTHlPy.s 			page 6


 176              		@ Volatile: function does not return.
 177              		@ args = 0, pretend = 0, frame = 0
 178              		@ frame_needed = 0, uses_anonymous_args = 0
 179 0000 08B5     		push	{r3, lr}
 180              		.cfi_def_cfa_offset 8
 181              		.cfi_offset 3, -8
 182              		.cfi_offset 14, -4
  56:main.c        ****     /*Start PWM Clk*/
 183              		.loc 1 56 0
 184              		.syntax unified
 185              	@ 56 "main.c" 1
 186 0002 62B6     		CPSIE   i
 187              	@ 0 "" 2
  58:main.c        ****     //Start PWM
 188              		.loc 1 58 0
 189              		.thumb
 190              		.syntax unified
 191 0004 FFF7FEFF 		bl	Clock_PWM_Start
 192              	.LVL18:
  60:main.c        ****     PWM_2_Start();
 193              		.loc 1 60 0
 194 0008 FFF7FEFF 		bl	PWM_1_Start
 195              	.LVL19:
  61:main.c        ****     // write comparision int for MC33926 duty cycle must me larger than 10% and less than 90%
 196              		.loc 1 61 0
 197 000c FFF7FEFF 		bl	PWM_2_Start
 198              	.LVL20:
  63:main.c        ****     PWM_1_WriteCompare(60);
 199              		.loc 1 63 0
 200 0010 3C20     		movs	r0, #60
 201 0012 FFF7FEFF 		bl	PWM_2_WriteCompare
 202              	.LVL21:
  64:main.c        ****     PWM_1_WritePeriod(100);
 203              		.loc 1 64 0
 204 0016 3C20     		movs	r0, #60
 205 0018 FFF7FEFF 		bl	PWM_1_WriteCompare
 206              	.LVL22:
  65:main.c        ****     PWM_2_WritePeriod(100);
 207              		.loc 1 65 0
 208 001c 6420     		movs	r0, #100
 209 001e FFF7FEFF 		bl	PWM_1_WritePeriod
 210              	.LVL23:
  66:main.c        ****     //Start UART for operation
 211              		.loc 1 66 0
 212 0022 6420     		movs	r0, #100
 213 0024 FFF7FEFF 		bl	PWM_2_WritePeriod
 214              	.LVL24:
  68:main.c        ****     while (USBUART_1_GetConfiguration()==0){};
 215              		.loc 1 68 0
 216 0028 0121     		movs	r1, #1
 217 002a 0020     		movs	r0, #0
 218 002c FFF7FEFF 		bl	USBUART_1_Start
 219              	.LVL25:
 220              	.L11:
  69:main.c        ****     //sprintf(buffer, "Hello\n");
 221              		.loc 1 69 0 discriminator 1
 222 0030 FFF7FEFF 		bl	USBUART_1_GetConfiguration
ARM GAS  C:\Users\CALEBW~1\AppData\Local\Temp\ccZTHlPy.s 			page 7


 223              	.LVL26:
 224 0034 0028     		cmp	r0, #0
 225 0036 FBD0     		beq	.L11
  72:main.c        ****     QuadDec_M2_Start();
 226              		.loc 1 72 0
 227 0038 FFF7FEFF 		bl	QuadDec_M1_Start
 228              	.LVL27:
  73:main.c        ****     Timer_1_Start();
 229              		.loc 1 73 0
 230 003c FFF7FEFF 		bl	QuadDec_M2_Start
 231              	.LVL28:
  74:main.c        ****     isr_1_StartEx(isr_TC_handler);
 232              		.loc 1 74 0
 233 0040 FFF7FEFF 		bl	Timer_1_Start
 234              	.LVL29:
  75:main.c        ****     
 235              		.loc 1 75 0
 236 0044 0E48     		ldr	r0, .L15
 237 0046 FFF7FEFF 		bl	isr_1_StartEx
 238              	.LVL30:
 239              	.L12:
  84:main.c        ****             sprintf(bufferi, "speed_M1: %ld\r\n", speedi);
 240              		.loc 1 84 0
 241 004a 0E4B     		ldr	r3, .L15+4
 242 004c 1B7C     		ldrb	r3, [r3, #16]	@ zero_extendqisi2
 243 004e 012B     		cmp	r3, #1
 244 0050 FBD1     		bne	.L12
  85:main.c        ****             usbPutString(bufferi);
 245              		.loc 1 85 0
 246 0052 0C4C     		ldr	r4, .L15+4
 247 0054 0C4D     		ldr	r5, .L15+8
 248 0056 A268     		ldr	r2, [r4, #8]
 249 0058 0C49     		ldr	r1, .L15+12
 250 005a 2846     		mov	r0, r5
 251 005c FFF7FEFF 		bl	sprintf
 252              	.LVL31:
  86:main.c        ****             
 253              		.loc 1 86 0
 254 0060 2846     		mov	r0, r5
 255 0062 FFF7FEFF 		bl	usbPutString
 256              	.LVL32:
  88:main.c        ****             usbPutString(bufferj);
 257              		.loc 1 88 0
 258 0066 0A4D     		ldr	r5, .L15+16
 259 0068 E268     		ldr	r2, [r4, #12]
 260 006a 0A49     		ldr	r1, .L15+20
 261 006c 2846     		mov	r0, r5
 262 006e FFF7FEFF 		bl	sprintf
 263              	.LVL33:
  89:main.c        ****             ready_to_send = 0;
 264              		.loc 1 89 0
 265 0072 2846     		mov	r0, r5
 266 0074 FFF7FEFF 		bl	usbPutString
 267              	.LVL34:
  90:main.c        ****             
 268              		.loc 1 90 0
 269 0078 0023     		movs	r3, #0
ARM GAS  C:\Users\CALEBW~1\AppData\Local\Temp\ccZTHlPy.s 			page 8


 270 007a 2374     		strb	r3, [r4, #16]
 271 007c E5E7     		b	.L12
 272              	.L16:
 273 007e 00BF     		.align	2
 274              	.L15:
 275 0080 00000000 		.word	isr_TC_handler
 276 0084 00000000 		.word	.LANCHOR1
 277 0088 00000000 		.word	bufferi
 278 008c 00000000 		.word	.LC0
 279 0090 00000000 		.word	bufferj
 280 0094 10000000 		.word	.LC1
 281              		.cfi_endproc
 282              	.LFE65:
 283              		.size	main, .-main
 284              		.section	.text.usbPutChar,"ax",%progbits
 285              		.align	2
 286              		.global	usbPutChar
 287              		.thumb
 288              		.thumb_func
 289              		.type	usbPutChar, %function
 290              	usbPutChar:
 291              	.LFB67:
 110:main.c        **** #endif
 111:main.c        **** }
 112:main.c        **** //* ========================================
 113:main.c        **** void usbPutChar(char c)
 114:main.c        **** {
 292              		.loc 1 114 0
 293              		.cfi_startproc
 294              		@ args = 0, pretend = 0, frame = 0
 295              		@ frame_needed = 0, uses_anonymous_args = 0
 296              	.LVL35:
 297 0000 10B5     		push	{r4, lr}
 298              		.cfi_def_cfa_offset 8
 299              		.cfi_offset 4, -8
 300              		.cfi_offset 14, -4
 301 0002 0446     		mov	r4, r0
 302              	.LVL36:
 303              	.L18:
 115:main.c        **** #ifdef USE_USB     
 116:main.c        ****     while (USBUART_1_CDCIsReady() == 0);
 304              		.loc 1 116 0 discriminator 1
 305 0004 FFF7FEFF 		bl	USBUART_1_CDCIsReady
 306              	.LVL37:
 307 0008 0028     		cmp	r0, #0
 308 000a FBD0     		beq	.L18
 117:main.c        ****     USBUART_1_PutChar(c);
 309              		.loc 1 117 0
 310 000c 2046     		mov	r0, r4
 311 000e FFF7FEFF 		bl	USBUART_1_PutChar
 312              	.LVL38:
 313 0012 10BD     		pop	{r4, pc}
 314              		.cfi_endproc
 315              	.LFE67:
 316              		.size	usbPutChar, .-usbPutChar
 317              		.comm	bufferj,64,4
 318              		.comm	bufferi,64,4
ARM GAS  C:\Users\CALEBW~1\AppData\Local\Temp\ccZTHlPy.s 			page 9


 319              		.global	ready_to_send
 320              		.global	speedj
 321              		.global	speedi
 322              		.global	counter
 323              		.global	cj
 324              		.global	ci
 325              		.data
 326              		.set	.LANCHOR0,. + 0
 327              		.type	counter, %object
 328              		.size	counter, 1
 329              	counter:
 330 0000 01       		.byte	1
 331              		.section	.rodata.str1.4,"aMS",%progbits,1
 332              		.align	2
 333              	.LC0:
 334 0000 73706565 		.ascii	"speed_M1: %ld\015\012\000"
 334      645F4D31 
 334      3A20256C 
 334      640D0A00 
 335              	.LC1:
 336 0010 73706565 		.ascii	"speed_M2: %ld\015\012\000"
 336      645F4D32 
 336      3A20256C 
 336      640D0A00 
 337              		.bss
 338              		.align	2
 339              		.set	.LANCHOR1,. + 0
 340              		.type	ci, %object
 341              		.size	ci, 4
 342              	ci:
 343 0000 00000000 		.space	4
 344              		.type	cj, %object
 345              		.size	cj, 4
 346              	cj:
 347 0004 00000000 		.space	4
 348              		.type	speedi, %object
 349              		.size	speedi, 4
 350              	speedi:
 351 0008 00000000 		.space	4
 352              		.type	speedj, %object
 353              		.size	speedj, 4
 354              	speedj:
 355 000c 00000000 		.space	4
 356              		.type	ready_to_send, %object
 357              		.size	ready_to_send, 1
 358              	ready_to_send:
 359 0010 00       		.space	1
 360              		.text
 361              	.Letext0:
 362              		.file 2 "c:\\program files (x86)\\cypress\\psoc creator\\4.4\\psoc creator\\import\\gnu\\arm\\5.4.
 363              		.file 3 "c:\\program files (x86)\\cypress\\psoc creator\\4.4\\psoc creator\\import\\gnu\\arm\\5.4.
 364              		.file 4 "Generated_Source\\PSoC5/cytypes.h"
 365              		.file 5 "Generated_Source\\PSoC5/core_cm3.h"
 366              		.file 6 "Generated_Source\\PSoC5/QuadDec_M1.h"
 367              		.file 7 "Generated_Source\\PSoC5/QuadDec_M2.h"
 368              		.file 8 "Generated_Source\\PSoC5/Timer_1.h"
 369              		.file 9 "Generated_Source\\PSoC5/USBUART_1_cdc.h"
ARM GAS  C:\Users\CALEBW~1\AppData\Local\Temp\ccZTHlPy.s 			page 10


 370              		.file 10 "c:\\program files (x86)\\cypress\\psoc creator\\4.4\\psoc creator\\import\\gnu\\arm\\5.4
 371              		.file 11 "Generated_Source\\PSoC5/Clock_PWM.h"
 372              		.file 12 "Generated_Source\\PSoC5/PWM_1.h"
 373              		.file 13 "Generated_Source\\PSoC5/PWM_2.h"
 374              		.file 14 "Generated_Source\\PSoC5/USBUART_1.h"
 375              		.file 15 "Generated_Source\\PSoC5/isr_1.h"
 376              		.file 16 "c:\\program files (x86)\\cypress\\psoc creator\\4.4\\psoc creator\\import\\gnu\\arm\\5.4