ARM GAS  C:\Users\ukul426\AppData\Local\Temp\cc9deEx8.s 			page 1


   1              		.syntax unified
   2              		.cpu cortex-m3
   3              		.fpu softvfp
   4              		.eabi_attribute 20, 1
   5              		.eabi_attribute 21, 1
   6              		.eabi_attribute 23, 3
   7              		.eabi_attribute 24, 1
   8              		.eabi_attribute 25, 1
   9              		.eabi_attribute 26, 1
  10              		.eabi_attribute 30, 1
  11              		.eabi_attribute 34, 1
  12              		.eabi_attribute 18, 4
  13              		.thumb
  14              		.syntax unified
  15              		.file	"main.c"
  16              		.text
  17              	.Ltext0:
  18              		.cfi_sections	.debug_frame
  19              		.global	__aeabi_i2f
  20              		.global	__aeabi_fmul
  21              		.global	__aeabi_f2iz
  22              		.section	.text.isr_2_handler,"ax",%progbits
  23              		.align	2
  24              		.global	isr_2_handler
  25              		.thumb
  26              		.thumb_func
  27              		.type	isr_2_handler, %function
  28              	isr_2_handler:
  29              	.LFB64:
  30              		.file 1 "main.c"
   1:main.c        **** #include <stdio.h>
   2:main.c        **** #include <string.h>
   3:main.c        **** #include <stdlib.h>
   4:main.c        **** #include <project.h>
   5:main.c        **** #include <stdbool.h>
   6:main.c        **** #include <math.h>
   7:main.c        **** #include "project.h"
   8:main.c        **** #define TURN_90_ANGLE_EN_COUNT 57 // 90 degrees
   9:main.c        **** #define TURN_180_ANGLE_EN_COUNT 114 // 180 degrees
  10:main.c        **** 
  11:main.c        **** // Define states for the state machine
  12:main.c        **** typedef enum {
  13:main.c        ****     GO_STRAIGHT,
  14:main.c        ****     TURN_LEFT,
  15:main.c        ****     TURN_RIGHT,
  16:main.c        ****     REVERSE,
  17:main.c        ****     STOP
  18:main.c        **** } RobotState;
  19:main.c        **** //distance calculation paras
  20:main.c        **** int32 encoderCounts_M1 = 0;  
  21:main.c        **** int32 encoderCounts_M2 = 0;  
  22:main.c        **** int32 CPR = 228;  // Adjusted for 4x resolution(228/4)
  23:main.c        **** float wheelCircumference_cm = (M_PI*64.46)/10;// wheel circumference wheelDiameter_mm = 64.46)
  24:main.c        **** double timeInterval_s = 10.924;  // Effective time interval( (timer period )2.731*4)
  25:main.c        **** int32  distance_M1 = 0;
  26:main.c        **** int32  distance_M2 = 0;
  27:main.c        **** int32 target_diatance = 15;//cm
ARM GAS  C:\Users\ukul426\AppData\Local\Temp\cc9deEx8.s 			page 2


  28:main.c        **** 
  29:main.c        **** 
  30:main.c        **** int32 encoder_value_sum_M1 = 0;
  31:main.c        **** int32 encoder_value_sum_M2 = 0;
  32:main.c        **** 
  33:main.c        **** uint32 count = 0;
  34:main.c        **** uint8 C0_sum;
  35:main.c        **** uint8 C1_sum;
  36:main.c        **** uint8 C2_sum;
  37:main.c        **** uint8 C3_sum;
  38:main.c        **** uint8 PWM_R=0;
  39:main.c        **** uint8 PWM_L=0;
  40:main.c        **** int32 current_encoder;
  41:main.c        **** 
  42:main.c        **** 
  43:main.c        **** bool is_turning;
  44:main.c        **** uint8 counter = 1;
  45:main.c        **** bool is_turning = false; // Initialize is_turning to false
  46:main.c        **** bool continue_turn = false; // Added a flag to continue the turn
  47:main.c        **** 
  48:main.c        **** RobotState current_state = GO_STRAIGHT;// intialse state
  49:main.c        **** 
  50:main.c        **** CY_ISR(isr_2_handler) {
  31              		.loc 1 50 0
  32              		.cfi_startproc
  33              		@ args = 0, pretend = 0, frame = 0
  34              		@ frame_needed = 0, uses_anonymous_args = 0
  35 0000 F8B5     		push	{r3, r4, r5, r6, r7, lr}
  36              		.cfi_def_cfa_offset 24
  37              		.cfi_offset 3, -24
  38              		.cfi_offset 4, -20
  39              		.cfi_offset 5, -16
  40              		.cfi_offset 6, -12
  41              		.cfi_offset 7, -8
  42              		.cfi_offset 14, -4
  51:main.c        ****     if (counter < 10){
  43              		.loc 1 51 0
  44 0002 214B     		ldr	r3, .L5
  45 0004 1B78     		ldrb	r3, [r3]	@ zero_extendqisi2
  46 0006 092B     		cmp	r3, #9
  47 0008 03D8     		bhi	.L2
  52:main.c        ****         counter++;
  48              		.loc 1 52 0
  49 000a 0133     		adds	r3, r3, #1
  50 000c 1E4A     		ldr	r2, .L5
  51 000e 1370     		strb	r3, [r2]
  52 0010 36E0     		b	.L3
  53              	.L2:
  53:main.c        ****     }else{
  54:main.c        ****         counter = 1;
  54              		.loc 1 54 0
  55 0012 1D4E     		ldr	r6, .L5
  56 0014 0123     		movs	r3, #1
  57 0016 3370     		strb	r3, [r6]
  55:main.c        ****         // Encoder counts (negative due to counterclockwise rotation)
  56:main.c        ****         encoderCounts_M1 = abs(QuadDec_M1_GetCounter());//QuadDec_M1_GetCounter();
  58              		.loc 1 56 0
ARM GAS  C:\Users\ukul426\AppData\Local\Temp\cc9deEx8.s 			page 3


  59 0018 FFF7FEFF 		bl	QuadDec_M1_GetCounter
  60              	.LVL0:
  61 001c 0028     		cmp	r0, #0
  62 001e B8BF     		it	lt
  63 0020 4042     		rsblt	r0, r0, #0
  64 0022 1A4C     		ldr	r4, .L5+4
  65 0024 2060     		str	r0, [r4]
  57:main.c        ****         encoderCounts_M2 = abs(QuadDec_M2_GetCounter());
  66              		.loc 1 57 0
  67 0026 FFF7FEFF 		bl	QuadDec_M2_GetCounter
  68              	.LVL1:
  69 002a 0028     		cmp	r0, #0
  70 002c B8BF     		it	lt
  71 002e 4042     		rsblt	r0, r0, #0
  72 0030 6060     		str	r0, [r4, #4]
  58:main.c        ****         
  59:main.c        ****         // sum of encodercounts
  60:main.c        ****         encoder_value_sum_M1 += encoderCounts_M1;
  73              		.loc 1 60 0
  74 0032 2268     		ldr	r2, [r4]
  75 0034 A368     		ldr	r3, [r4, #8]
  76 0036 1344     		add	r3, r3, r2
  77 0038 A360     		str	r3, [r4, #8]
  61:main.c        ****         encoder_value_sum_M2 += encoderCounts_M2;
  78              		.loc 1 61 0
  79 003a E368     		ldr	r3, [r4, #12]
  80 003c C518     		adds	r5, r0, r3
  81 003e E560     		str	r5, [r4, #12]
  62:main.c        ****         
  63:main.c        ****         // distance calculations 
  64:main.c        ****         distance_M1 = (encoderCounts_M1/CPR) * wheelCircumference_cm;
  82              		.loc 1 64 0
  83 0040 7768     		ldr	r7, [r6, #4]
  84 0042 B668     		ldr	r6, [r6, #8]	@ float
  85 0044 92FBF7F0 		sdiv	r0, r2, r7
  86 0048 FFF7FEFF 		bl	__aeabi_i2f
  87              	.LVL2:
  88 004c 3146     		mov	r1, r6
  89 004e FFF7FEFF 		bl	__aeabi_fmul
  90              	.LVL3:
  91 0052 FFF7FEFF 		bl	__aeabi_f2iz
  92              	.LVL4:
  93 0056 2061     		str	r0, [r4, #16]
  65:main.c        ****         distance_M2 = (encoder_value_sum_M2/CPR) * wheelCircumference_cm;
  94              		.loc 1 65 0
  95 0058 95FBF7F0 		sdiv	r0, r5, r7
  96 005c FFF7FEFF 		bl	__aeabi_i2f
  97              	.LVL5:
  98 0060 3146     		mov	r1, r6
  99 0062 FFF7FEFF 		bl	__aeabi_fmul
 100              	.LVL6:
 101 0066 FFF7FEFF 		bl	__aeabi_f2iz
 102              	.LVL7:
 103 006a 6061     		str	r0, [r4, #20]
  66:main.c        ****         
  67:main.c        ****         if(C3_sum==0){
 104              		.loc 1 67 0
ARM GAS  C:\Users\ukul426\AppData\Local\Temp\cc9deEx8.s 			page 4


 105 006c 084B     		ldr	r3, .L5+8
 106 006e 1B78     		ldrb	r3, [r3]	@ zero_extendqisi2
 107 0070 33B9     		cbnz	r3, .L3
  68:main.c        ****             current_encoder = abs(QuadDec_M2_GetCounter());
 108              		.loc 1 68 0
 109 0072 FFF7FEFF 		bl	QuadDec_M2_GetCounter
 110              	.LVL8:
 111 0076 0028     		cmp	r0, #0
 112 0078 B8BF     		it	lt
 113 007a 4042     		rsblt	r0, r0, #0
 114 007c 054B     		ldr	r3, .L5+12
 115 007e 1860     		str	r0, [r3]
 116              	.L3:
  69:main.c        ****         }
  70:main.c        ****         //reset the encoder counters 
  71:main.c        **** //        QuadDec_M1_SetCounter(0);
  72:main.c        **** //        QuadDec_M2_SetCounter(0);     
  73:main.c        ****     }
  74:main.c        ****         
  75:main.c        ****         Timer_1_ReadStatusRegister();
 117              		.loc 1 75 0
 118 0080 FFF7FEFF 		bl	Timer_1_ReadStatusRegister
 119              	.LVL9:
 120 0084 F8BD     		pop	{r3, r4, r5, r6, r7, pc}
 121              	.L6:
 122 0086 00BF     		.align	2
 123              	.L5:
 124 0088 00000000 		.word	.LANCHOR0
 125 008c 00000000 		.word	.LANCHOR1
 126 0090 00000000 		.word	C3_sum
 127 0094 00000000 		.word	current_encoder
 128              		.cfi_endproc
 129              	.LFE64:
 130              		.size	isr_2_handler, .-isr_2_handler
 131              		.section	.text.isr_1_handler,"ax",%progbits
 132              		.align	2
 133              		.global	isr_1_handler
 134              		.thumb
 135              		.thumb_func
 136              		.type	isr_1_handler, %function
 137              	isr_1_handler:
 138              	.LFB65:
  76:main.c        **** }
  77:main.c        **** CY_ISR(isr_1_handler) {
 139              		.loc 1 77 0
 140              		.cfi_startproc
 141              		@ args = 0, pretend = 0, frame = 0
 142              		@ frame_needed = 0, uses_anonymous_args = 0
 143 0000 08B5     		push	{r3, lr}
 144              		.cfi_def_cfa_offset 8
 145              		.cfi_offset 3, -8
 146              		.cfi_offset 14, -4
  78:main.c        ****     //every 1ms   
  79:main.c        ****     //sum up comp values every 1ms
  80:main.c        ****     C0_sum+=Comp_0_GetCompare();
 147              		.loc 1 80 0
 148 0002 FFF7FEFF 		bl	Comp_0_GetCompare
ARM GAS  C:\Users\ukul426\AppData\Local\Temp\cc9deEx8.s 			page 5


 149              	.LVL10:
 150 0006 164A     		ldr	r2, .L10
 151 0008 1378     		ldrb	r3, [r2]	@ zero_extendqisi2
 152 000a 1844     		add	r0, r0, r3
 153 000c 1070     		strb	r0, [r2]
  81:main.c        ****     C1_sum+=Comp_1_GetCompare();
 154              		.loc 1 81 0
 155 000e FFF7FEFF 		bl	Comp_1_GetCompare
 156              	.LVL11:
 157 0012 144A     		ldr	r2, .L10+4
 158 0014 1378     		ldrb	r3, [r2]	@ zero_extendqisi2
 159 0016 1844     		add	r0, r0, r3
 160 0018 1070     		strb	r0, [r2]
  82:main.c        ****     C2_sum+=Comp_2_GetCompare();
 161              		.loc 1 82 0
 162 001a FFF7FEFF 		bl	Comp_2_GetCompare
 163              	.LVL12:
 164 001e 124A     		ldr	r2, .L10+8
 165 0020 1378     		ldrb	r3, [r2]	@ zero_extendqisi2
 166 0022 1844     		add	r0, r0, r3
 167 0024 1070     		strb	r0, [r2]
  83:main.c        ****     C3_sum+=Comp_3_GetCompare();  
 168              		.loc 1 83 0
 169 0026 FFF7FEFF 		bl	Comp_3_GetCompare
 170              	.LVL13:
 171 002a 104A     		ldr	r2, .L10+12
 172 002c 1378     		ldrb	r3, [r2]	@ zero_extendqisi2
 173 002e 1844     		add	r0, r0, r3
 174 0030 1070     		strb	r0, [r2]
  84:main.c        ****     
  85:main.c        ****     if(count==8){
 175              		.loc 1 85 0
 176 0032 0F4B     		ldr	r3, .L10+16
 177 0034 9B69     		ldr	r3, [r3, #24]
 178 0036 082B     		cmp	r3, #8
 179 0038 0AD1     		bne	.L8
  86:main.c        ****         //reset to check again every 8ms
  87:main.c        ****         C0_sum=0;
 180              		.loc 1 87 0
 181 003a 0023     		movs	r3, #0
 182 003c 084A     		ldr	r2, .L10
 183 003e 1370     		strb	r3, [r2]
  88:main.c        ****         C1_sum=0;
 184              		.loc 1 88 0
 185 0040 084A     		ldr	r2, .L10+4
 186 0042 1370     		strb	r3, [r2]
  89:main.c        ****         C2_sum=0;
 187              		.loc 1 89 0
 188 0044 084A     		ldr	r2, .L10+8
 189 0046 1370     		strb	r3, [r2]
  90:main.c        ****         C3_sum=0;
 190              		.loc 1 90 0
 191 0048 084A     		ldr	r2, .L10+12
 192 004a 1370     		strb	r3, [r2]
  91:main.c        ****         count=0;
 193              		.loc 1 91 0
 194 004c 084A     		ldr	r2, .L10+16
ARM GAS  C:\Users\ukul426\AppData\Local\Temp\cc9deEx8.s 			page 6


 195 004e 9361     		str	r3, [r2, #24]
 196              	.L8:
  92:main.c        ****     }
  93:main.c        ****     count++;
 197              		.loc 1 93 0
 198 0050 074A     		ldr	r2, .L10+16
 199 0052 9369     		ldr	r3, [r2, #24]
 200 0054 0133     		adds	r3, r3, #1
 201 0056 9361     		str	r3, [r2, #24]
  94:main.c        ****     Timer_1_ReadStatusRegister();
 202              		.loc 1 94 0
 203 0058 FFF7FEFF 		bl	Timer_1_ReadStatusRegister
 204              	.LVL14:
 205 005c 08BD     		pop	{r3, pc}
 206              	.L11:
 207 005e 00BF     		.align	2
 208              	.L10:
 209 0060 00000000 		.word	C0_sum
 210 0064 00000000 		.word	C1_sum
 211 0068 00000000 		.word	C2_sum
 212 006c 00000000 		.word	C3_sum
 213 0070 00000000 		.word	.LANCHOR1
 214              		.cfi_endproc
 215              	.LFE65:
 216              		.size	isr_1_handler, .-isr_1_handler
 217              		.section	.text.distance,"ax",%progbits
 218              		.align	2
 219              		.global	distance
 220              		.thumb
 221              		.thumb_func
 222              		.type	distance, %function
 223              	distance:
 224              	.LFB66:
  95:main.c        **** }
  96:main.c        **** 
  97:main.c        **** int distance(){
 225              		.loc 1 97 0
 226              		.cfi_startproc
 227              		@ args = 0, pretend = 0, frame = 0
 228              		@ frame_needed = 0, uses_anonymous_args = 0
 229 0000 10B5     		push	{r4, lr}
 230              		.cfi_def_cfa_offset 8
 231              		.cfi_offset 4, -8
 232              		.cfi_offset 14, -4
  98:main.c        ****     return distance_M2 = (abs(QuadDec_M2_GetCounter())/CPR) * wheelCircumference_cm;
 233              		.loc 1 98 0
 234 0002 FFF7FEFF 		bl	QuadDec_M2_GetCounter
 235              	.LVL15:
 236 0006 0028     		cmp	r0, #0
 237 0008 B8BF     		it	lt
 238 000a 4042     		rsblt	r0, r0, #0
 239 000c 064C     		ldr	r4, .L14
 240 000e 6368     		ldr	r3, [r4, #4]
 241 0010 90FBF3F0 		sdiv	r0, r0, r3
 242 0014 FFF7FEFF 		bl	__aeabi_i2f
 243              	.LVL16:
 244 0018 A168     		ldr	r1, [r4, #8]	@ float
ARM GAS  C:\Users\ukul426\AppData\Local\Temp\cc9deEx8.s 			page 7


 245 001a FFF7FEFF 		bl	__aeabi_fmul
 246              	.LVL17:
 247 001e FFF7FEFF 		bl	__aeabi_f2iz
 248              	.LVL18:
 249 0022 024B     		ldr	r3, .L14+4
 250 0024 5861     		str	r0, [r3, #20]
  99:main.c        **** }
 251              		.loc 1 99 0
 252 0026 10BD     		pop	{r4, pc}
 253              	.L15:
 254              		.align	2
 255              	.L14:
 256 0028 00000000 		.word	.LANCHOR0
 257 002c 00000000 		.word	.LANCHOR1
 258              		.cfi_endproc
 259              	.LFE66:
 260              		.size	distance, .-distance
 261              		.section	.text.goStraight,"ax",%progbits
 262              		.align	2
 263              		.global	goStraight
 264              		.thumb
 265              		.thumb_func
 266              		.type	goStraight, %function
 267              	goStraight:
 268              	.LFB67:
 100:main.c        **** 
 101:main.c        **** void goStraight(){
 269              		.loc 1 101 0
 270              		.cfi_startproc
 271              		@ args = 0, pretend = 0, frame = 0
 272              		@ frame_needed = 0, uses_anonymous_args = 0
 273 0000 08B5     		push	{r3, lr}
 274              		.cfi_def_cfa_offset 8
 275              		.cfi_offset 3, -8
 276              		.cfi_offset 14, -4
 102:main.c        ****     if(C0_sum>0 && C1_sum==0){//s_ML out of line
 277              		.loc 1 102 0
 278 0002 114B     		ldr	r3, .L21
 279 0004 1B78     		ldrb	r3, [r3]	@ zero_extendqisi2
 280 0006 5BB1     		cbz	r3, .L17
 281              		.loc 1 102 0 is_stmt 0 discriminator 1
 282 0008 104A     		ldr	r2, .L21+4
 283 000a 1278     		ldrb	r2, [r2]	@ zero_extendqisi2
 284 000c 42B9     		cbnz	r2, .L17
 103:main.c        ****         PWM_L = PWM_2_ReadCompare();
 285              		.loc 1 103 0 is_stmt 1
 286 000e FFF7FEFF 		bl	PWM_2_ReadCompare
 287              	.LVL19:
 288 0012 0F4B     		ldr	r3, .L21+8
 289 0014 1877     		strb	r0, [r3, #28]
 104:main.c        ****         PWM_2_WriteCompare(PWM_L+1); 
 290              		.loc 1 104 0
 291 0016 0130     		adds	r0, r0, #1
 292 0018 C0B2     		uxtb	r0, r0
 293 001a FFF7FEFF 		bl	PWM_2_WriteCompare
 294              	.LVL20:
 295 001e 08BD     		pop	{r3, pc}
ARM GAS  C:\Users\ukul426\AppData\Local\Temp\cc9deEx8.s 			page 8


 296              	.L17:
 105:main.c        ****     }else if(C0_sum==0 && C1_sum>0){//s_MR out of line
 297              		.loc 1 105 0
 298 0020 5BB9     		cbnz	r3, .L19
 299              		.loc 1 105 0 is_stmt 0 discriminator 1
 300 0022 0A4B     		ldr	r3, .L21+4
 301 0024 1B78     		ldrb	r3, [r3]	@ zero_extendqisi2
 302 0026 43B1     		cbz	r3, .L19
 106:main.c        ****         PWM_R = PWM_1_ReadCompare();
 303              		.loc 1 106 0 is_stmt 1
 304 0028 FFF7FEFF 		bl	PWM_1_ReadCompare
 305              	.LVL21:
 306 002c 084B     		ldr	r3, .L21+8
 307 002e 5877     		strb	r0, [r3, #29]
 107:main.c        ****         PWM_1_WriteCompare(PWM_R+1);
 308              		.loc 1 107 0
 309 0030 0130     		adds	r0, r0, #1
 310 0032 C0B2     		uxtb	r0, r0
 311 0034 FFF7FEFF 		bl	PWM_1_WriteCompare
 312              	.LVL22:
 313 0038 08BD     		pop	{r3, pc}
 314              	.L19:
 108:main.c        ****     }else{
 109:main.c        ****         PWM_1_WriteCompare(70);
 315              		.loc 1 109 0
 316 003a 4620     		movs	r0, #70
 317 003c FFF7FEFF 		bl	PWM_1_WriteCompare
 318              	.LVL23:
 110:main.c        ****         PWM_2_WriteCompare(70); 
 319              		.loc 1 110 0
 320 0040 4620     		movs	r0, #70
 321 0042 FFF7FEFF 		bl	PWM_2_WriteCompare
 322              	.LVL24:
 323 0046 08BD     		pop	{r3, pc}
 324              	.L22:
 325              		.align	2
 326              	.L21:
 327 0048 00000000 		.word	C0_sum
 328 004c 00000000 		.word	C1_sum
 329 0050 00000000 		.word	.LANCHOR1
 330              		.cfi_endproc
 331              	.LFE67:
 332              		.size	goStraight, .-goStraight
 333              		.section	.text.turnLeft,"ax",%progbits
 334              		.align	2
 335              		.global	turnLeft
 336              		.thumb
 337              		.thumb_func
 338              		.type	turnLeft, %function
 339              	turnLeft:
 340              	.LFB68:
 111:main.c        ****     }
 112:main.c        **** }
 113:main.c        **** void turnLeft(){
 341              		.loc 1 113 0
 342              		.cfi_startproc
 343              		@ args = 0, pretend = 0, frame = 0
ARM GAS  C:\Users\ukul426\AppData\Local\Temp\cc9deEx8.s 			page 9


 344              		@ frame_needed = 0, uses_anonymous_args = 0
 345 0000 08B5     		push	{r3, lr}
 346              		.cfi_def_cfa_offset 8
 347              		.cfi_offset 3, -8
 348              		.cfi_offset 14, -4
 114:main.c        ****     PWM_1_WriteCompare(70);
 349              		.loc 1 114 0
 350 0002 4620     		movs	r0, #70
 351 0004 FFF7FEFF 		bl	PWM_1_WriteCompare
 352              	.LVL25:
 115:main.c        ****     PWM_2_WriteCompare(30); 
 353              		.loc 1 115 0
 354 0008 1E20     		movs	r0, #30
 355 000a FFF7FEFF 		bl	PWM_2_WriteCompare
 356              	.LVL26:
 357 000e 08BD     		pop	{r3, pc}
 358              		.cfi_endproc
 359              	.LFE68:
 360              		.size	turnLeft, .-turnLeft
 361              		.section	.text.turnRight,"ax",%progbits
 362              		.align	2
 363              		.global	turnRight
 364              		.thumb
 365              		.thumb_func
 366              		.type	turnRight, %function
 367              	turnRight:
 368              	.LFB69:
 116:main.c        **** }
 117:main.c        **** void turnRight(){
 369              		.loc 1 117 0
 370              		.cfi_startproc
 371              		@ args = 0, pretend = 0, frame = 0
 372              		@ frame_needed = 0, uses_anonymous_args = 0
 373 0000 08B5     		push	{r3, lr}
 374              		.cfi_def_cfa_offset 8
 375              		.cfi_offset 3, -8
 376              		.cfi_offset 14, -4
 118:main.c        ****     PWM_1_WriteCompare(30);
 377              		.loc 1 118 0
 378 0002 1E20     		movs	r0, #30
 379 0004 FFF7FEFF 		bl	PWM_1_WriteCompare
 380              	.LVL27:
 119:main.c        ****     PWM_2_WriteCompare(70); 
 381              		.loc 1 119 0
 382 0008 4620     		movs	r0, #70
 383 000a FFF7FEFF 		bl	PWM_2_WriteCompare
 384              	.LVL28:
 385 000e 08BD     		pop	{r3, pc}
 386              		.cfi_endproc
 387              	.LFE69:
 388              		.size	turnRight, .-turnRight
 389              		.section	.text.reverse,"ax",%progbits
 390              		.align	2
 391              		.global	reverse
 392              		.thumb
 393              		.thumb_func
 394              		.type	reverse, %function
ARM GAS  C:\Users\ukul426\AppData\Local\Temp\cc9deEx8.s 			page 10


 395              	reverse:
 396              	.LFB70:
 120:main.c        **** }
 121:main.c        **** void reverse(){
 397              		.loc 1 121 0
 398              		.cfi_startproc
 399              		@ args = 0, pretend = 0, frame = 0
 400              		@ frame_needed = 0, uses_anonymous_args = 0
 401 0000 08B5     		push	{r3, lr}
 402              		.cfi_def_cfa_offset 8
 403              		.cfi_offset 3, -8
 404              		.cfi_offset 14, -4
 122:main.c        ****     PWM_1_WriteCompare(1);
 405              		.loc 1 122 0
 406 0002 0120     		movs	r0, #1
 407 0004 FFF7FEFF 		bl	PWM_1_WriteCompare
 408              	.LVL29:
 123:main.c        ****     PWM_2_WriteCompare(1);
 409              		.loc 1 123 0
 410 0008 0120     		movs	r0, #1
 411 000a FFF7FEFF 		bl	PWM_2_WriteCompare
 412              	.LVL30:
 413 000e 08BD     		pop	{r3, pc}
 414              		.cfi_endproc
 415              	.LFE70:
 416              		.size	reverse, .-reverse
 417              		.section	.text.stop,"ax",%progbits
 418              		.align	2
 419              		.global	stop
 420              		.thumb
 421              		.thumb_func
 422              		.type	stop, %function
 423              	stop:
 424              	.LFB71:
 124:main.c        **** }
 125:main.c        **** void stop(){
 425              		.loc 1 125 0
 426              		.cfi_startproc
 427              		@ args = 0, pretend = 0, frame = 0
 428              		@ frame_needed = 0, uses_anonymous_args = 0
 429 0000 08B5     		push	{r3, lr}
 430              		.cfi_def_cfa_offset 8
 431              		.cfi_offset 3, -8
 432              		.cfi_offset 14, -4
 126:main.c        ****     PWM_1_WriteCompare(50);
 433              		.loc 1 126 0
 434 0002 3220     		movs	r0, #50
 435 0004 FFF7FEFF 		bl	PWM_1_WriteCompare
 436              	.LVL31:
 127:main.c        ****     PWM_2_WriteCompare(50);
 437              		.loc 1 127 0
 438 0008 3220     		movs	r0, #50
 439 000a FFF7FEFF 		bl	PWM_2_WriteCompare
 440              	.LVL32:
 441 000e 08BD     		pop	{r3, pc}
 442              		.cfi_endproc
 443              	.LFE71:
ARM GAS  C:\Users\ukul426\AppData\Local\Temp\cc9deEx8.s 			page 11


 444              		.size	stop, .-stop
 445              		.section	.text.main,"ax",%progbits
 446              		.align	2
 447              		.global	main
 448              		.thumb
 449              		.thumb_func
 450              		.type	main, %function
 451              	main:
 452              	.LFB72:
 128:main.c        **** }
 129:main.c        **** 
 130:main.c        **** 
 131:main.c        **** int main(void)
 132:main.c        **** {
 453              		.loc 1 132 0
 454              		.cfi_startproc
 455              		@ Volatile: function does not return.
 456              		@ args = 0, pretend = 0, frame = 0
 457              		@ frame_needed = 0, uses_anonymous_args = 0
 458 0000 08B5     		push	{r3, lr}
 459              		.cfi_def_cfa_offset 8
 460              		.cfi_offset 3, -8
 461              		.cfi_offset 14, -4
 133:main.c        ****     CyGlobalIntEnable; /* Enable global interrupts. */
 462              		.loc 1 133 0
 463              		.syntax unified
 464              	@ 133 "main.c" 1
 465 0002 62B6     		CPSIE   i
 466              	@ 0 "" 2
 134:main.c        ****     Timer_1_Start();
 467              		.loc 1 134 0
 468              		.thumb
 469              		.syntax unified
 470 0004 FFF7FEFF 		bl	Timer_1_Start
 471              	.LVL33:
 135:main.c        ****     isr_1_StartEx(isr_1_handler);
 472              		.loc 1 135 0
 473 0008 1F48     		ldr	r0, .L39
 474 000a FFF7FEFF 		bl	isr_1_StartEx
 475              	.LVL34:
 136:main.c        ****     isr_2_StartEx(isr_2_handler);
 476              		.loc 1 136 0
 477 000e 1F48     		ldr	r0, .L39+4
 478 0010 FFF7FEFF 		bl	isr_2_StartEx
 479              	.LVL35:
 137:main.c        ****     Comp_0_Start();
 480              		.loc 1 137 0
 481 0014 FFF7FEFF 		bl	Comp_0_Start
 482              	.LVL36:
 138:main.c        ****     Comp_1_Start();
 483              		.loc 1 138 0
 484 0018 FFF7FEFF 		bl	Comp_1_Start
 485              	.LVL37:
 139:main.c        ****     Comp_2_Start();
 486              		.loc 1 139 0
 487 001c FFF7FEFF 		bl	Comp_2_Start
 488              	.LVL38:
ARM GAS  C:\Users\ukul426\AppData\Local\Temp\cc9deEx8.s 			page 12


 140:main.c        ****     Comp_3_Start();
 489              		.loc 1 140 0
 490 0020 FFF7FEFF 		bl	Comp_3_Start
 491              	.LVL39:
 141:main.c        ****     Clock_PWM_Start(); 
 492              		.loc 1 141 0
 493 0024 FFF7FEFF 		bl	Clock_PWM_Start
 494              	.LVL40:
 142:main.c        ****     PWM_1_Start();
 495              		.loc 1 142 0
 496 0028 FFF7FEFF 		bl	PWM_1_Start
 497              	.LVL41:
 143:main.c        ****     PWM_2_Start();
 498              		.loc 1 143 0
 499 002c FFF7FEFF 		bl	PWM_2_Start
 500              	.LVL42:
 144:main.c        ****     PWM_1_WritePeriod(100);
 501              		.loc 1 144 0
 502 0030 6420     		movs	r0, #100
 503 0032 FFF7FEFF 		bl	PWM_1_WritePeriod
 504              	.LVL43:
 145:main.c        ****     PWM_2_WritePeriod(100);
 505              		.loc 1 145 0
 506 0036 6420     		movs	r0, #100
 507 0038 FFF7FEFF 		bl	PWM_2_WritePeriod
 508              	.LVL44:
 146:main.c        ****     QuadDec_M1_Start();
 509              		.loc 1 146 0
 510 003c FFF7FEFF 		bl	QuadDec_M1_Start
 511              	.LVL45:
 147:main.c        ****     QuadDec_M2_Start();
 512              		.loc 1 147 0
 513 0040 FFF7FEFF 		bl	QuadDec_M2_Start
 514              	.LVL46:
 515              	.L32:
 148:main.c        ****     
 149:main.c        ****     
 150:main.c        ****     for(;;)
 151:main.c        ****     {      
 152:main.c        ****         
 153:main.c        ****         if(C0_sum==0 || C1_sum==0){
 516              		.loc 1 153 0
 517 0044 124B     		ldr	r3, .L39+8
 518 0046 1B78     		ldrb	r3, [r3]	@ zero_extendqisi2
 519 0048 13B1     		cbz	r3, .L33
 520              		.loc 1 153 0 is_stmt 0 discriminator 1
 521 004a 124B     		ldr	r3, .L39+12
 522 004c 1B78     		ldrb	r3, [r3]	@ zero_extendqisi2
 523 004e 13B9     		cbnz	r3, .L34
 524              	.L33:
 154:main.c        ****             goStraight();
 525              		.loc 1 154 0 is_stmt 1
 526 0050 FFF7FEFF 		bl	goStraight
 527              	.LVL47:
 528 0054 F6E7     		b	.L32
 529              	.L34:
 155:main.c        ****         }else 
ARM GAS  C:\Users\ukul426\AppData\Local\Temp\cc9deEx8.s 			page 13


 156:main.c        ****         if(C3_sum==0){
 530              		.loc 1 156 0
 531 0056 104B     		ldr	r3, .L39+16
 532 0058 1B78     		ldrb	r3, [r3]	@ zero_extendqisi2
 533 005a 93B9     		cbnz	r3, .L36
 157:main.c        **** //           int32 current_encoder = abs(QuadDec_M2_GetCounter());
 158:main.c        ****            if(abs(QuadDec_M2_GetCounter()) < 80+encoder_value_sum_M2){
 534              		.loc 1 158 0
 535 005c FFF7FEFF 		bl	QuadDec_M2_GetCounter
 536              	.LVL48:
 537 0060 0028     		cmp	r0, #0
 538 0062 B8BF     		it	lt
 539 0064 4042     		rsblt	r0, r0, #0
 540 0066 0D4B     		ldr	r3, .L39+20
 541 0068 DB68     		ldr	r3, [r3, #12]
 542 006a 5033     		adds	r3, r3, #80
 543 006c 9842     		cmp	r0, r3
 544 006e 02DA     		bge	.L37
 159:main.c        ****                 turnRight();
 545              		.loc 1 159 0
 546 0070 FFF7FEFF 		bl	turnRight
 547              	.LVL49:
 548 0074 E6E7     		b	.L32
 549              	.L37:
 160:main.c        ****                 
 161:main.c        ****             }else{
 162:main.c        ****                 LED_1_Write(1);
 550              		.loc 1 162 0
 551 0076 0120     		movs	r0, #1
 552 0078 FFF7FEFF 		bl	LED_1_Write
 553              	.LVL50:
 163:main.c        ****                 stop();   
 554              		.loc 1 163 0
 555 007c FFF7FEFF 		bl	stop
 556              	.LVL51:
 557 0080 E0E7     		b	.L32
 558              	.L36:
 164:main.c        ****             }
 165:main.c        ****         }else{
 166:main.c        ****          stop();   
 559              		.loc 1 166 0
 560 0082 FFF7FEFF 		bl	stop
 561              	.LVL52:
 562 0086 DDE7     		b	.L32
 563              	.L40:
 564              		.align	2
 565              	.L39:
 566 0088 00000000 		.word	isr_1_handler
 567 008c 00000000 		.word	isr_2_handler
 568 0090 00000000 		.word	C0_sum
 569 0094 00000000 		.word	C1_sum
 570 0098 00000000 		.word	C3_sum
 571 009c 00000000 		.word	.LANCHOR1
 572              		.cfi_endproc
 573              	.LFE72:
 574              		.size	main, .-main
 575              		.global	current_state
ARM GAS  C:\Users\ukul426\AppData\Local\Temp\cc9deEx8.s 			page 14


 576              		.global	continue_turn
 577              		.global	counter
 578              		.global	is_turning
 579              		.comm	current_encoder,4,4
 580              		.global	PWM_L
 581              		.global	PWM_R
 582              		.comm	C3_sum,1,1
 583              		.comm	C2_sum,1,1
 584              		.comm	C1_sum,1,1
 585              		.comm	C0_sum,1,1
 586              		.global	count
 587              		.global	encoder_value_sum_M2
 588              		.global	encoder_value_sum_M1
 589              		.global	target_diatance
 590              		.global	distance_M2
 591              		.global	distance_M1
 592              		.global	timeInterval_s
 593              		.global	wheelCircumference_cm
 594              		.global	CPR
 595              		.global	encoderCounts_M2
 596              		.global	encoderCounts_M1
 597              		.data
 598              		.align	3
 599              		.set	.LANCHOR0,. + 0
 600              		.type	counter, %object
 601              		.size	counter, 1
 602              	counter:
 603 0000 01       		.byte	1
 604 0001 000000   		.space	3
 605              		.type	CPR, %object
 606              		.size	CPR, 4
 607              	CPR:
 608 0004 E4000000 		.word	228
 609              		.type	wheelCircumference_cm, %object
 610              		.size	wheelCircumference_cm, 4
 611              	wheelCircumference_cm:
 612 0008 7201A241 		.word	1101136242
 613              		.type	target_diatance, %object
 614              		.size	target_diatance, 4
 615              	target_diatance:
 616 000c 0F000000 		.word	15
 617              		.type	timeInterval_s, %object
 618              		.size	timeInterval_s, 8
 619              	timeInterval_s:
 620 0010 0C022B87 		.word	-2027224564
 621 0014 16D92540 		.word	1076222230
 622              		.bss
 623              		.align	2
 624              		.set	.LANCHOR1,. + 0
 625              		.type	encoderCounts_M1, %object
 626              		.size	encoderCounts_M1, 4
 627              	encoderCounts_M1:
 628 0000 00000000 		.space	4
 629              		.type	encoderCounts_M2, %object
 630              		.size	encoderCounts_M2, 4
 631              	encoderCounts_M2:
 632 0004 00000000 		.space	4
ARM GAS  C:\Users\ukul426\AppData\Local\Temp\cc9deEx8.s 			page 15


 633              		.type	encoder_value_sum_M1, %object
 634              		.size	encoder_value_sum_M1, 4
 635              	encoder_value_sum_M1:
 636 0008 00000000 		.space	4
 637              		.type	encoder_value_sum_M2, %object
 638              		.size	encoder_value_sum_M2, 4
 639              	encoder_value_sum_M2:
 640 000c 00000000 		.space	4
 641              		.type	distance_M1, %object
 642              		.size	distance_M1, 4
 643              	distance_M1:
 644 0010 00000000 		.space	4
 645              		.type	distance_M2, %object
 646              		.size	distance_M2, 4
 647              	distance_M2:
 648 0014 00000000 		.space	4
 649              		.type	count, %object
 650              		.size	count, 4
 651              	count:
 652 0018 00000000 		.space	4
 653              		.type	PWM_L, %object
 654              		.size	PWM_L, 1
 655              	PWM_L:
 656 001c 00       		.space	1
 657              		.type	PWM_R, %object
 658              		.size	PWM_R, 1
 659              	PWM_R:
 660 001d 00       		.space	1
 661              		.type	current_state, %object
 662              		.size	current_state, 1
 663              	current_state:
 664 001e 00       		.space	1
 665              		.type	continue_turn, %object
 666              		.size	continue_turn, 1
 667              	continue_turn:
 668 001f 00       		.space	1
 669              		.type	is_turning, %object
 670              		.size	is_turning, 1
 671              	is_turning:
 672 0020 00       		.space	1
 673              		.text
 674              	.Letext0:
 675              		.file 2 "c:\\program files (x86)\\cypress\\psoc creator\\4.2\\psoc creator\\import\\gnu\\arm\\5.4.
 676              		.file 3 "c:\\program files (x86)\\cypress\\psoc creator\\4.2\\psoc creator\\import\\gnu\\arm\\5.4.
 677              		.file 4 "Generated_Source\\PSoC5/cytypes.h"
 678              		.file 5 "Generated_Source\\PSoC5/core_cm3.h"
 679              		.file 6 "Generated_Source\\PSoC5/QuadDec_M1.h"
 680              		.file 7 "Generated_Source\\PSoC5/QuadDec_M2.h"
 681              		.file 8 "Generated_Source\\PSoC5/Timer_1.h"
 682              		.file 9 "Generated_Source\\PSoC5/Comp_0.h"
 683              		.file 10 "Generated_Source\\PSoC5/Comp_1.h"
 684              		.file 11 "Generated_Source\\PSoC5/Comp_2.h"
 685              		.file 12 "Generated_Source\\PSoC5/Comp_3.h"
 686              		.file 13 "Generated_Source\\PSoC5/PWM_2.h"
 687              		.file 14 "Generated_Source\\PSoC5/PWM_1.h"
 688              		.file 15 "Generated_Source\\PSoC5/isr_1.h"
 689              		.file 16 "Generated_Source\\PSoC5/isr_2.h"
ARM GAS  C:\Users\ukul426\AppData\Local\Temp\cc9deEx8.s 			page 16


 690              		.file 17 "Generated_Source\\PSoC5/Clock_PWM.h"
 691              		.file 18 "Generated_Source\\PSoC5/LED_1.h"