ARM GAS  C:\Users\dulan\AppData\Local\Temp\ccEgM5Ez.s 			page 1


   1              		.syntax unified
   2              		.cpu cortex-m3
   3              		.fpu softvfp
   4              		.eabi_attribute 20, 1
   5              		.eabi_attribute 21, 1
   6              		.eabi_attribute 23, 3
   7              		.eabi_attribute 24, 1
   8              		.eabi_attribute 25, 1
   9              		.eabi_attribute 26, 1
  10              		.eabi_attribute 30, 1
  11              		.eabi_attribute 34, 1
  12              		.eabi_attribute 18, 4
  13              		.thumb
  14              		.syntax unified
  15              		.file	"main.c"
  16              		.text
  17              	.Ltext0:
  18              		.cfi_sections	.debug_frame
  19              		.section	.text.isr_3_interrupt,"ax",%progbits
  20              		.align	2
  21              		.global	isr_3_interrupt
  22              		.thumb
  23              		.thumb_func
  24              		.type	isr_3_interrupt, %function
  25              	isr_3_interrupt:
  26              	.LFB64:
  27              		.file 1 "main.c"
   1:main.c        **** /* ========================================
   2:main.c        ****  *
   3:main.c        ****  * Copyright YOUR COMPANY, THE YEAR
   4:main.c        ****  * All Rights Reserved
   5:main.c        ****  * UNPUBLISHED, LICENSED SOFTWARE.
   6:main.c        ****  *
   7:main.c        ****  * CONFIDENTIAL AND PROPRIETARY INFORMATION
   8:main.c        ****  * WHICH IS THE PROPERTY OF your company.
   9:main.c        ****  *
  10:main.c        ****  * ========================================
  11:main.c        **** */
  12:main.c        **** /* ========================================
  13:main.c        ****  * Fully working code: 
  14:main.c        ****  * PWM      : 
  15:main.c        ****  * Encoder  : 
  16:main.c        ****  * ADC      :
  17:main.c        ****  * USB      : port displays speed and position.
  18:main.c        ****  * CMD: "PW xx"
  19:main.c        ****  * Copyright Univ of Auckland, 2016
  20:main.c        ****  * All Rights Reserved
  21:main.c        ****  * UNPUBLISHED, LICENSED SOFTWARE.
  22:main.c        ****  *
  23:main.c        ****  * CONFIDENTIAL AND PROPRIETARY INFORMATION
  24:main.c        ****  * WHICH IS THE PROPERTY OF Univ of Auckland.
  25:main.c        ****  *
  26:main.c        ****  * ========================================
  27:main.c        **** */
  28:main.c        **** #include <stdio.h>
  29:main.c        **** #include <string.h>
  30:main.c        **** #include <stdlib.h>
ARM GAS  C:\Users\dulan\AppData\Local\Temp\ccEgM5Ez.s 			page 2


  31:main.c        **** #include <project.h>
  32:main.c        **** 
  33:main.c        **** 
  34:main.c        **** #include "project.h"
  35:main.c        **** 
  36:main.c        **** CY_ISR(isr_3_interrupt) {
  28              		.loc 1 36 0
  29              		.cfi_startproc
  30              		@ args = 0, pretend = 0, frame = 0
  31              		@ frame_needed = 0, uses_anonymous_args = 0
  32 0000 08B5     		push	{r3, lr}
  33              		.cfi_def_cfa_offset 8
  34              		.cfi_offset 3, -8
  35              		.cfi_offset 14, -4
  37:main.c        **** //    if(Comp_1_GetCompare()==1){
  38:main.c        **** //        LED_Write(1);
  39:main.c        **** //    }
  40:main.c        **** //    else{
  41:main.c        **** //        LED_Write(0);
  42:main.c        **** //    }
  43:main.c        ****     Comp_1_Init();
  36              		.loc 1 43 0
  37 0002 FFF7FEFF 		bl	Comp_1_Init
  38              	.LVL0:
  39 0006 08BD     		pop	{r3, pc}
  40              		.cfi_endproc
  41              	.LFE64:
  42              		.size	isr_3_interrupt, .-isr_3_interrupt
  43              		.section	.text.main,"ax",%progbits
  44              		.align	2
  45              		.global	main
  46              		.thumb
  47              		.thumb_func
  48              		.type	main, %function
  49              	main:
  50              	.LFB65:
  44:main.c        **** 
  45:main.c        **** }
  46:main.c        **** 
  47:main.c        **** int main(void)
  48:main.c        **** {
  51              		.loc 1 48 0
  52              		.cfi_startproc
  53              		@ Volatile: function does not return.
  54              		@ args = 0, pretend = 0, frame = 0
  55              		@ frame_needed = 0, uses_anonymous_args = 0
  56 0000 08B5     		push	{r3, lr}
  57              		.cfi_def_cfa_offset 8
  58              		.cfi_offset 3, -8
  59              		.cfi_offset 14, -4
  49:main.c        ****     CyGlobalIntEnable; /* Enable global interrupts. */
  60              		.loc 1 49 0
  61              		.syntax unified
  62              	@ 49 "main.c" 1
  63 0002 62B6     		CPSIE   i
  64              	@ 0 "" 2
  50:main.c        **** 
ARM GAS  C:\Users\dulan\AppData\Local\Temp\ccEgM5Ez.s 			page 3


  51:main.c        ****     /* Place your initialization/startup code here (e.g. MyInst_Start()) */
  52:main.c        ****     Timer_2_Start();
  65              		.loc 1 52 0
  66              		.thumb
  67              		.syntax unified
  68 0004 FFF7FEFF 		bl	Timer_2_Start
  69              	.LVL1:
  53:main.c        ****     Timer_2_SetInterruptMode(0x02);
  70              		.loc 1 53 0
  71 0008 0220     		movs	r0, #2
  72 000a FFF7FEFF 		bl	Timer_2_SetInterruptMode
  73              	.LVL2:
  54:main.c        ****     isr_3_Start();
  74              		.loc 1 54 0
  75 000e FFF7FEFF 		bl	isr_3_Start
  76              	.LVL3:
  55:main.c        ****     Comp_1_Start();
  77              		.loc 1 55 0
  78 0012 FFF7FEFF 		bl	Comp_1_Start
  79              	.LVL4:
  80              	.L4:
  81 0016 FEE7     		b	.L4
  82              		.cfi_endproc
  83              	.LFE65:
  84              		.size	main, .-main
  85              		.text
  86              	.Letext0:
  87              		.file 2 "c:\\program files (x86)\\cypress\\psoc creator\\4.4\\psoc creator\\import\\gnu\\arm\\5.4.
  88              		.file 3 "c:\\program files (x86)\\cypress\\psoc creator\\4.4\\psoc creator\\import\\gnu\\arm\\5.4.
  89              		.file 4 "Generated_Source\\PSoC5/Comp_1.h"
  90              		.file 5 "Generated_Source\\PSoC5/Timer_2.h"
  91              		.file 6 "Generated_Source\\PSoC5/isr_3.h"
  92              		.file 7 "Generated_Source\\PSoC5/core_cm3.h"