ARM GAS  C:\Users\umasu\AppData\Local\Temp\ccRLEURa.s 			page 1


   1              		.syntax unified
   2              		.cpu cortex-m3
   3              		.fpu softvfp
   4              		.eabi_attribute 20, 1
   5              		.eabi_attribute 21, 1
   6              		.eabi_attribute 23, 3
   7              		.eabi_attribute 24, 1
   8              		.eabi_attribute 25, 1
   9              		.eabi_attribute 26, 1
  10              		.eabi_attribute 30, 1
  11              		.eabi_attribute 34, 1
  12              		.eabi_attribute 18, 4
  13              		.thumb
  14              		.syntax unified
  15              		.file	"main.c"
  16              		.text
  17              	.Ltext0:
  18              		.cfi_sections	.debug_frame
  19              		.section	.text.isr_1_handler,"ax",%progbits
  20              		.align	2
  21              		.global	isr_1_handler
  22              		.thumb
  23              		.thumb_func
  24              		.type	isr_1_handler, %function
  25              	isr_1_handler:
  26              	.LFB64:
  27              		.file 1 "main.c"
   1:main.c        **** /* ========================================
   2:main.c        ****  * Fully working code: 
   3:main.c        ****  * PWM      : 
   4:main.c        ****  * Encoder  : 
   5:main.c        ****  * ADC      :
   6:main.c        ****  * USB      : port displays speed and position.
   7:main.c        ****  * CMD: "PW xx"
   8:main.c        ****  * Copyright Univ of Auckland, 2016
   9:main.c        ****  * All Rights Reserved
  10:main.c        ****  * UNPUBLISHED, LICENSED SOFTWARE.
  11:main.c        ****  *
  12:main.c        ****  * CONFIDENTIAL AND PROPRIETARY INFORMATION
  13:main.c        ****  * WHICH IS THE PROPERTY OF Univ of Auckland.
  14:main.c        ****  *
  15:main.c        ****  * ========================================
  16:main.c        **** */
  17:main.c        **** #include <cytypes.h>
  18:main.c        **** #include <stdio.h>
  19:main.c        **** #include <string.h>
  20:main.c        **** #include <stdlib.h>
  21:main.c        **** #include <project.h>
  22:main.c        **** #include <stdbool.h>
  23:main.c        **** #include <math.h>
  24:main.c        **** #include "project.h"
  25:main.c        **** #define TURN_ANGLE 90 // Desired turn angle in degrees
  26:main.c        **** 
  27:main.c        **** // Define PID controller parameters
  28:main.c        **** float Kp = 1.0;  // Proportional gain
  29:main.c        **** float Ki = 0.1;  // Integral gain
  30:main.c        **** float Kd = 0.01; // Derivative gain
ARM GAS  C:\Users\umasu\AppData\Local\Temp\ccRLEURa.s 			page 2


  31:main.c        **** 
  32:main.c        **** float previous_error = 0;
  33:main.c        **** float integral = 0;
  34:main.c        **** float output = 0;
  35:main.c        **** 
  36:main.c        **** 
  37:main.c        **** // Define states for the state machine
  38:main.c        **** typedef enum {
  39:main.c        ****     GO_STRAIGHT,
  40:main.c        ****     TURN_LEFT,
  41:main.c        ****     TURN_RIGHT,
  42:main.c        ****     RIGHT_ADJUST,
  43:main.c        ****     LEFT_ADJUST,
  44:main.c        ****     STOP,
  45:main.c        **** } RobotState;
  46:main.c        **** 
  47:main.c        **** //distance calculation paras
  48:main.c        **** int32 encoderCounts_M1 = 0;  
  49:main.c        **** int32 encoderCounts_M2 = 0;  
  50:main.c        **** int32 CPR = 228;  // Adjusted for 4x resolution(228/4)
  51:main.c        **** float wheelCircumference_cm = (M_PI*64.46)/10;// wheel circumference wheelDiameter_mm = 64.46)
  52:main.c        **** double timeInterval_s = 10.924;  // Effective time interval( (timer period )2.731*4)
  53:main.c        **** float32  distance_M1 = 0;
  54:main.c        **** float32  distance_M2 = 0;
  55:main.c        **** float32  current_distance_M1 = 0;
  56:main.c        **** float32  current_distance_M2 = 0;
  57:main.c        **** float32 target_diatance = 0;//cm
  58:main.c        **** float32 turn_back_diatance = 10.125;//cm
  59:main.c        **** 
  60:main.c        **** float32 speed_M1 = 0;
  61:main.c        **** float32 speed_M2 = 0;
  62:main.c        **** int32 encoder_value_sum_M1 = 0;
  63:main.c        **** int32 encoder_value_sum_M2 = 0;
  64:main.c        **** uint8 counter = 1;
  65:main.c        **** float current_distance = 0;
  66:main.c        **** 
  67:main.c        **** 
  68:main.c        **** 
  69:main.c        **** 
  70:main.c        **** uint32 count = 0;
  71:main.c        **** uint32 turn_counter = 0;
  72:main.c        **** bool left_on=false;
  73:main.c        **** bool right_on;
  74:main.c        **** bool middle_on;
  75:main.c        **** bool turn_complete=true;
  76:main.c        **** 
  77:main.c        **** uint8 comp0_sum;
  78:main.c        **** uint8 comp1_sum;
  79:main.c        **** uint8 comp2_sum;
  80:main.c        **** uint8 comp3_sum;
  81:main.c        **** 
  82:main.c        **** uint8 PWM_R=80;
  83:main.c        **** uint8 PWM_L=81;
  84:main.c        **** float error = 0;
  85:main.c        **** bool s0_flag;
  86:main.c        **** bool s1_flag;
  87:main.c        **** bool s2_flag;
ARM GAS  C:\Users\umasu\AppData\Local\Temp\ccRLEURa.s 			page 3


  88:main.c        **** bool s3_flag;
  89:main.c        **** 
  90:main.c        **** RobotState current_state = GO_STRAIGHT;// intialse state
  91:main.c        **** 
  92:main.c        **** 
  93:main.c        **** 
  94:main.c        **** 
  95:main.c        **** CY_ISR(isr_1_handler) {
  28              		.loc 1 95 0
  29              		.cfi_startproc
  30              		@ args = 0, pretend = 0, frame = 0
  31              		@ frame_needed = 0, uses_anonymous_args = 0
  32 0000 08B5     		push	{r3, lr}
  33              		.cfi_def_cfa_offset 8
  34              		.cfi_offset 3, -8
  35              		.cfi_offset 14, -4
  96:main.c        ****     //every 1ms 
  97:main.c        ****     
  98:main.c        ****     //sum up comp values every 1ms
  99:main.c        ****     comp0_sum+=Comp_0_GetCompare();
  36              		.loc 1 99 0
  37 0002 FFF7FEFF 		bl	Comp_0_GetCompare
  38              	.LVL0:
  39 0006 134A     		ldr	r2, .L4
  40 0008 1378     		ldrb	r3, [r2]	@ zero_extendqisi2
  41 000a 1844     		add	r0, r0, r3
  42 000c 1070     		strb	r0, [r2]
 100:main.c        ****     comp1_sum+=Comp_1_GetCompare();
  43              		.loc 1 100 0
  44 000e FFF7FEFF 		bl	Comp_1_GetCompare
  45              	.LVL1:
  46 0012 114A     		ldr	r2, .L4+4
  47 0014 1378     		ldrb	r3, [r2]	@ zero_extendqisi2
  48 0016 1844     		add	r0, r0, r3
  49 0018 1070     		strb	r0, [r2]
 101:main.c        ****     comp2_sum+=Comp_2_GetCompare();
  50              		.loc 1 101 0
  51 001a FFF7FEFF 		bl	Comp_2_GetCompare
  52              	.LVL2:
  53 001e 0F4A     		ldr	r2, .L4+8
  54 0020 1378     		ldrb	r3, [r2]	@ zero_extendqisi2
  55 0022 1844     		add	r0, r0, r3
  56 0024 1070     		strb	r0, [r2]
 102:main.c        ****     comp3_sum+=Comp_3_GetCompare();
  57              		.loc 1 102 0
  58 0026 FFF7FEFF 		bl	Comp_3_GetCompare
  59              	.LVL3:
  60 002a 0D4A     		ldr	r2, .L4+12
  61 002c 1378     		ldrb	r3, [r2]	@ zero_extendqisi2
  62 002e 1844     		add	r0, r0, r3
  63 0030 1070     		strb	r0, [r2]
 103:main.c        ****     
 104:main.c        ****     
 105:main.c        ****     if(count==8){
  64              		.loc 1 105 0
  65 0032 0C4B     		ldr	r3, .L4+16
  66 0034 1B68     		ldr	r3, [r3]
ARM GAS  C:\Users\umasu\AppData\Local\Temp\ccRLEURa.s 			page 4


  67 0036 082B     		cmp	r3, #8
  68 0038 0AD1     		bne	.L1
 106:main.c        ****         //reset to check again every 8ms
 107:main.c        ****         comp0_sum=0;
  69              		.loc 1 107 0
  70 003a 0023     		movs	r3, #0
  71 003c 054A     		ldr	r2, .L4
  72 003e 1370     		strb	r3, [r2]
 108:main.c        ****         comp1_sum=0;
  73              		.loc 1 108 0
  74 0040 054A     		ldr	r2, .L4+4
  75 0042 1370     		strb	r3, [r2]
 109:main.c        ****         comp2_sum=0;
  76              		.loc 1 109 0
  77 0044 054A     		ldr	r2, .L4+8
  78 0046 1370     		strb	r3, [r2]
 110:main.c        ****         comp3_sum=0;
  79              		.loc 1 110 0
  80 0048 054A     		ldr	r2, .L4+12
  81 004a 1370     		strb	r3, [r2]
 111:main.c        ****         count=0;
  82              		.loc 1 111 0
  83 004c 054A     		ldr	r2, .L4+16
  84 004e 1360     		str	r3, [r2]
  85              	.L1:
  86 0050 08BD     		pop	{r3, pc}
  87              	.L5:
  88 0052 00BF     		.align	2
  89              	.L4:
  90 0054 00000000 		.word	comp0_sum
  91 0058 00000000 		.word	comp1_sum
  92 005c 00000000 		.word	comp2_sum
  93 0060 00000000 		.word	comp3_sum
  94 0064 00000000 		.word	.LANCHOR0
  95              		.cfi_endproc
  96              	.LFE64:
  97              		.size	isr_1_handler, .-isr_1_handler
  98              		.global	__aeabi_i2f
  99              		.global	__aeabi_fmul
 100              		.section	.text.isr_3_handler,"ax",%progbits
 101              		.align	2
 102              		.global	isr_3_handler
 103              		.thumb
 104              		.thumb_func
 105              		.type	isr_3_handler, %function
 106              	isr_3_handler:
 107              	.LFB66:
 112:main.c        ****     }
 113:main.c        ****    
 114:main.c        **** }
 115:main.c        **** 
 116:main.c        **** CY_ISR(isr_2_handler) {
 117:main.c        ****     
 118:main.c        ****     if (comp0_sum==0) {
 119:main.c        ****         s0_flag = true;
 120:main.c        ****     }
 121:main.c        ****     if (comp1_sum==0) {
ARM GAS  C:\Users\umasu\AppData\Local\Temp\ccRLEURa.s 			page 5


 122:main.c        ****         s1_flag = true;
 123:main.c        ****     }
 124:main.c        **** 
 125:main.c        ****     if (comp2_sum==0 ) {
 126:main.c        ****         s2_flag = true;
 127:main.c        ****     }
 128:main.c        ****     if (comp3_sum==0 ) {
 129:main.c        ****         s3_flag = true;
 130:main.c        ****     }
 131:main.c        ****     
 132:main.c        ****     
 133:main.c        **** }
 134:main.c        **** 
 135:main.c        **** CY_ISR(isr_3_handler) {
 108              		.loc 1 135 0
 109              		.cfi_startproc
 110              		@ args = 0, pretend = 0, frame = 0
 111              		@ frame_needed = 0, uses_anonymous_args = 0
 112 0000 F8B5     		push	{r3, r4, r5, r6, r7, lr}
 113              		.cfi_def_cfa_offset 24
 114              		.cfi_offset 3, -24
 115              		.cfi_offset 4, -20
 116              		.cfi_offset 5, -16
 117              		.cfi_offset 6, -12
 118              		.cfi_offset 7, -8
 119              		.cfi_offset 14, -4
 136:main.c        ****     if (counter < 10){
 120              		.loc 1 136 0
 121 0002 1D4B     		ldr	r3, .L10
 122 0004 1B78     		ldrb	r3, [r3]	@ zero_extendqisi2
 123 0006 092B     		cmp	r3, #9
 124 0008 03D8     		bhi	.L7
 137:main.c        ****         counter++;
 125              		.loc 1 137 0
 126 000a 0133     		adds	r3, r3, #1
 127 000c 1A4A     		ldr	r2, .L10
 128 000e 1370     		strb	r3, [r2]
 129 0010 2EE0     		b	.L8
 130              	.L7:
 138:main.c        ****     }else{
 139:main.c        ****         counter = 1;
 131              		.loc 1 139 0
 132 0012 194E     		ldr	r6, .L10
 133 0014 0123     		movs	r3, #1
 134 0016 3370     		strb	r3, [r6]
 140:main.c        ****         // Encoder counts (negative due to counterclockwise rotation)
 141:main.c        ****         encoderCounts_M1 = abs(QuadDec_M1_GetCounter());//QuadDec_M1_GetCounter();
 135              		.loc 1 141 0
 136 0018 FFF7FEFF 		bl	QuadDec_M1_GetCounter
 137              	.LVL4:
 138 001c 0028     		cmp	r0, #0
 139 001e B8BF     		it	lt
 140 0020 4042     		rsblt	r0, r0, #0
 141 0022 164C     		ldr	r4, .L10+4
 142 0024 6060     		str	r0, [r4, #4]
 142:main.c        ****         encoderCounts_M2 = abs(QuadDec_M2_GetCounter());
 143              		.loc 1 142 0
ARM GAS  C:\Users\umasu\AppData\Local\Temp\ccRLEURa.s 			page 6


 144 0026 FFF7FEFF 		bl	QuadDec_M2_GetCounter
 145              	.LVL5:
 146 002a 0028     		cmp	r0, #0
 147 002c B8BF     		it	lt
 148 002e 4042     		rsblt	r0, r0, #0
 149 0030 A060     		str	r0, [r4, #8]
 143:main.c        ****         
 144:main.c        ****         // sum of encodercounts
 145:main.c        ****         encoder_value_sum_M1 += encoderCounts_M1;
 150              		.loc 1 145 0
 151 0032 E268     		ldr	r2, [r4, #12]
 152 0034 6368     		ldr	r3, [r4, #4]
 153 0036 1A44     		add	r2, r2, r3
 154 0038 E260     		str	r2, [r4, #12]
 146:main.c        ****         encoder_value_sum_M2 += encoderCounts_M2;
 155              		.loc 1 146 0
 156 003a 2369     		ldr	r3, [r4, #16]
 157 003c C518     		adds	r5, r0, r3
 158 003e 2561     		str	r5, [r4, #16]
 147:main.c        ****         
 148:main.c        ****         // distance calculations 
 149:main.c        ****         distance_M1 = (encoder_value_sum_M1/CPR) * wheelCircumference_cm;
 159              		.loc 1 149 0
 160 0040 7768     		ldr	r7, [r6, #4]
 161 0042 B668     		ldr	r6, [r6, #8]	@ float
 162 0044 92FBF7F0 		sdiv	r0, r2, r7
 163 0048 FFF7FEFF 		bl	__aeabi_i2f
 164              	.LVL6:
 165 004c 3146     		mov	r1, r6
 166 004e FFF7FEFF 		bl	__aeabi_fmul
 167              	.LVL7:
 168 0052 6061     		str	r0, [r4, #20]	@ float
 150:main.c        ****         distance_M2 = (encoder_value_sum_M2/CPR) * wheelCircumference_cm;
 169              		.loc 1 150 0
 170 0054 95FBF7F0 		sdiv	r0, r5, r7
 171 0058 FFF7FEFF 		bl	__aeabi_i2f
 172              	.LVL8:
 173 005c 3146     		mov	r1, r6
 174 005e FFF7FEFF 		bl	__aeabi_fmul
 175              	.LVL9:
 176 0062 A061     		str	r0, [r4, #24]	@ float
 151:main.c        **** 
 152:main.c        ****         //reset the encoder counters 
 153:main.c        ****         QuadDec_M1_SetCounter(0);
 177              		.loc 1 153 0
 178 0064 0020     		movs	r0, #0
 179 0066 FFF7FEFF 		bl	QuadDec_M1_SetCounter
 180              	.LVL10:
 154:main.c        ****         QuadDec_M2_SetCounter(0);     
 181              		.loc 1 154 0
 182 006a 0020     		movs	r0, #0
 183 006c FFF7FEFF 		bl	QuadDec_M2_SetCounter
 184              	.LVL11:
 185              	.L8:
 155:main.c        ****     }
 156:main.c        ****         Timer_1_ReadStatusRegister();
 186              		.loc 1 156 0
ARM GAS  C:\Users\umasu\AppData\Local\Temp\ccRLEURa.s 			page 7


 187 0070 FFF7FEFF 		bl	Timer_1_ReadStatusRegister
 188              	.LVL12:
 189 0074 F8BD     		pop	{r3, r4, r5, r6, r7, pc}
 190              	.L11:
 191 0076 00BF     		.align	2
 192              	.L10:
 193 0078 00000000 		.word	.LANCHOR1
 194 007c 00000000 		.word	.LANCHOR0
 195              		.cfi_endproc
 196              	.LFE66:
 197              		.size	isr_3_handler, .-isr_3_handler
 198              		.section	.text.isr_2_handler,"ax",%progbits
 199              		.align	2
 200              		.global	isr_2_handler
 201              		.thumb
 202              		.thumb_func
 203              		.type	isr_2_handler, %function
 204              	isr_2_handler:
 205              	.LFB65:
 116:main.c        ****     
 206              		.loc 1 116 0
 207              		.cfi_startproc
 208              		@ args = 0, pretend = 0, frame = 0
 209              		@ frame_needed = 0, uses_anonymous_args = 0
 210              		@ link register save eliminated.
 118:main.c        ****         s0_flag = true;
 211              		.loc 1 118 0
 212 0000 0C4B     		ldr	r3, .L17
 213 0002 1B78     		ldrb	r3, [r3]	@ zero_extendqisi2
 214 0004 13B9     		cbnz	r3, .L13
 119:main.c        ****     }
 215              		.loc 1 119 0
 216 0006 0122     		movs	r2, #1
 217 0008 0B4B     		ldr	r3, .L17+4
 218 000a 1A70     		strb	r2, [r3]
 219              	.L13:
 121:main.c        ****         s1_flag = true;
 220              		.loc 1 121 0
 221 000c 0B4B     		ldr	r3, .L17+8
 222 000e 1B78     		ldrb	r3, [r3]	@ zero_extendqisi2
 223 0010 13B9     		cbnz	r3, .L14
 122:main.c        ****     }
 224              		.loc 1 122 0
 225 0012 0122     		movs	r2, #1
 226 0014 0A4B     		ldr	r3, .L17+12
 227 0016 1A70     		strb	r2, [r3]
 228              	.L14:
 125:main.c        ****         s2_flag = true;
 229              		.loc 1 125 0
 230 0018 0A4B     		ldr	r3, .L17+16
 231 001a 1B78     		ldrb	r3, [r3]	@ zero_extendqisi2
 232 001c 13B9     		cbnz	r3, .L15
 126:main.c        ****     }
 233              		.loc 1 126 0
 234 001e 0122     		movs	r2, #1
 235 0020 094B     		ldr	r3, .L17+20
 236 0022 1A70     		strb	r2, [r3]
ARM GAS  C:\Users\umasu\AppData\Local\Temp\ccRLEURa.s 			page 8


 237              	.L15:
 128:main.c        ****         s3_flag = true;
 238              		.loc 1 128 0
 239 0024 094B     		ldr	r3, .L17+24
 240 0026 1B78     		ldrb	r3, [r3]	@ zero_extendqisi2
 241 0028 13B9     		cbnz	r3, .L12
 129:main.c        ****     }
 242              		.loc 1 129 0
 243 002a 0122     		movs	r2, #1
 244 002c 084B     		ldr	r3, .L17+28
 245 002e 1A70     		strb	r2, [r3]
 246              	.L12:
 247 0030 7047     		bx	lr
 248              	.L18:
 249 0032 00BF     		.align	2
 250              	.L17:
 251 0034 00000000 		.word	comp0_sum
 252 0038 00000000 		.word	s0_flag
 253 003c 00000000 		.word	comp1_sum
 254 0040 00000000 		.word	s1_flag
 255 0044 00000000 		.word	comp2_sum
 256 0048 00000000 		.word	s2_flag
 257 004c 00000000 		.word	comp3_sum
 258 0050 00000000 		.word	s3_flag
 259              		.cfi_endproc
 260              	.LFE65:
 261              		.size	isr_2_handler, .-isr_2_handler
 262              		.section	.text.stop,"ax",%progbits
 263              		.align	2
 264              		.global	stop
 265              		.thumb
 266              		.thumb_func
 267              		.type	stop, %function
 268              	stop:
 269              	.LFB67:
 157:main.c        **** }
 158:main.c        **** 
 159:main.c        **** 
 160:main.c        **** void stop(){
 270              		.loc 1 160 0
 271              		.cfi_startproc
 272              		@ args = 0, pretend = 0, frame = 0
 273              		@ frame_needed = 0, uses_anonymous_args = 0
 274 0000 08B5     		push	{r3, lr}
 275              		.cfi_def_cfa_offset 8
 276              		.cfi_offset 3, -8
 277              		.cfi_offset 14, -4
 161:main.c        ****     PWM_1_WriteCompare(50);
 278              		.loc 1 161 0
 279 0002 3220     		movs	r0, #50
 280 0004 FFF7FEFF 		bl	PWM_1_WriteCompare
 281              	.LVL13:
 162:main.c        ****     PWM_2_WriteCompare(50);
 282              		.loc 1 162 0
 283 0008 3220     		movs	r0, #50
 284 000a FFF7FEFF 		bl	PWM_2_WriteCompare
 285              	.LVL14:
ARM GAS  C:\Users\umasu\AppData\Local\Temp\ccRLEURa.s 			page 9


 286 000e 08BD     		pop	{r3, pc}
 287              		.cfi_endproc
 288              	.LFE67:
 289              		.size	stop, .-stop
 290              		.section	.text.goStraight,"ax",%progbits
 291              		.align	2
 292              		.global	goStraight
 293              		.thumb
 294              		.thumb_func
 295              		.type	goStraight, %function
 296              	goStraight:
 297              	.LFB68:
 163:main.c        **** }
 164:main.c        **** 
 165:main.c        **** void goStraight(){
 298              		.loc 1 165 0
 299              		.cfi_startproc
 300              		@ args = 0, pretend = 0, frame = 0
 301              		@ frame_needed = 0, uses_anonymous_args = 0
 302 0000 08B5     		push	{r3, lr}
 303              		.cfi_def_cfa_offset 8
 304              		.cfi_offset 3, -8
 305              		.cfi_offset 14, -4
 166:main.c        ****     if(comp0_sum>0 && comp1_sum==0){
 306              		.loc 1 166 0
 307 0002 0F4B     		ldr	r3, .L26
 308 0004 1B78     		ldrb	r3, [r3]	@ zero_extendqisi2
 309 0006 4BB1     		cbz	r3, .L22
 310              		.loc 1 166 0 is_stmt 0 discriminator 1
 311 0008 0E4A     		ldr	r2, .L26+4
 312 000a 1278     		ldrb	r2, [r2]	@ zero_extendqisi2
 313 000c 32B9     		cbnz	r2, .L22
 167:main.c        ****         PWM_2_WriteCompare(PWM_2_ReadCompare()+ 1);
 314              		.loc 1 167 0 is_stmt 1
 315 000e FFF7FEFF 		bl	PWM_2_ReadCompare
 316              	.LVL15:
 317 0012 0130     		adds	r0, r0, #1
 318 0014 C0B2     		uxtb	r0, r0
 319 0016 FFF7FEFF 		bl	PWM_2_WriteCompare
 320              	.LVL16:
 321 001a 08BD     		pop	{r3, pc}
 322              	.L22:
 168:main.c        ****     }else if(comp0_sum==0 && comp1_sum>0){
 323              		.loc 1 168 0
 324 001c 4BB9     		cbnz	r3, .L24
 325              		.loc 1 168 0 is_stmt 0 discriminator 1
 326 001e 094B     		ldr	r3, .L26+4
 327 0020 1B78     		ldrb	r3, [r3]	@ zero_extendqisi2
 328 0022 33B1     		cbz	r3, .L24
 169:main.c        ****         PWM_1_WriteCompare(PWM_1_ReadCompare()+ 1);
 329              		.loc 1 169 0 is_stmt 1
 330 0024 FFF7FEFF 		bl	PWM_1_ReadCompare
 331              	.LVL17:
 332 0028 0130     		adds	r0, r0, #1
 333 002a C0B2     		uxtb	r0, r0
 334 002c FFF7FEFF 		bl	PWM_1_WriteCompare
 335              	.LVL18:
ARM GAS  C:\Users\umasu\AppData\Local\Temp\ccRLEURa.s 			page 10


 336 0030 08BD     		pop	{r3, pc}
 337              	.L24:
 170:main.c        ****     }else{
 171:main.c        ****         PWM_1_WriteCompare(70);
 338              		.loc 1 171 0
 339 0032 4620     		movs	r0, #70
 340 0034 FFF7FEFF 		bl	PWM_1_WriteCompare
 341              	.LVL19:
 172:main.c        ****         PWM_2_WriteCompare(71);
 342              		.loc 1 172 0
 343 0038 4720     		movs	r0, #71
 344 003a FFF7FEFF 		bl	PWM_2_WriteCompare
 345              	.LVL20:
 346 003e 08BD     		pop	{r3, pc}
 347              	.L27:
 348              		.align	2
 349              	.L26:
 350 0040 00000000 		.word	comp0_sum
 351 0044 00000000 		.word	comp1_sum
 352              		.cfi_endproc
 353              	.LFE68:
 354              		.size	goStraight, .-goStraight
 355              		.section	.text.calculateError,"ax",%progbits
 356              		.align	2
 357              		.global	calculateError
 358              		.thumb
 359              		.thumb_func
 360              		.type	calculateError, %function
 361              	calculateError:
 362              	.LFB69:
 173:main.c        ****     }
 174:main.c        **** }
 175:main.c        **** 
 176:main.c        **** 
 177:main.c        **** // Function to calculate error based on sensor inputs
 178:main.c        **** float calculateError() {
 363              		.loc 1 178 0
 364              		.cfi_startproc
 365              		@ args = 0, pretend = 0, frame = 0
 366              		@ frame_needed = 0, uses_anonymous_args = 0
 367 0000 70B5     		push	{r4, r5, r6, lr}
 368              		.cfi_def_cfa_offset 16
 369              		.cfi_offset 4, -16
 370              		.cfi_offset 5, -12
 371              		.cfi_offset 6, -8
 372              		.cfi_offset 14, -4
 179:main.c        ****     // Read sensor inputs (s0, s1, s2, s3) from your hardware
 180:main.c        **** //    int s0 = comp0_sum;
 181:main.c        **** //    int s1 = comp1_sum;
 182:main.c        **** //    int s2 = comp2_sum;
 183:main.c        **** //    int s3 = comp3_sum;
 184:main.c        ****         // Read sensor inputs (s0, s1, s2, s3)
 185:main.c        ****     int s0 = Comp_0_GetCompare();
 373              		.loc 1 185 0
 374 0002 FFF7FEFF 		bl	Comp_0_GetCompare
 375              	.LVL21:
 376 0006 0446     		mov	r4, r0
ARM GAS  C:\Users\umasu\AppData\Local\Temp\ccRLEURa.s 			page 11


 377              	.LVL22:
 186:main.c        ****     int s1 = Comp_1_GetCompare();
 378              		.loc 1 186 0
 379 0008 FFF7FEFF 		bl	Comp_1_GetCompare
 380              	.LVL23:
 381 000c 0546     		mov	r5, r0
 382              	.LVL24:
 187:main.c        ****     int s2 = Comp_2_GetCompare();
 383              		.loc 1 187 0
 384 000e FFF7FEFF 		bl	Comp_2_GetCompare
 385              	.LVL25:
 386 0012 0646     		mov	r6, r0
 387              	.LVL26:
 188:main.c        ****     int s3 = Comp_3_GetCompare();
 388              		.loc 1 188 0
 389 0014 FFF7FEFF 		bl	Comp_3_GetCompare
 390              	.LVL27:
 189:main.c        ****     
 190:main.c        **** 
 191:main.c        ****     if (s0 == 0 || s1 == 0) {
 391              		.loc 1 191 0
 392 0018 04B1     		cbz	r4, .L29
 393              		.loc 1 191 0 is_stmt 0 discriminator 1
 394 001a 1DB9     		cbnz	r5, .L30
 395              	.L29:
 192:main.c        ****         // Go straight
 193:main.c        ****         error = 0;
 396              		.loc 1 193 0 is_stmt 1
 397 001c 0022     		movs	r2, #0
 398 001e 074B     		ldr	r3, .L34
 399 0020 DA61     		str	r2, [r3, #28]	@ float
 400 0022 08E0     		b	.L31
 401              	.L30:
 194:main.c        ****     } else if (s2 == 0) {
 402              		.loc 1 194 0
 403 0024 1EB9     		cbnz	r6, .L32
 195:main.c        ****         // Turn left
 196:main.c        ****         error = 90; // Positive error
 404              		.loc 1 196 0
 405 0026 064A     		ldr	r2, .L34+4
 406 0028 044B     		ldr	r3, .L34
 407 002a DA61     		str	r2, [r3, #28]	@ float
 408 002c 03E0     		b	.L31
 409              	.L32:
 197:main.c        ****     } else if (s3 == 0) {
 410              		.loc 1 197 0
 411 002e 10B9     		cbnz	r0, .L31
 198:main.c        ****         // Turn right
 199:main.c        ****         error = -90; // Negative error
 412              		.loc 1 199 0
 413 0030 044A     		ldr	r2, .L34+8
 414 0032 024B     		ldr	r3, .L34
 415 0034 DA61     		str	r2, [r3, #28]	@ float
 416              	.L31:
 200:main.c        ****     }
 201:main.c        **** 
 202:main.c        ****     return error;
ARM GAS  C:\Users\umasu\AppData\Local\Temp\ccRLEURa.s 			page 12


 203:main.c        **** }
 417              		.loc 1 203 0
 418 0036 014B     		ldr	r3, .L34
 419 0038 D869     		ldr	r0, [r3, #28]	@ float
 420              	.LVL28:
 421 003a 70BD     		pop	{r4, r5, r6, pc}
 422              	.LVL29:
 423              	.L35:
 424              		.align	2
 425              	.L34:
 426 003c 00000000 		.word	.LANCHOR0
 427 0040 0000B442 		.word	1119092736
 428 0044 0000B4C2 		.word	-1028390912
 429              		.cfi_endproc
 430              	.LFE69:
 431              		.size	calculateError, .-calculateError
 432              		.section	.text.turnRight,"ax",%progbits
 433              		.align	2
 434              		.global	turnRight
 435              		.thumb
 436              		.thumb_func
 437              		.type	turnRight, %function
 438              	turnRight:
 439              	.LFB70:
 204:main.c        **** 
 205:main.c        ****     
 206:main.c        **** 
 207:main.c        **** 
 208:main.c        **** void turnRight(){
 440              		.loc 1 208 0
 441              		.cfi_startproc
 442              		@ args = 0, pretend = 0, frame = 0
 443              		@ frame_needed = 0, uses_anonymous_args = 0
 444 0000 08B5     		push	{r3, lr}
 445              		.cfi_def_cfa_offset 8
 446              		.cfi_offset 3, -8
 447              		.cfi_offset 14, -4
 209:main.c        ****     PWM_1_WriteCompare(30);
 448              		.loc 1 209 0
 449 0002 1E20     		movs	r0, #30
 450 0004 FFF7FEFF 		bl	PWM_1_WriteCompare
 451              	.LVL30:
 210:main.c        ****     PWM_2_WriteCompare(70);  
 452              		.loc 1 210 0
 453 0008 4620     		movs	r0, #70
 454 000a FFF7FEFF 		bl	PWM_2_WriteCompare
 455              	.LVL31:
 456 000e 08BD     		pop	{r3, pc}
 457              		.cfi_endproc
 458              	.LFE70:
 459              		.size	turnRight, .-turnRight
 460              		.section	.text.turnLeft,"ax",%progbits
 461              		.align	2
 462              		.global	turnLeft
 463              		.thumb
 464              		.thumb_func
 465              		.type	turnLeft, %function
ARM GAS  C:\Users\umasu\AppData\Local\Temp\ccRLEURa.s 			page 13


 466              	turnLeft:
 467              	.LFB71:
 211:main.c        **** }
 212:main.c        **** 
 213:main.c        **** void turnLeft(){
 468              		.loc 1 213 0
 469              		.cfi_startproc
 470              		@ args = 0, pretend = 0, frame = 0
 471              		@ frame_needed = 0, uses_anonymous_args = 0
 472 0000 08B5     		push	{r3, lr}
 473              		.cfi_def_cfa_offset 8
 474              		.cfi_offset 3, -8
 475              		.cfi_offset 14, -4
 214:main.c        ****     PWM_1_WriteCompare(70);
 476              		.loc 1 214 0
 477 0002 4620     		movs	r0, #70
 478 0004 FFF7FEFF 		bl	PWM_1_WriteCompare
 479              	.LVL32:
 215:main.c        ****     PWM_2_WriteCompare(30);
 480              		.loc 1 215 0
 481 0008 1E20     		movs	r0, #30
 482 000a FFF7FEFF 		bl	PWM_2_WriteCompare
 483              	.LVL33:
 484 000e 08BD     		pop	{r3, pc}
 485              		.cfi_endproc
 486              	.LFE71:
 487              		.size	turnLeft, .-turnLeft
 488              		.section	.text.go_distance,"ax",%progbits
 489              		.align	2
 490              		.global	go_distance
 491              		.thumb
 492              		.thumb_func
 493              		.type	go_distance, %function
 494              	go_distance:
 495              	.LFB72:
 216:main.c        **** }
 217:main.c        **** 
 218:main.c        **** 
 219:main.c        **** void go_distance(float32 distance){
 496              		.loc 1 219 0
 497              		.cfi_startproc
 498              		@ args = 0, pretend = 0, frame = 0
 499              		@ frame_needed = 0, uses_anonymous_args = 0
 500              	.LVL34:
 501 0000 38B5     		push	{r3, r4, r5, lr}
 502              		.cfi_def_cfa_offset 16
 503              		.cfi_offset 3, -16
 504              		.cfi_offset 4, -12
 505              		.cfi_offset 5, -8
 506              		.cfi_offset 14, -4
 507 0002 0546     		mov	r5, r0
 220:main.c        ****     distance_M1=0;
 508              		.loc 1 220 0
 509 0004 034C     		ldr	r4, .L42
 510 0006 0023     		movs	r3, #0
 511 0008 6361     		str	r3, [r4, #20]	@ float
 221:main.c        ****     goStraight();
ARM GAS  C:\Users\umasu\AppData\Local\Temp\ccRLEURa.s 			page 14


 512              		.loc 1 221 0
 513 000a FFF7FEFF 		bl	goStraight
 514              	.LVL35:
 222:main.c        ****     target_diatance=distance;
 515              		.loc 1 222 0
 516 000e 2562     		str	r5, [r4, #32]	@ float
 517 0010 38BD     		pop	{r3, r4, r5, pc}
 518              	.LVL36:
 519              	.L43:
 520 0012 00BF     		.align	2
 521              	.L42:
 522 0014 00000000 		.word	.LANCHOR0
 523              		.cfi_endproc
 524              	.LFE72:
 525              		.size	go_distance, .-go_distance
 526              		.global	__aeabi_fcmpeq
 527              		.global	__aeabi_fcmpgt
 528              		.global	__aeabi_fcmplt
 529              		.section	.text.robotControl,"ax",%progbits
 530              		.align	2
 531              		.global	robotControl
 532              		.thumb
 533              		.thumb_func
 534              		.type	robotControl, %function
 535              	robotControl:
 536              	.LFB73:
 223:main.c        **** }
 224:main.c        **** 
 225:main.c        **** 
 226:main.c        **** 
 227:main.c        **** 
 228:main.c        **** // Function to control the robot based on PID output
 229:main.c        **** void robotControl(float output) {
 537              		.loc 1 229 0
 538              		.cfi_startproc
 539              		@ args = 0, pretend = 0, frame = 0
 540              		@ frame_needed = 0, uses_anonymous_args = 0
 541              	.LVL37:
 542 0000 10B5     		push	{r4, lr}
 543              		.cfi_def_cfa_offset 8
 544              		.cfi_offset 4, -8
 545              		.cfi_offset 14, -4
 546 0002 0446     		mov	r4, r0
 230:main.c        **** 
 231:main.c        ****     // Determine robot behavior based on PID output
 232:main.c        ****     if (output == 0) {
 547              		.loc 1 232 0
 548 0004 0021     		movs	r1, #0
 549 0006 FFF7FEFF 		bl	__aeabi_fcmpeq
 550              	.LVL38:
 551 000a 28B1     		cbz	r0, .L55
 233:main.c        ****         // PID output is 0, go straight
 234:main.c        ****         goStraight();
 552              		.loc 1 234 0
 553 000c FFF7FEFF 		bl	goStraight
 554              	.LVL39:
 235:main.c        ****         LED_1_Write(1);
ARM GAS  C:\Users\umasu\AppData\Local\Temp\ccRLEURa.s 			page 15


 555              		.loc 1 235 0
 556 0010 0120     		movs	r0, #1
 557 0012 FFF7FEFF 		bl	LED_1_Write
 558              	.LVL40:
 559 0016 10BD     		pop	{r4, pc}
 560              	.LVL41:
 561              	.L55:
 236:main.c        ****     } else if (output > 0) {
 562              		.loc 1 236 0
 563 0018 0021     		movs	r1, #0
 564 001a 2046     		mov	r0, r4
 565 001c FFF7FEFF 		bl	__aeabi_fcmpgt
 566              	.LVL42:
 567 0020 28B9     		cbnz	r0, .L48
 568 0022 0DE0     		b	.L56
 569              	.L50:
 237:main.c        ****         // Positive output, turn left
 238:main.c        ****         
 239:main.c        ****         while(output==0){
 240:main.c        ****             LED_2_Write(1);
 570              		.loc 1 240 0
 571 0024 0120     		movs	r0, #1
 572 0026 FFF7FEFF 		bl	LED_2_Write
 573              	.LVL43:
 241:main.c        ****            turnLeft(); 
 574              		.loc 1 241 0
 575 002a FFF7FEFF 		bl	turnLeft
 576              	.LVL44:
 577              	.L48:
 239:main.c        ****             LED_2_Write(1);
 578              		.loc 1 239 0
 579 002e 0021     		movs	r1, #0
 580 0030 2046     		mov	r0, r4
 581 0032 FFF7FEFF 		bl	__aeabi_fcmpeq
 582              	.LVL45:
 583 0036 0028     		cmp	r0, #0
 584 0038 F4D1     		bne	.L50
 242:main.c        ****         }
 243:main.c        ****         goStraight();
 585              		.loc 1 243 0
 586 003a FFF7FEFF 		bl	goStraight
 587              	.LVL46:
 588 003e 10BD     		pop	{r4, pc}
 589              	.LVL47:
 590              	.L56:
 244:main.c        ****         
 245:main.c        ****     } else if (output < 0){
 591              		.loc 1 245 0
 592 0040 0021     		movs	r1, #0
 593 0042 2046     		mov	r0, r4
 594 0044 FFF7FEFF 		bl	__aeabi_fcmplt
 595              	.LVL48:
 596 0048 60B1     		cbz	r0, .L57
 597 004a 04E0     		b	.L51
 598              	.L53:
 246:main.c        ****         // Negative output, turn right
 247:main.c        ****         
ARM GAS  C:\Users\umasu\AppData\Local\Temp\ccRLEURa.s 			page 16


 248:main.c        ****         while(output==0){
 249:main.c        ****             LED_3_Write(1);
 599              		.loc 1 249 0
 600 004c 0120     		movs	r0, #1
 601 004e FFF7FEFF 		bl	LED_3_Write
 602              	.LVL49:
 250:main.c        ****         turnRight();
 603              		.loc 1 250 0
 604 0052 FFF7FEFF 		bl	turnRight
 605              	.LVL50:
 606              	.L51:
 248:main.c        ****             LED_3_Write(1);
 607              		.loc 1 248 0
 608 0056 0021     		movs	r1, #0
 609 0058 2046     		mov	r0, r4
 610 005a FFF7FEFF 		bl	__aeabi_fcmpeq
 611              	.LVL51:
 612 005e 0028     		cmp	r0, #0
 613 0060 F4D1     		bne	.L53
 614 0062 10BD     		pop	{r4, pc}
 615              	.LVL52:
 616              	.L57:
 251:main.c        ****         }
 252:main.c        ****     }else {
 253:main.c        ****         stop();
 617              		.loc 1 253 0
 618 0064 FFF7FEFF 		bl	stop
 619              	.LVL53:
 620 0068 10BD     		pop	{r4, pc}
 621              		.cfi_endproc
 622              	.LFE73:
 623              		.size	robotControl, .-robotControl
 624              		.section	.text.main,"ax",%progbits
 625              		.align	2
 626              		.global	main
 627              		.thumb
 628              		.thumb_func
 629              		.type	main, %function
 630              	main:
 631              	.LFB74:
 254:main.c        ****     }
 255:main.c        **** 
 256:main.c        **** }
 257:main.c        **** 
 258:main.c        **** 
 259:main.c        **** 
 260:main.c        **** 
 261:main.c        **** int main(void)
 262:main.c        **** {
 632              		.loc 1 262 0
 633              		.cfi_startproc
 634              		@ Volatile: function does not return.
 635              		@ args = 0, pretend = 0, frame = 0
 636              		@ frame_needed = 0, uses_anonymous_args = 0
 637 0000 08B5     		push	{r3, lr}
 638              		.cfi_def_cfa_offset 8
 639              		.cfi_offset 3, -8
ARM GAS  C:\Users\umasu\AppData\Local\Temp\ccRLEURa.s 			page 17


 640              		.cfi_offset 14, -4
 263:main.c        ****     CyGlobalIntEnable; /* Enable global interrupts. */
 641              		.loc 1 263 0
 642              		.syntax unified
 643              	@ 263 "main.c" 1
 644 0002 62B6     		CPSIE   i
 645              	@ 0 "" 2
 264:main.c        **** 
 265:main.c        ****     /* Place your initialization/startup code here (e.g. MyInst_Start()) */
 266:main.c        ****     Timer_1_Start();
 646              		.loc 1 266 0
 647              		.thumb
 648              		.syntax unified
 649 0004 FFF7FEFF 		bl	Timer_1_Start
 650              	.LVL54:
 267:main.c        ****     
 268:main.c        ****     isr_1_StartEx(isr_1_handler);
 651              		.loc 1 268 0
 652 0008 2648     		ldr	r0, .L67
 653 000a FFF7FEFF 		bl	isr_1_StartEx
 654              	.LVL55:
 269:main.c        ****     isr_3_StartEx(isr_3_handler);
 655              		.loc 1 269 0
 656 000e 2648     		ldr	r0, .L67+4
 657 0010 FFF7FEFF 		bl	isr_3_StartEx
 658              	.LVL56:
 270:main.c        ****   
 271:main.c        ****     
 272:main.c        ****     //start comparators
 273:main.c        ****     Comp_0_Start();
 659              		.loc 1 273 0
 660 0014 FFF7FEFF 		bl	Comp_0_Start
 661              	.LVL57:
 274:main.c        ****     Comp_1_Start();
 662              		.loc 1 274 0
 663 0018 FFF7FEFF 		bl	Comp_1_Start
 664              	.LVL58:
 275:main.c        ****     Comp_2_Start();
 665              		.loc 1 275 0
 666 001c FFF7FEFF 		bl	Comp_2_Start
 667              	.LVL59:
 276:main.c        ****     Comp_3_Start();
 668              		.loc 1 276 0
 669 0020 FFF7FEFF 		bl	Comp_3_Start
 670              	.LVL60:
 277:main.c        ****     
 278:main.c        ****     /*Start PWM Clk*/
 279:main.c        ****     Clock_PWM_Start(); 
 671              		.loc 1 279 0
 672 0024 FFF7FEFF 		bl	Clock_PWM_Start
 673              	.LVL61:
 280:main.c        ****     //Start PWM
 281:main.c        ****     PWM_1_Start();
 674              		.loc 1 281 0
 675 0028 FFF7FEFF 		bl	PWM_1_Start
 676              	.LVL62:
 282:main.c        ****     PWM_2_Start();
ARM GAS  C:\Users\umasu\AppData\Local\Temp\ccRLEURa.s 			page 18


 677              		.loc 1 282 0
 678 002c FFF7FEFF 		bl	PWM_2_Start
 679              	.LVL63:
 283:main.c        ****     
 284:main.c        ****     // write comparision int for MC33926 duty cycle must me larger than 10% and less than 90%
 285:main.c        **** 
 286:main.c        ****     
 287:main.c        ****     PWM_1_WritePeriod(100);
 680              		.loc 1 287 0
 681 0030 6420     		movs	r0, #100
 682 0032 FFF7FEFF 		bl	PWM_1_WritePeriod
 683              	.LVL64:
 288:main.c        ****     PWM_2_WritePeriod(100);
 684              		.loc 1 288 0
 685 0036 6420     		movs	r0, #100
 686 0038 FFF7FEFF 		bl	PWM_2_WritePeriod
 687              	.LVL65:
 289:main.c        ****     
 290:main.c        ****     QuadDec_M1_Start();
 688              		.loc 1 290 0
 689 003c FFF7FEFF 		bl	QuadDec_M1_Start
 690              	.LVL66:
 291:main.c        ****     QuadDec_M2_Start();
 691              		.loc 1 291 0
 692 0040 FFF7FEFF 		bl	QuadDec_M2_Start
 693              	.LVL67:
 694              	.L60:
 292:main.c        ****     
 293:main.c        ****     //go_distance(0);
 294:main.c        ****     
 295:main.c        ****     for(;;)
 296:main.c        ****     {
 297:main.c        **** 
 298:main.c        ****         if (s0_flag || s1_flag) {
 695              		.loc 1 298 0
 696 0044 194B     		ldr	r3, .L67+8
 697 0046 1B78     		ldrb	r3, [r3]	@ zero_extendqisi2
 698 0048 13B9     		cbnz	r3, .L61
 699              		.loc 1 298 0 is_stmt 0 discriminator 1
 700 004a 194B     		ldr	r3, .L67+12
 701 004c 1B78     		ldrb	r3, [r3]	@ zero_extendqisi2
 702 004e 33B1     		cbz	r3, .L62
 703              	.L61:
 299:main.c        ****             // Turn logic: go straight
 300:main.c        ****             goStraight();
 704              		.loc 1 300 0 is_stmt 1
 705 0050 FFF7FEFF 		bl	goStraight
 706              	.LVL68:
 301:main.c        ****             // Clear the sensor flags
 302:main.c        ****             s0_flag = false;
 707              		.loc 1 302 0
 708 0054 0023     		movs	r3, #0
 709 0056 154A     		ldr	r2, .L67+8
 710 0058 1370     		strb	r3, [r2]
 303:main.c        ****             s1_flag = false;
 711              		.loc 1 303 0
 712 005a 154A     		ldr	r2, .L67+12
ARM GAS  C:\Users\umasu\AppData\Local\Temp\ccRLEURa.s 			page 19


 713 005c 1370     		strb	r3, [r2]
 714              	.L62:
 304:main.c        ****         }
 305:main.c        ****         if (s2_flag) {
 715              		.loc 1 305 0
 716 005e 154B     		ldr	r3, .L67+16
 717 0060 1B78     		ldrb	r3, [r3]	@ zero_extendqisi2
 718 0062 23B1     		cbz	r3, .L63
 306:main.c        ****             turnLeft();
 719              		.loc 1 306 0
 720 0064 FFF7FEFF 		bl	turnLeft
 721              	.LVL69:
 307:main.c        ****             // Turn logic: turn 90 degrees left
 308:main.c        ****             // Clear the sensor flag
 309:main.c        ****             s2_flag = false;
 722              		.loc 1 309 0
 723 0068 0022     		movs	r2, #0
 724 006a 124B     		ldr	r3, .L67+16
 725 006c 1A70     		strb	r2, [r3]
 726              	.L63:
 310:main.c        ****         }
 311:main.c        ****         if (s3_flag) {
 727              		.loc 1 311 0
 728 006e 124B     		ldr	r3, .L67+20
 729 0070 1B78     		ldrb	r3, [r3]	@ zero_extendqisi2
 730 0072 23B1     		cbz	r3, .L64
 312:main.c        ****             turnRight();
 731              		.loc 1 312 0
 732 0074 FFF7FEFF 		bl	turnRight
 733              	.LVL70:
 313:main.c        ****             // Turn logic: turn 90 degrees right
 314:main.c        ****             // Clear the sensor flag
 315:main.c        ****             s3_flag = false;
 734              		.loc 1 315 0
 735 0078 0022     		movs	r2, #0
 736 007a 0F4B     		ldr	r3, .L67+20
 737 007c 1A70     		strb	r2, [r3]
 738              	.L64:
 316:main.c        ****         }
 317:main.c        ****         
 318:main.c        ****         if (s0_flag && s1_flag && s2_flag && s3_flag) {
 739              		.loc 1 318 0
 740 007e 0B4B     		ldr	r3, .L67+8
 741 0080 1B78     		ldrb	r3, [r3]	@ zero_extendqisi2
 742 0082 002B     		cmp	r3, #0
 743 0084 DED0     		beq	.L60
 744              		.loc 1 318 0 is_stmt 0 discriminator 1
 745 0086 0A4B     		ldr	r3, .L67+12
 746 0088 1B78     		ldrb	r3, [r3]	@ zero_extendqisi2
 747 008a 002B     		cmp	r3, #0
 748 008c DAD0     		beq	.L60
 749              		.loc 1 318 0 discriminator 2
 750 008e 094B     		ldr	r3, .L67+16
 751 0090 1B78     		ldrb	r3, [r3]	@ zero_extendqisi2
 752 0092 002B     		cmp	r3, #0
 753 0094 D6D0     		beq	.L60
 754              		.loc 1 318 0 discriminator 3
ARM GAS  C:\Users\umasu\AppData\Local\Temp\ccRLEURa.s 			page 20


 755 0096 084B     		ldr	r3, .L67+20
 756 0098 1B78     		ldrb	r3, [r3]	@ zero_extendqisi2
 757 009a 002B     		cmp	r3, #0
 758 009c D2D0     		beq	.L60
 319:main.c        ****             stop();;
 759              		.loc 1 319 0 is_stmt 1
 760 009e FFF7FEFF 		bl	stop
 761              	.LVL71:
 762 00a2 CFE7     		b	.L60
 763              	.L68:
 764              		.align	2
 765              	.L67:
 766 00a4 00000000 		.word	isr_1_handler
 767 00a8 00000000 		.word	isr_3_handler
 768 00ac 00000000 		.word	s0_flag
 769 00b0 00000000 		.word	s1_flag
 770 00b4 00000000 		.word	s2_flag
 771 00b8 00000000 		.word	s3_flag
 772              		.cfi_endproc
 773              	.LFE74:
 774              		.size	main, .-main
 775              		.global	current_state
 776              		.comm	s3_flag,1,1
 777              		.comm	s2_flag,1,1
 778              		.comm	s1_flag,1,1
 779              		.comm	s0_flag,1,1
 780              		.global	error
 781              		.global	PWM_L
 782              		.global	PWM_R
 783              		.comm	comp3_sum,1,1
 784              		.comm	comp2_sum,1,1
 785              		.comm	comp1_sum,1,1
 786              		.comm	comp0_sum,1,1
 787              		.global	turn_complete
 788              		.comm	middle_on,1,1
 789              		.comm	right_on,1,1
 790              		.global	left_on
 791              		.global	turn_counter
 792              		.global	count
 793              		.global	current_distance
 794              		.global	counter
 795              		.global	encoder_value_sum_M2
 796              		.global	encoder_value_sum_M1
 797              		.global	speed_M2
 798              		.global	speed_M1
 799              		.global	turn_back_diatance
 800              		.global	target_diatance
 801              		.global	current_distance_M2
 802              		.global	current_distance_M1
 803              		.global	distance_M2
 804              		.global	distance_M1
 805              		.global	timeInterval_s
 806              		.global	wheelCircumference_cm
 807              		.global	CPR
 808              		.global	encoderCounts_M2
 809              		.global	encoderCounts_M1
 810              		.global	output
ARM GAS  C:\Users\umasu\AppData\Local\Temp\ccRLEURa.s 			page 21


 811              		.global	integral
 812              		.global	previous_error
 813              		.global	Kd
 814              		.global	Ki
 815              		.global	Kp
 816              		.data
 817              		.align	3
 818              		.set	.LANCHOR1,. + 0
 819              		.type	counter, %object
 820              		.size	counter, 1
 821              	counter:
 822 0000 01       		.byte	1
 823 0001 000000   		.space	3
 824              		.type	CPR, %object
 825              		.size	CPR, 4
 826              	CPR:
 827 0004 E4000000 		.word	228
 828              		.type	wheelCircumference_cm, %object
 829              		.size	wheelCircumference_cm, 4
 830              	wheelCircumference_cm:
 831 0008 7201A241 		.word	1101136242
 832              		.type	PWM_L, %object
 833              		.size	PWM_L, 1
 834              	PWM_L:
 835 000c 51       		.byte	81
 836              		.type	PWM_R, %object
 837              		.size	PWM_R, 1
 838              	PWM_R:
 839 000d 50       		.byte	80
 840              		.type	turn_complete, %object
 841              		.size	turn_complete, 1
 842              	turn_complete:
 843 000e 01       		.byte	1
 844 000f 00       		.space	1
 845              		.type	turn_back_diatance, %object
 846              		.size	turn_back_diatance, 4
 847              	turn_back_diatance:
 848 0010 00002241 		.word	1092747264
 849 0014 00000000 		.space	4
 850              		.type	timeInterval_s, %object
 851              		.size	timeInterval_s, 8
 852              	timeInterval_s:
 853 0018 0C022B87 		.word	-2027224564
 854 001c 16D92540 		.word	1076222230
 855              		.type	Kd, %object
 856              		.size	Kd, 4
 857              	Kd:
 858 0020 0AD7233C 		.word	1008981770
 859              		.type	Ki, %object
 860              		.size	Ki, 4
 861              	Ki:
 862 0024 CDCCCC3D 		.word	1036831949
 863              		.type	Kp, %object
 864              		.size	Kp, 4
 865              	Kp:
 866 0028 0000803F 		.word	1065353216
 867              		.bss
ARM GAS  C:\Users\umasu\AppData\Local\Temp\ccRLEURa.s 			page 22


 868              		.align	2
 869              		.set	.LANCHOR0,. + 0
 870              		.type	count, %object
 871              		.size	count, 4
 872              	count:
 873 0000 00000000 		.space	4
 874              		.type	encoderCounts_M1, %object
 875              		.size	encoderCounts_M1, 4
 876              	encoderCounts_M1:
 877 0004 00000000 		.space	4
 878              		.type	encoderCounts_M2, %object
 879              		.size	encoderCounts_M2, 4
 880              	encoderCounts_M2:
 881 0008 00000000 		.space	4
 882              		.type	encoder_value_sum_M1, %object
 883              		.size	encoder_value_sum_M1, 4
 884              	encoder_value_sum_M1:
 885 000c 00000000 		.space	4
 886              		.type	encoder_value_sum_M2, %object
 887              		.size	encoder_value_sum_M2, 4
 888              	encoder_value_sum_M2:
 889 0010 00000000 		.space	4
 890              		.type	distance_M1, %object
 891              		.size	distance_M1, 4
 892              	distance_M1:
 893 0014 00000000 		.space	4
 894              		.type	distance_M2, %object
 895              		.size	distance_M2, 4
 896              	distance_M2:
 897 0018 00000000 		.space	4
 898              		.type	error, %object
 899              		.size	error, 4
 900              	error:
 901 001c 00000000 		.space	4
 902              		.type	target_diatance, %object
 903              		.size	target_diatance, 4
 904              	target_diatance:
 905 0020 00000000 		.space	4
 906              		.type	current_state, %object
 907              		.size	current_state, 1
 908              	current_state:
 909 0024 00       		.space	1
 910              		.type	left_on, %object
 911              		.size	left_on, 1
 912              	left_on:
 913 0025 00       		.space	1
 914 0026 0000     		.space	2
 915              		.type	turn_counter, %object
 916              		.size	turn_counter, 4
 917              	turn_counter:
 918 0028 00000000 		.space	4
 919              		.type	current_distance, %object
 920              		.size	current_distance, 4
 921              	current_distance:
 922 002c 00000000 		.space	4
 923              		.type	speed_M2, %object
 924              		.size	speed_M2, 4
ARM GAS  C:\Users\umasu\AppData\Local\Temp\ccRLEURa.s 			page 23


 925              	speed_M2:
 926 0030 00000000 		.space	4
 927              		.type	speed_M1, %object
 928              		.size	speed_M1, 4
 929              	speed_M1:
 930 0034 00000000 		.space	4
 931              		.type	current_distance_M2, %object
 932              		.size	current_distance_M2, 4
 933              	current_distance_M2:
 934 0038 00000000 		.space	4
 935              		.type	current_distance_M1, %object
 936              		.size	current_distance_M1, 4
 937              	current_distance_M1:
 938 003c 00000000 		.space	4
 939              		.type	output, %object
 940              		.size	output, 4
 941              	output:
 942 0040 00000000 		.space	4
 943              		.type	integral, %object
 944              		.size	integral, 4
 945              	integral:
 946 0044 00000000 		.space	4
 947              		.type	previous_error, %object
 948              		.size	previous_error, 4
 949              	previous_error:
 950 0048 00000000 		.space	4
 951              		.text
 952              	.Letext0:
 953              		.file 2 "c:\\program files (x86)\\cypress\\psoc creator\\4.2\\psoc creator\\import\\gnu\\arm\\5.4.
 954              		.file 3 "c:\\program files (x86)\\cypress\\psoc creator\\4.2\\psoc creator\\import\\gnu\\arm\\5.4.
 955              		.file 4 "Generated_Source\\PSoC5/cytypes.h"
 956              		.file 5 "Generated_Source\\PSoC5/core_cm3.h"
 957              		.file 6 "Generated_Source\\PSoC5/Comp_0.h"
 958              		.file 7 "Generated_Source\\PSoC5/Comp_1.h"
 959              		.file 8 "Generated_Source\\PSoC5/Comp_2.h"
 960              		.file 9 "Generated_Source\\PSoC5/Comp_3.h"
 961              		.file 10 "Generated_Source\\PSoC5/QuadDec_M1.h"
 962              		.file 11 "Generated_Source\\PSoC5/QuadDec_M2.h"
 963              		.file 12 "Generated_Source\\PSoC5/Timer_1.h"
 964              		.file 13 "Generated_Source\\PSoC5/PWM_1.h"
 965              		.file 14 "Generated_Source\\PSoC5/PWM_2.h"
 966              		.file 15 "Generated_Source\\PSoC5/LED_1.h"
 967              		.file 16 "Generated_Source\\PSoC5/LED_2.h"
 968              		.file 17 "Generated_Source\\PSoC5/LED_3.h"
 969              		.file 18 "Generated_Source\\PSoC5/isr_1.h"
 970              		.file 19 "Generated_Source\\PSoC5/isr_3.h"
 971              		.file 20 "Generated_Source\\PSoC5/Clock_PWM.h"