ARM GAS  C:\Users\umasu\AppData\Local\Temp\ccXwaREY.s 			page 1


   1              		.syntax unified
   2              		.cpu cortex-m3
   3              		.fpu softvfp
   4              		.eabi_attribute 20, 1
   5              		.eabi_attribute 21, 1
   6              		.eabi_attribute 23, 3
   7              		.eabi_attribute 24, 1
   8              		.eabi_attribute 25, 1
   9              		.eabi_attribute 26, 1
  10              		.eabi_attribute 30, 1
  11              		.eabi_attribute 34, 1
  12              		.eabi_attribute 18, 4
  13              		.thumb
  14              		.syntax unified
  15              		.file	"main.c"
  16              		.text
  17              	.Ltext0:
  18              		.cfi_sections	.debug_frame
  19              		.global	__aeabi_i2f
  20              		.global	__aeabi_fmul
  21              		.section	.text.isr_3_handler,"ax",%progbits
  22              		.align	2
  23              		.global	isr_3_handler
  24              		.thumb
  25              		.thumb_func
  26              		.type	isr_3_handler, %function
  27              	isr_3_handler:
  28              	.LFB64:
  29              		.file 1 "main.c"
   1:main.c        **** /* ========================================
   2:main.c        ****  *
   3:main.c        ****  * Copyright YOUR COMPANY, THE YEAR
   4:main.c        ****  * All Rights Reserved
   5:main.c        ****  * UNPUBLISHED, LICENSED SOFTWARE.
   6:main.c        ****  *
   7:main.c        ****  * CONFIDENTIAL AND PROPRIETARY INFORMATION
   8:main.c        ****  * WHICH IS THE PROPERTY OF your company.
   9:main.c        ****  *
  10:main.c        ****  * ========================================
  11:main.c        **** */
  12:main.c        **** /* ========================================
  13:main.c        ****  * Fully working code: 
  14:main.c        ****  * PWM      : 
  15:main.c        ****  * Encoder  : 
  16:main.c        ****  * ADC      :
  17:main.c        ****  * USB      : port displays speed and position.
  18:main.c        ****  * CMD: "PW xx"
  19:main.c        ****  * Copyright Univ of Auckland, 2016
  20:main.c        ****  * All Rights Reserved
  21:main.c        ****  * UNPUBLISHED, LICENSED SOFTWARE.
  22:main.c        ****  *
  23:main.c        ****  * CONFIDENTIAL AND PROPRIETARY INFORMATION
  24:main.c        ****  * WHICH IS THE PROPERTY OF Univ of Auckland.
  25:main.c        ****  *
  26:main.c        ****  * ========================================
  27:main.c        **** */
  28:main.c        **** #include <stdio.h>
ARM GAS  C:\Users\umasu\AppData\Local\Temp\ccXwaREY.s 			page 2


  29:main.c        **** #include <string.h>
  30:main.c        **** #include <stdlib.h>
  31:main.c        **** #include <project.h>
  32:main.c        **** #include <stdbool.h>
  33:main.c        **** #include <math.h>
  34:main.c        **** #include "project.h"
  35:main.c        **** #include <cytypes.h> // Include the appropriate header for your platform
  36:main.c        **** 
  37:main.c        **** //distance calculation paras
  38:main.c        **** int32 encoderCounts_M1 = 0;  
  39:main.c        **** int32 encoderCounts_M2 = 0;  
  40:main.c        **** int32 CPR = 228;  // Adjusted for 4x resolution(228/4)
  41:main.c        **** float wheelCircumference_cm = (M_PI*64.46)/10;// wheel circumference wheelDiameter_mm = 64.46)
  42:main.c        **** double timeInterval_s = 10.924;  // Effective time interval( (timer period )2.731*4)
  43:main.c        **** float32  distance_M1 = 0;
  44:main.c        **** float32  distance_M2 = 0;
  45:main.c        **** float32  current_distance_M1 = 0;
  46:main.c        **** float32  current_distance_M2 = 0;
  47:main.c        **** float32 target_diatance = 0;//cm
  48:main.c        **** float32 speed_M1 = 0;
  49:main.c        **** float32 speed_M2 = 0;
  50:main.c        **** int32 encoder_value_sum_M1 = 0;
  51:main.c        **** int32 encoder_value_sum_M2 = 0;
  52:main.c        **** uint8 counter = 1;
  53:main.c        **** 
  54:main.c        **** // Define states for the state machine
  55:main.c        **** typedef enum {
  56:main.c        ****     GO_STRAIGHT,
  57:main.c        ****     TURN_LEFT,
  58:main.c        ****     TURN_RIGHT,
  59:main.c        ****     RIGHT_ADJUST,
  60:main.c        ****     LEFT_ADJUST,
  61:main.c        ****     STOP,
  62:main.c        **** } RobotState;
  63:main.c        **** 
  64:main.c        **** RobotState current_state = STOP;// intialse state
  65:main.c        **** 
  66:main.c        **** uint32 count = 0;
  67:main.c        **** bool isTurning=false;
  68:main.c        **** 
  69:main.c        **** uint8 comp0_sum;
  70:main.c        **** uint8 comp1_sum;
  71:main.c        **** uint8 comp2_sum;
  72:main.c        **** uint8 comp3_sum;
  73:main.c        **** 
  74:main.c        **** uint8 PWM_R;
  75:main.c        **** uint8 PWM_L;
  76:main.c        **** 
  77:main.c        **** 
  78:main.c        **** 
  79:main.c        **** CY_ISR(isr_3_handler) {
  30              		.loc 1 79 0
  31              		.cfi_startproc
  32              		@ args = 0, pretend = 0, frame = 0
  33              		@ frame_needed = 0, uses_anonymous_args = 0
  34 0000 F8B5     		push	{r3, r4, r5, r6, r7, lr}
  35              		.cfi_def_cfa_offset 24
ARM GAS  C:\Users\umasu\AppData\Local\Temp\ccXwaREY.s 			page 3


  36              		.cfi_offset 3, -24
  37              		.cfi_offset 4, -20
  38              		.cfi_offset 5, -16
  39              		.cfi_offset 6, -12
  40              		.cfi_offset 7, -8
  41              		.cfi_offset 14, -4
  80:main.c        ****     if (counter < 20){
  42              		.loc 1 80 0
  43 0002 1A4B     		ldr	r3, .L5
  44 0004 1B78     		ldrb	r3, [r3]	@ zero_extendqisi2
  45 0006 132B     		cmp	r3, #19
  46 0008 03D8     		bhi	.L2
  81:main.c        ****         counter++;
  47              		.loc 1 81 0
  48 000a 0133     		adds	r3, r3, #1
  49 000c 174A     		ldr	r2, .L5
  50 000e 1370     		strb	r3, [r2]
  51 0010 28E0     		b	.L3
  52              	.L2:
  82:main.c        ****     }else{
  83:main.c        ****         counter = 1;
  53              		.loc 1 83 0
  54 0012 164E     		ldr	r6, .L5
  55 0014 0123     		movs	r3, #1
  56 0016 3370     		strb	r3, [r6]
  84:main.c        ****         // Encoder counts (negative due to counterclockwise rotation)
  85:main.c        ****         encoderCounts_M1 = abs(QuadDec_M1_GetCounter());//QuadDec_M1_GetCounter();
  57              		.loc 1 85 0
  58 0018 FFF7FEFF 		bl	QuadDec_M1_GetCounter
  59              	.LVL0:
  60 001c 0028     		cmp	r0, #0
  61 001e B8BF     		it	lt
  62 0020 4042     		rsblt	r0, r0, #0
  63 0022 134C     		ldr	r4, .L5+4
  64 0024 2060     		str	r0, [r4]
  86:main.c        ****         encoderCounts_M2 = abs(QuadDec_M2_GetCounter());
  65              		.loc 1 86 0
  66 0026 FFF7FEFF 		bl	QuadDec_M2_GetCounter
  67              	.LVL1:
  68 002a 0028     		cmp	r0, #0
  69 002c B8BF     		it	lt
  70 002e 4042     		rsblt	r0, r0, #0
  71 0030 6060     		str	r0, [r4, #4]
  87:main.c        ****         
  88:main.c        ****         // sum of encodercounts
  89:main.c        ****         encoder_value_sum_M1 += encoderCounts_M1;
  72              		.loc 1 89 0
  73 0032 A268     		ldr	r2, [r4, #8]
  74 0034 2368     		ldr	r3, [r4]
  75 0036 1A44     		add	r2, r2, r3
  76 0038 A260     		str	r2, [r4, #8]
  90:main.c        ****         encoder_value_sum_M2 += encoderCounts_M2;
  77              		.loc 1 90 0
  78 003a E368     		ldr	r3, [r4, #12]
  79 003c C518     		adds	r5, r0, r3
  80 003e E560     		str	r5, [r4, #12]
  91:main.c        ****         
ARM GAS  C:\Users\umasu\AppData\Local\Temp\ccXwaREY.s 			page 4


  92:main.c        ****         // distance calculations 
  93:main.c        ****         distance_M1 = (encoder_value_sum_M1/CPR) * wheelCircumference_cm;
  81              		.loc 1 93 0
  82 0040 7768     		ldr	r7, [r6, #4]
  83 0042 B668     		ldr	r6, [r6, #8]	@ float
  84 0044 92FBF7F0 		sdiv	r0, r2, r7
  85 0048 FFF7FEFF 		bl	__aeabi_i2f
  86              	.LVL2:
  87 004c 3146     		mov	r1, r6
  88 004e FFF7FEFF 		bl	__aeabi_fmul
  89              	.LVL3:
  90 0052 2061     		str	r0, [r4, #16]	@ float
  94:main.c        ****         distance_M2 = (encoder_value_sum_M2/CPR) * wheelCircumference_cm;
  91              		.loc 1 94 0
  92 0054 95FBF7F0 		sdiv	r0, r5, r7
  93 0058 FFF7FEFF 		bl	__aeabi_i2f
  94              	.LVL4:
  95 005c 3146     		mov	r1, r6
  96 005e FFF7FEFF 		bl	__aeabi_fmul
  97              	.LVL5:
  98 0062 6061     		str	r0, [r4, #20]	@ float
  99              	.L3:
  95:main.c        ****         
  96:main.c        **** 
  97:main.c        **** //        //reset the encoder counters 
  98:main.c        **** //        QuadDec_M1_SetCounter(0);
  99:main.c        **** //        QuadDec_M2_SetCounter(0);     
 100:main.c        ****     }
 101:main.c        ****         Timer_1_ReadStatusRegister();
 100              		.loc 1 101 0
 101 0064 FFF7FEFF 		bl	Timer_1_ReadStatusRegister
 102              	.LVL6:
 103 0068 F8BD     		pop	{r3, r4, r5, r6, r7, pc}
 104              	.L6:
 105 006a 00BF     		.align	2
 106              	.L5:
 107 006c 00000000 		.word	.LANCHOR0
 108 0070 00000000 		.word	.LANCHOR1
 109              		.cfi_endproc
 110              	.LFE64:
 111              		.size	isr_3_handler, .-isr_3_handler
 112              		.section	.text.isr_1_handler,"ax",%progbits
 113              		.align	2
 114              		.global	isr_1_handler
 115              		.thumb
 116              		.thumb_func
 117              		.type	isr_1_handler, %function
 118              	isr_1_handler:
 119              	.LFB65:
 102:main.c        **** }
 103:main.c        **** 
 104:main.c        **** 
 105:main.c        **** 
 106:main.c        **** CY_ISR(isr_1_handler) {
 120              		.loc 1 106 0
 121              		.cfi_startproc
 122              		@ args = 0, pretend = 0, frame = 0
ARM GAS  C:\Users\umasu\AppData\Local\Temp\ccXwaREY.s 			page 5


 123              		@ frame_needed = 0, uses_anonymous_args = 0
 124 0000 08B5     		push	{r3, lr}
 125              		.cfi_def_cfa_offset 8
 126              		.cfi_offset 3, -8
 127              		.cfi_offset 14, -4
 107:main.c        ****     //every 1ms 
 108:main.c        ****     
 109:main.c        ****     //sum up comp values every 1ms
 110:main.c        ****     comp0_sum+=Comp_0_GetCompare();
 128              		.loc 1 110 0
 129 0002 FFF7FEFF 		bl	Comp_0_GetCompare
 130              	.LVL7:
 131 0006 164A     		ldr	r2, .L10
 132 0008 1378     		ldrb	r3, [r2]	@ zero_extendqisi2
 133 000a 1844     		add	r0, r0, r3
 134 000c 1070     		strb	r0, [r2]
 111:main.c        ****     comp1_sum+=Comp_1_GetCompare();
 135              		.loc 1 111 0
 136 000e FFF7FEFF 		bl	Comp_1_GetCompare
 137              	.LVL8:
 138 0012 144A     		ldr	r2, .L10+4
 139 0014 1378     		ldrb	r3, [r2]	@ zero_extendqisi2
 140 0016 1844     		add	r0, r0, r3
 141 0018 1070     		strb	r0, [r2]
 112:main.c        ****     comp2_sum+=Comp_2_GetCompare();
 142              		.loc 1 112 0
 143 001a FFF7FEFF 		bl	Comp_2_GetCompare
 144              	.LVL9:
 145 001e 124A     		ldr	r2, .L10+8
 146 0020 1378     		ldrb	r3, [r2]	@ zero_extendqisi2
 147 0022 1844     		add	r0, r0, r3
 148 0024 1070     		strb	r0, [r2]
 113:main.c        ****     comp3_sum+=Comp_3_GetCompare();
 149              		.loc 1 113 0
 150 0026 FFF7FEFF 		bl	Comp_3_GetCompare
 151              	.LVL10:
 152 002a 104A     		ldr	r2, .L10+12
 153 002c 1378     		ldrb	r3, [r2]	@ zero_extendqisi2
 154 002e 1844     		add	r0, r0, r3
 155 0030 1070     		strb	r0, [r2]
 114:main.c        ****     
 115:main.c        ****     
 116:main.c        ****     if(count==8){
 156              		.loc 1 116 0
 157 0032 0F4B     		ldr	r3, .L10+16
 158 0034 9B69     		ldr	r3, [r3, #24]
 159 0036 082B     		cmp	r3, #8
 160 0038 0AD1     		bne	.L8
 117:main.c        ****         
 118:main.c        **** 
 119:main.c        ****         //reset to check again every 8ms
 120:main.c        ****         comp0_sum=0;
 161              		.loc 1 120 0
 162 003a 0023     		movs	r3, #0
 163 003c 084A     		ldr	r2, .L10
 164 003e 1370     		strb	r3, [r2]
 121:main.c        ****         comp1_sum=0;
ARM GAS  C:\Users\umasu\AppData\Local\Temp\ccXwaREY.s 			page 6


 165              		.loc 1 121 0
 166 0040 084A     		ldr	r2, .L10+4
 167 0042 1370     		strb	r3, [r2]
 122:main.c        ****         comp2_sum=0;
 168              		.loc 1 122 0
 169 0044 084A     		ldr	r2, .L10+8
 170 0046 1370     		strb	r3, [r2]
 123:main.c        ****         comp3_sum=0;
 171              		.loc 1 123 0
 172 0048 084A     		ldr	r2, .L10+12
 173 004a 1370     		strb	r3, [r2]
 124:main.c        ****         count=0;
 174              		.loc 1 124 0
 175 004c 084A     		ldr	r2, .L10+16
 176 004e 9361     		str	r3, [r2, #24]
 177              	.L8:
 125:main.c        ****     }
 126:main.c        ****    
 127:main.c        **** 
 128:main.c        ****     count++;
 178              		.loc 1 128 0
 179 0050 074A     		ldr	r2, .L10+16
 180 0052 9369     		ldr	r3, [r2, #24]
 181 0054 0133     		adds	r3, r3, #1
 182 0056 9361     		str	r3, [r2, #24]
 129:main.c        ****     Timer_1_ReadStatusRegister();
 183              		.loc 1 129 0
 184 0058 FFF7FEFF 		bl	Timer_1_ReadStatusRegister
 185              	.LVL11:
 186 005c 08BD     		pop	{r3, pc}
 187              	.L11:
 188 005e 00BF     		.align	2
 189              	.L10:
 190 0060 00000000 		.word	comp0_sum
 191 0064 00000000 		.word	comp1_sum
 192 0068 00000000 		.word	comp2_sum
 193 006c 00000000 		.word	comp3_sum
 194 0070 00000000 		.word	.LANCHOR1
 195              		.cfi_endproc
 196              	.LFE65:
 197              		.size	isr_1_handler, .-isr_1_handler
 198              		.section	.text.stop,"ax",%progbits
 199              		.align	2
 200              		.global	stop
 201              		.thumb
 202              		.thumb_func
 203              		.type	stop, %function
 204              	stop:
 205              	.LFB66:
 130:main.c        **** }
 131:main.c        **** 
 132:main.c        **** void stop(){
 206              		.loc 1 132 0
 207              		.cfi_startproc
 208              		@ args = 0, pretend = 0, frame = 0
 209              		@ frame_needed = 0, uses_anonymous_args = 0
 210 0000 08B5     		push	{r3, lr}
ARM GAS  C:\Users\umasu\AppData\Local\Temp\ccXwaREY.s 			page 7


 211              		.cfi_def_cfa_offset 8
 212              		.cfi_offset 3, -8
 213              		.cfi_offset 14, -4
 133:main.c        ****     PWM_1_WriteCompare(50);
 214              		.loc 1 133 0
 215 0002 3220     		movs	r0, #50
 216 0004 FFF7FEFF 		bl	PWM_1_WriteCompare
 217              	.LVL12:
 134:main.c        ****     PWM_2_WriteCompare(50);
 218              		.loc 1 134 0
 219 0008 3220     		movs	r0, #50
 220 000a FFF7FEFF 		bl	PWM_2_WriteCompare
 221              	.LVL13:
 222 000e 08BD     		pop	{r3, pc}
 223              		.cfi_endproc
 224              	.LFE66:
 225              		.size	stop, .-stop
 226              		.section	.text.turnLeft,"ax",%progbits
 227              		.align	2
 228              		.global	turnLeft
 229              		.thumb
 230              		.thumb_func
 231              		.type	turnLeft, %function
 232              	turnLeft:
 233              	.LFB67:
 135:main.c        **** }
 136:main.c        **** void turnLeft(){
 234              		.loc 1 136 0
 235              		.cfi_startproc
 236              		@ args = 0, pretend = 0, frame = 0
 237              		@ frame_needed = 0, uses_anonymous_args = 0
 238 0000 08B5     		push	{r3, lr}
 239              		.cfi_def_cfa_offset 8
 240              		.cfi_offset 3, -8
 241              		.cfi_offset 14, -4
 137:main.c        ****     PWM_1_WriteCompare(70);
 242              		.loc 1 137 0
 243 0002 4620     		movs	r0, #70
 244 0004 FFF7FEFF 		bl	PWM_1_WriteCompare
 245              	.LVL14:
 138:main.c        ****     PWM_2_WriteCompare(30);
 246              		.loc 1 138 0
 247 0008 1E20     		movs	r0, #30
 248 000a FFF7FEFF 		bl	PWM_2_WriteCompare
 249              	.LVL15:
 139:main.c        ****     if(Sout_M1_Read()==0 || Sout_M2_Read()==0){
 250              		.loc 1 139 0
 251 000e FFF7FEFF 		bl	Sout_M1_Read
 252              	.LVL16:
 253 0012 10B1     		cbz	r0, .L15
 254              		.loc 1 139 0 is_stmt 0 discriminator 1
 255 0014 FFF7FEFF 		bl	Sout_M2_Read
 256              	.LVL17:
 257 0018 50B9     		cbnz	r0, .L14
 258              	.L15:
 140:main.c        ****        isTurning=false;
 259              		.loc 1 140 0 is_stmt 1
ARM GAS  C:\Users\umasu\AppData\Local\Temp\ccXwaREY.s 			page 8


 260 001a 0023     		movs	r3, #0
 261 001c 054A     		ldr	r2, .L18
 262 001e 1377     		strb	r3, [r2, #28]
 141:main.c        ****        current_state=GO_STRAIGHT;
 263              		.loc 1 141 0
 264 0020 054A     		ldr	r2, .L18+4
 265 0022 1373     		strb	r3, [r2, #12]
 142:main.c        ****        PWM_1_WriteCompare(70);
 266              		.loc 1 142 0
 267 0024 4620     		movs	r0, #70
 268 0026 FFF7FEFF 		bl	PWM_1_WriteCompare
 269              	.LVL18:
 143:main.c        ****        PWM_2_WriteCompare(71);
 270              		.loc 1 143 0
 271 002a 4720     		movs	r0, #71
 272 002c FFF7FEFF 		bl	PWM_2_WriteCompare
 273              	.LVL19:
 274              	.L14:
 275 0030 08BD     		pop	{r3, pc}
 276              	.L19:
 277 0032 00BF     		.align	2
 278              	.L18:
 279 0034 00000000 		.word	.LANCHOR1
 280 0038 00000000 		.word	.LANCHOR0
 281              		.cfi_endproc
 282              	.LFE67:
 283              		.size	turnLeft, .-turnLeft
 284              		.section	.text.turnRight,"ax",%progbits
 285              		.align	2
 286              		.global	turnRight
 287              		.thumb
 288              		.thumb_func
 289              		.type	turnRight, %function
 290              	turnRight:
 291              	.LFB68:
 144:main.c        ****     }
 145:main.c        ****     
 146:main.c        **** }
 147:main.c        **** void turnRight(){
 292              		.loc 1 147 0
 293              		.cfi_startproc
 294              		@ args = 0, pretend = 0, frame = 0
 295              		@ frame_needed = 0, uses_anonymous_args = 0
 296 0000 08B5     		push	{r3, lr}
 297              		.cfi_def_cfa_offset 8
 298              		.cfi_offset 3, -8
 299              		.cfi_offset 14, -4
 148:main.c        ****     PWM_1_WriteCompare(30);
 300              		.loc 1 148 0
 301 0002 1E20     		movs	r0, #30
 302 0004 FFF7FEFF 		bl	PWM_1_WriteCompare
 303              	.LVL20:
 149:main.c        ****     PWM_2_WriteCompare(70);
 304              		.loc 1 149 0
 305 0008 4620     		movs	r0, #70
 306 000a FFF7FEFF 		bl	PWM_2_WriteCompare
 307              	.LVL21:
ARM GAS  C:\Users\umasu\AppData\Local\Temp\ccXwaREY.s 			page 9


 150:main.c        ****     if(Sout_M1_Read()==0 || Sout_M2_Read()==0){
 308              		.loc 1 150 0
 309 000e FFF7FEFF 		bl	Sout_M1_Read
 310              	.LVL22:
 311 0012 10B1     		cbz	r0, .L21
 312              		.loc 1 150 0 is_stmt 0 discriminator 1
 313 0014 FFF7FEFF 		bl	Sout_M2_Read
 314              	.LVL23:
 315 0018 50B9     		cbnz	r0, .L20
 316              	.L21:
 151:main.c        ****        isTurning=false;
 317              		.loc 1 151 0 is_stmt 1
 318 001a 0023     		movs	r3, #0
 319 001c 054A     		ldr	r2, .L24
 320 001e 1377     		strb	r3, [r2, #28]
 152:main.c        ****        current_state=GO_STRAIGHT;
 321              		.loc 1 152 0
 322 0020 054A     		ldr	r2, .L24+4
 323 0022 1373     		strb	r3, [r2, #12]
 153:main.c        ****        PWM_1_WriteCompare(70);
 324              		.loc 1 153 0
 325 0024 4620     		movs	r0, #70
 326 0026 FFF7FEFF 		bl	PWM_1_WriteCompare
 327              	.LVL24:
 154:main.c        ****        PWM_2_WriteCompare(71);
 328              		.loc 1 154 0
 329 002a 4720     		movs	r0, #71
 330 002c FFF7FEFF 		bl	PWM_2_WriteCompare
 331              	.LVL25:
 332              	.L20:
 333 0030 08BD     		pop	{r3, pc}
 334              	.L25:
 335 0032 00BF     		.align	2
 336              	.L24:
 337 0034 00000000 		.word	.LANCHOR1
 338 0038 00000000 		.word	.LANCHOR0
 339              		.cfi_endproc
 340              	.LFE68:
 341              		.size	turnRight, .-turnRight
 342              		.section	.text.goStraight,"ax",%progbits
 343              		.align	2
 344              		.global	goStraight
 345              		.thumb
 346              		.thumb_func
 347              		.type	goStraight, %function
 348              	goStraight:
 349              	.LFB69:
 155:main.c        ****     }
 156:main.c        **** }
 157:main.c        ****     
 158:main.c        **** 
 159:main.c        **** 
 160:main.c        **** void goStraight(){
 350              		.loc 1 160 0
 351              		.cfi_startproc
 352              		@ args = 0, pretend = 0, frame = 0
 353              		@ frame_needed = 0, uses_anonymous_args = 0
ARM GAS  C:\Users\umasu\AppData\Local\Temp\ccXwaREY.s 			page 10


 354 0000 08B5     		push	{r3, lr}
 355              		.cfi_def_cfa_offset 8
 356              		.cfi_offset 3, -8
 357              		.cfi_offset 14, -4
 161:main.c        ****     
 162:main.c        ****     //comp0==>middle left comp1==>middle right
 163:main.c        ****     if(comp0_sum>0 && comp1_sum==0){//s_ML out of line
 358              		.loc 1 163 0
 359 0002 114B     		ldr	r3, .L31
 360 0004 1B78     		ldrb	r3, [r3]	@ zero_extendqisi2
 361 0006 4BB1     		cbz	r3, .L27
 362              		.loc 1 163 0 is_stmt 0 discriminator 1
 363 0008 104A     		ldr	r2, .L31+4
 364 000a 1278     		ldrb	r2, [r2]	@ zero_extendqisi2
 365 000c 32B9     		cbnz	r2, .L27
 164:main.c        ****         PWM_2_WriteCompare(PWM_2_ReadCompare() +1);
 366              		.loc 1 164 0 is_stmt 1
 367 000e FFF7FEFF 		bl	PWM_2_ReadCompare
 368              	.LVL26:
 369 0012 0130     		adds	r0, r0, #1
 370 0014 C0B2     		uxtb	r0, r0
 371 0016 FFF7FEFF 		bl	PWM_2_WriteCompare
 372              	.LVL27:
 373 001a 08BD     		pop	{r3, pc}
 374              	.L27:
 165:main.c        ****     }else if(comp0_sum==0 && comp1_sum>0){//s_MR out of line
 375              		.loc 1 165 0
 376 001c 4BB9     		cbnz	r3, .L29
 377              		.loc 1 165 0 is_stmt 0 discriminator 1
 378 001e 0B4A     		ldr	r2, .L31+4
 379 0020 1278     		ldrb	r2, [r2]	@ zero_extendqisi2
 380 0022 32B1     		cbz	r2, .L29
 166:main.c        ****         PWM_1_WriteCompare(PWM_1_ReadCompare() +1);
 381              		.loc 1 166 0 is_stmt 1
 382 0024 FFF7FEFF 		bl	PWM_1_ReadCompare
 383              	.LVL28:
 384 0028 0130     		adds	r0, r0, #1
 385 002a C0B2     		uxtb	r0, r0
 386 002c FFF7FEFF 		bl	PWM_1_WriteCompare
 387              	.LVL29:
 388 0030 08BD     		pop	{r3, pc}
 389              	.L29:
 167:main.c        ****         
 168:main.c        ****     }else if(comp1_sum==0 && comp0_sum==0){
 390              		.loc 1 168 0
 391 0032 064A     		ldr	r2, .L31+4
 392 0034 1278     		ldrb	r2, [r2]	@ zero_extendqisi2
 393 0036 32B9     		cbnz	r2, .L26
 394              		.loc 1 168 0 is_stmt 0 discriminator 1
 395 0038 2BB9     		cbnz	r3, .L26
 169:main.c        ****         PWM_1_WriteCompare(70);
 396              		.loc 1 169 0 is_stmt 1
 397 003a 4620     		movs	r0, #70
 398 003c FFF7FEFF 		bl	PWM_1_WriteCompare
 399              	.LVL30:
 170:main.c        ****         PWM_2_WriteCompare(71);
 400              		.loc 1 170 0
ARM GAS  C:\Users\umasu\AppData\Local\Temp\ccXwaREY.s 			page 11


 401 0040 4720     		movs	r0, #71
 402 0042 FFF7FEFF 		bl	PWM_2_WriteCompare
 403              	.LVL31:
 404              	.L26:
 405 0046 08BD     		pop	{r3, pc}
 406              	.L32:
 407              		.align	2
 408              	.L31:
 409 0048 00000000 		.word	comp0_sum
 410 004c 00000000 		.word	comp1_sum
 411              		.cfi_endproc
 412              	.LFE69:
 413              		.size	goStraight, .-goStraight
 414              		.section	.text.go_distance,"ax",%progbits
 415              		.align	2
 416              		.global	go_distance
 417              		.thumb
 418              		.thumb_func
 419              		.type	go_distance, %function
 420              	go_distance:
 421              	.LFB70:
 171:main.c        ****     }
 172:main.c        ****      
 173:main.c        **** }
 174:main.c        **** void go_distance(float32 distance){
 422              		.loc 1 174 0
 423              		.cfi_startproc
 424              		@ args = 0, pretend = 0, frame = 0
 425              		@ frame_needed = 0, uses_anonymous_args = 0
 426              		@ link register save eliminated.
 427              	.LVL32:
 175:main.c        ****     distance_M1=0;
 428              		.loc 1 175 0
 429 0000 024B     		ldr	r3, .L34
 430 0002 0022     		movs	r2, #0
 431 0004 1A61     		str	r2, [r3, #16]	@ float
 176:main.c        ****     target_diatance=distance;
 432              		.loc 1 176 0
 433 0006 1862     		str	r0, [r3, #32]	@ float
 434 0008 7047     		bx	lr
 435              	.L35:
 436 000a 00BF     		.align	2
 437              	.L34:
 438 000c 00000000 		.word	.LANCHOR1
 439              		.cfi_endproc
 440              	.LFE70:
 441              		.size	go_distance, .-go_distance
 442              		.section	.text.main,"ax",%progbits
 443              		.align	2
 444              		.global	main
 445              		.thumb
 446              		.thumb_func
 447              		.type	main, %function
 448              	main:
 449              	.LFB71:
 177:main.c        **** }
 178:main.c        **** 
ARM GAS  C:\Users\umasu\AppData\Local\Temp\ccXwaREY.s 			page 12


 179:main.c        **** 
 180:main.c        **** 
 181:main.c        **** 
 182:main.c        **** int main(void)
 183:main.c        **** {
 450              		.loc 1 183 0
 451              		.cfi_startproc
 452              		@ Volatile: function does not return.
 453              		@ args = 0, pretend = 0, frame = 0
 454              		@ frame_needed = 0, uses_anonymous_args = 0
 455 0000 08B5     		push	{r3, lr}
 456              		.cfi_def_cfa_offset 8
 457              		.cfi_offset 3, -8
 458              		.cfi_offset 14, -4
 184:main.c        ****     CyGlobalIntEnable; /* Enable global interrupts. */
 459              		.loc 1 184 0
 460              		.syntax unified
 461              	@ 184 "main.c" 1
 462 0002 62B6     		CPSIE   i
 463              	@ 0 "" 2
 185:main.c        **** 
 186:main.c        ****     /* Place your initialization/startup code here (e.g. MyInst_Start()) */
 187:main.c        ****     Timer_1_Start();
 464              		.loc 1 187 0
 465              		.thumb
 466              		.syntax unified
 467 0004 FFF7FEFF 		bl	Timer_1_Start
 468              	.LVL33:
 188:main.c        ****     
 189:main.c        ****     isr_1_StartEx(isr_1_handler);
 469              		.loc 1 189 0
 470 0008 4348     		ldr	r0, .L56
 471 000a FFF7FEFF 		bl	isr_1_StartEx
 472              	.LVL34:
 190:main.c        ****     isr_3_StartEx(isr_3_handler);
 473              		.loc 1 190 0
 474 000e 4348     		ldr	r0, .L56+4
 475 0010 FFF7FEFF 		bl	isr_3_StartEx
 476              	.LVL35:
 191:main.c        ****     
 192:main.c        ****     //start comparators
 193:main.c        ****     Comp_0_Start();
 477              		.loc 1 193 0
 478 0014 FFF7FEFF 		bl	Comp_0_Start
 479              	.LVL36:
 194:main.c        ****     Comp_1_Start();
 480              		.loc 1 194 0
 481 0018 FFF7FEFF 		bl	Comp_1_Start
 482              	.LVL37:
 195:main.c        ****     Comp_2_Start();
 483              		.loc 1 195 0
 484 001c FFF7FEFF 		bl	Comp_2_Start
 485              	.LVL38:
 196:main.c        ****     Comp_3_Start();
 486              		.loc 1 196 0
 487 0020 FFF7FEFF 		bl	Comp_3_Start
 488              	.LVL39:
ARM GAS  C:\Users\umasu\AppData\Local\Temp\ccXwaREY.s 			page 13


 197:main.c        ****     
 198:main.c        ****     /*Start PWM Clk*/
 199:main.c        ****     Clock_PWM_Start(); 
 489              		.loc 1 199 0
 490 0024 FFF7FEFF 		bl	Clock_PWM_Start
 491              	.LVL40:
 200:main.c        ****     //Start PWM
 201:main.c        ****     PWM_1_Start();
 492              		.loc 1 201 0
 493 0028 FFF7FEFF 		bl	PWM_1_Start
 494              	.LVL41:
 202:main.c        ****     PWM_2_Start();
 495              		.loc 1 202 0
 496 002c FFF7FEFF 		bl	PWM_2_Start
 497              	.LVL42:
 203:main.c        ****     
 204:main.c        ****     // write comparision int for MC33926 duty cycle must me larger than 10% and less than 90%
 205:main.c        **** 
 206:main.c        ****     
 207:main.c        ****     PWM_1_WritePeriod(100);
 498              		.loc 1 207 0
 499 0030 6420     		movs	r0, #100
 500 0032 FFF7FEFF 		bl	PWM_1_WritePeriod
 501              	.LVL43:
 208:main.c        ****     PWM_2_WritePeriod(100);
 502              		.loc 1 208 0
 503 0036 6420     		movs	r0, #100
 504 0038 FFF7FEFF 		bl	PWM_2_WritePeriod
 505              	.LVL44:
 209:main.c        ****     
 210:main.c        ****     PWM_1_WriteCompare(70);
 506              		.loc 1 210 0
 507 003c 4620     		movs	r0, #70
 508 003e FFF7FEFF 		bl	PWM_1_WriteCompare
 509              	.LVL45:
 211:main.c        ****     PWM_2_WriteCompare(30);
 510              		.loc 1 211 0
 511 0042 1E20     		movs	r0, #30
 512 0044 FFF7FEFF 		bl	PWM_2_WriteCompare
 513              	.LVL46:
 212:main.c        ****     QuadDec_M1_Start();
 514              		.loc 1 212 0
 515 0048 FFF7FEFF 		bl	QuadDec_M1_Start
 516              	.LVL47:
 213:main.c        ****     QuadDec_M2_Start();
 517              		.loc 1 213 0
 518 004c FFF7FEFF 		bl	QuadDec_M2_Start
 519              	.LVL48:
 520              	.L38:
 214:main.c        ****     
 215:main.c        ****     
 216:main.c        ****     
 217:main.c        ****     for(;;)
 218:main.c        ****     {
 219:main.c        ****            //comp0 and comp1 =0  => straight
 220:main.c        ****            //comp2=0 => left
 221:main.c        ****            //comp3=0 => right
ARM GAS  C:\Users\umasu\AppData\Local\Temp\ccXwaREY.s 			page 14


 222:main.c        ****            /* Place your application code here. */       
 223:main.c        ****         if(!isTurning ){//if not turning check the sensors
 521              		.loc 1 223 0
 522 0050 334B     		ldr	r3, .L56+8
 523 0052 1B7F     		ldrb	r3, [r3, #28]	@ zero_extendqisi2
 524 0054 1BBB     		cbnz	r3, .L39
 224:main.c        ****             if(Sout_M1_Read()==0 || Sout_M2_Read()==0){
 525              		.loc 1 224 0
 526 0056 FFF7FEFF 		bl	Sout_M1_Read
 527              	.LVL49:
 528 005a 10B1     		cbz	r0, .L40
 529              		.loc 1 224 0 is_stmt 0 discriminator 1
 530 005c FFF7FEFF 		bl	Sout_M2_Read
 531              	.LVL50:
 532 0060 18B9     		cbnz	r0, .L41
 533              	.L40:
 225:main.c        ****                     current_state = GO_STRAIGHT;
 534              		.loc 1 225 0 is_stmt 1
 535 0062 0022     		movs	r2, #0
 536 0064 2F4B     		ldr	r3, .L56+12
 537 0066 1A73     		strb	r2, [r3, #12]
 538 0068 19E0     		b	.L39
 539              	.L41:
 226:main.c        ****             }else if(Sout_L_Read()==0) {//left on
 540              		.loc 1 226 0
 541 006a FFF7FEFF 		bl	Sout_L_Read
 542              	.LVL51:
 543 006e 38B9     		cbnz	r0, .L42
 227:main.c        ****                     current_state = TURN_LEFT;
 544              		.loc 1 227 0
 545 0070 0124     		movs	r4, #1
 546 0072 2C4B     		ldr	r3, .L56+12
 547 0074 1C73     		strb	r4, [r3, #12]
 228:main.c        ****                     QuadDec_M1_SetCounter(0);
 548              		.loc 1 228 0
 549 0076 FFF7FEFF 		bl	QuadDec_M1_SetCounter
 550              	.LVL52:
 229:main.c        ****                     isTurning=true;
 551              		.loc 1 229 0
 552 007a 294B     		ldr	r3, .L56+8
 553 007c 1C77     		strb	r4, [r3, #28]
 554 007e 0EE0     		b	.L39
 555              	.L42:
 230:main.c        ****             }else if(Sout_R_Read()==0){//right on
 556              		.loc 1 230 0
 557 0080 FFF7FEFF 		bl	Sout_R_Read
 558              	.LVL53:
 559 0084 40B9     		cbnz	r0, .L43
 231:main.c        ****                     current_state = TURN_RIGHT;
 560              		.loc 1 231 0
 561 0086 0222     		movs	r2, #2
 562 0088 264B     		ldr	r3, .L56+12
 563 008a 1A73     		strb	r2, [r3, #12]
 232:main.c        ****                     QuadDec_M2_SetCounter(0);//reset 
 564              		.loc 1 232 0
 565 008c FFF7FEFF 		bl	QuadDec_M2_SetCounter
 566              	.LVL54:
ARM GAS  C:\Users\umasu\AppData\Local\Temp\ccXwaREY.s 			page 15


 233:main.c        ****                     isTurning=true;
 567              		.loc 1 233 0
 568 0090 0122     		movs	r2, #1
 569 0092 234B     		ldr	r3, .L56+8
 570 0094 1A77     		strb	r2, [r3, #28]
 571 0096 02E0     		b	.L39
 572              	.L43:
 234:main.c        ****             }else {
 235:main.c        ****                     current_state = GO_STRAIGHT;
 573              		.loc 1 235 0
 574 0098 0022     		movs	r2, #0
 575 009a 224B     		ldr	r3, .L56+12
 576 009c 1A73     		strb	r2, [r3, #12]
 577              	.L39:
 236:main.c        ****             }
 237:main.c        ****         }
 238:main.c        **** 
 239:main.c        **** 
 240:main.c        ****         
 241:main.c        ****         switch (current_state) {
 578              		.loc 1 241 0
 579 009e 214B     		ldr	r3, .L56+12
 580 00a0 1B7B     		ldrb	r3, [r3, #12]	@ zero_extendqisi2
 581 00a2 052B     		cmp	r3, #5
 582 00a4 D4D8     		bhi	.L38
 583 00a6 DFE803F0 		tbb	[pc, r3]
 584              	.L45:
 585 00aa 03       		.byte	(.L44-.L45)/2
 586 00ab 0F       		.byte	(.L52-.L45)/2
 587 00ac 19       		.byte	(.L47-.L45)/2
 588 00ad 2F       		.byte	(.L48-.L45)/2
 589 00ae 28       		.byte	(.L49-.L45)/2
 590 00af 21       		.byte	(.L50-.L45)/2
 591              		.p2align 1
 592              	.L44:
 242:main.c        ****             case GO_STRAIGHT:
 243:main.c        ****                 goStraight();
 593              		.loc 1 243 0
 594 00b0 FFF7FEFF 		bl	goStraight
 595              	.LVL55:
 244:main.c        ****                 break;
 596              		.loc 1 244 0
 597 00b4 CCE7     		b	.L38
 598              	.L53:
 245:main.c        ****             case TURN_LEFT:
 246:main.c        ****                 while(isTurning){//keep turning until QuadDec value reached
 247:main.c        ****                     if(abs(QuadDec_M1_GetCounter()) < 80){
 599              		.loc 1 247 0
 600 00b6 FFF7FEFF 		bl	QuadDec_M1_GetCounter
 601              	.LVL56:
 602 00ba 0028     		cmp	r0, #0
 603 00bc B8BF     		it	lt
 604 00be 4042     		rsblt	r0, r0, #0
 605 00c0 4F28     		cmp	r0, #79
 606 00c2 01DC     		bgt	.L52
 248:main.c        ****                        turnLeft(); 
 607              		.loc 1 248 0
ARM GAS  C:\Users\umasu\AppData\Local\Temp\ccXwaREY.s 			page 16


 608 00c4 FFF7FEFF 		bl	turnLeft
 609              	.LVL57:
 610              	.L52:
 246:main.c        ****                     if(abs(QuadDec_M1_GetCounter()) < 80){
 611              		.loc 1 246 0
 612 00c8 154B     		ldr	r3, .L56+8
 613 00ca 1B7F     		ldrb	r3, [r3, #28]	@ zero_extendqisi2
 614 00cc 002B     		cmp	r3, #0
 615 00ce F2D1     		bne	.L53
 249:main.c        ****                        // CyDelay(100);
 250:main.c        ****                     }
 251:main.c        ****                 };
 252:main.c        ****                 current_state=STOP;
 616              		.loc 1 252 0
 617 00d0 0522     		movs	r2, #5
 618 00d2 144B     		ldr	r3, .L56+12
 619 00d4 1A73     		strb	r2, [r3, #12]
 253:main.c        ****                 break;    
 620              		.loc 1 253 0
 621 00d6 BBE7     		b	.L38
 622              	.L54:
 254:main.c        ****             case TURN_RIGHT:
 255:main.c        ****                 while(isTurning){
 256:main.c        ****                     turnRight();
 623              		.loc 1 256 0
 624 00d8 FFF7FEFF 		bl	turnRight
 625              	.LVL58:
 626              	.L47:
 255:main.c        ****                     turnRight();
 627              		.loc 1 255 0
 628 00dc 104B     		ldr	r3, .L56+8
 629 00de 1B7F     		ldrb	r3, [r3, #28]	@ zero_extendqisi2
 630 00e0 002B     		cmp	r3, #0
 631 00e2 F9D1     		bne	.L54
 257:main.c        ****                 }
 258:main.c        ****                 current_state=STOP;
 632              		.loc 1 258 0
 633 00e4 0522     		movs	r2, #5
 634 00e6 0F4B     		ldr	r3, .L56+12
 635 00e8 1A73     		strb	r2, [r3, #12]
 259:main.c        ****                 break;  
 636              		.loc 1 259 0
 637 00ea B1E7     		b	.L38
 638              	.L50:
 260:main.c        ****             case STOP:
 261:main.c        ****                 PWM_1_WriteCompare(50);
 639              		.loc 1 261 0
 640 00ec 3220     		movs	r0, #50
 641 00ee FFF7FEFF 		bl	PWM_1_WriteCompare
 642              	.LVL59:
 262:main.c        ****                 PWM_2_WriteCompare(50);
 643              		.loc 1 262 0
 644 00f2 3220     		movs	r0, #50
 645 00f4 FFF7FEFF 		bl	PWM_2_WriteCompare
 646              	.LVL60:
 263:main.c        ****                 break;
 647              		.loc 1 263 0
ARM GAS  C:\Users\umasu\AppData\Local\Temp\ccXwaREY.s 			page 17


 648 00f8 AAE7     		b	.L38
 649              	.L49:
 264:main.c        ****          //LEFT_ADJUST & RIGHT_ADJUST states not used    
 265:main.c        ****             case LEFT_ADJUST:
 266:main.c        ****                 PWM_2_WriteCompare(PWM_2_ReadCompare()+1);//increase left wheel speed
 650              		.loc 1 266 0
 651 00fa FFF7FEFF 		bl	PWM_2_ReadCompare
 652              	.LVL61:
 653 00fe 0130     		adds	r0, r0, #1
 654 0100 C0B2     		uxtb	r0, r0
 655 0102 FFF7FEFF 		bl	PWM_2_WriteCompare
 656              	.LVL62:
 267:main.c        ****                 break; 
 657              		.loc 1 267 0
 658 0106 A3E7     		b	.L38
 659              	.L48:
 268:main.c        ****             case RIGHT_ADJUST:
 269:main.c        ****                 PWM_1_WriteCompare(PWM_1_ReadCompare()+1);//increase right wheel speed
 660              		.loc 1 269 0
 661 0108 FFF7FEFF 		bl	PWM_1_ReadCompare
 662              	.LVL63:
 663 010c 0130     		adds	r0, r0, #1
 664 010e C0B2     		uxtb	r0, r0
 665 0110 FFF7FEFF 		bl	PWM_1_WriteCompare
 666              	.LVL64:
 270:main.c        ****                 break; 
 667              		.loc 1 270 0
 668 0114 9CE7     		b	.L38
 669              	.L57:
 670 0116 00BF     		.align	2
 671              	.L56:
 672 0118 00000000 		.word	isr_1_handler
 673 011c 00000000 		.word	isr_3_handler
 674 0120 00000000 		.word	.LANCHOR1
 675 0124 00000000 		.word	.LANCHOR0
 676              		.cfi_endproc
 677              	.LFE71:
 678              		.size	main, .-main
 679              		.comm	PWM_L,1,1
 680              		.comm	PWM_R,1,1
 681              		.comm	comp3_sum,1,1
 682              		.comm	comp2_sum,1,1
 683              		.comm	comp1_sum,1,1
 684              		.comm	comp0_sum,1,1
 685              		.global	isTurning
 686              		.global	count
 687              		.global	current_state
 688              		.global	counter
 689              		.global	encoder_value_sum_M2
 690              		.global	encoder_value_sum_M1
 691              		.global	speed_M2
 692              		.global	speed_M1
 693              		.global	target_diatance
 694              		.global	current_distance_M2
 695              		.global	current_distance_M1
 696              		.global	distance_M2
 697              		.global	distance_M1
ARM GAS  C:\Users\umasu\AppData\Local\Temp\ccXwaREY.s 			page 18


 698              		.global	timeInterval_s
 699              		.global	wheelCircumference_cm
 700              		.global	CPR
 701              		.global	encoderCounts_M2
 702              		.global	encoderCounts_M1
 703              		.data
 704              		.align	3
 705              		.set	.LANCHOR0,. + 0
 706              		.type	counter, %object
 707              		.size	counter, 1
 708              	counter:
 709 0000 01       		.byte	1
 710 0001 000000   		.space	3
 711              		.type	CPR, %object
 712              		.size	CPR, 4
 713              	CPR:
 714 0004 E4000000 		.word	228
 715              		.type	wheelCircumference_cm, %object
 716              		.size	wheelCircumference_cm, 4
 717              	wheelCircumference_cm:
 718 0008 7201A241 		.word	1101136242
 719              		.type	current_state, %object
 720              		.size	current_state, 1
 721              	current_state:
 722 000c 05       		.byte	5
 723 000d 000000   		.space	3
 724              		.type	timeInterval_s, %object
 725              		.size	timeInterval_s, 8
 726              	timeInterval_s:
 727 0010 0C022B87 		.word	-2027224564
 728 0014 16D92540 		.word	1076222230
 729              		.bss
 730              		.align	2
 731              		.set	.LANCHOR1,. + 0
 732              		.type	encoderCounts_M1, %object
 733              		.size	encoderCounts_M1, 4
 734              	encoderCounts_M1:
 735 0000 00000000 		.space	4
 736              		.type	encoderCounts_M2, %object
 737              		.size	encoderCounts_M2, 4
 738              	encoderCounts_M2:
 739 0004 00000000 		.space	4
 740              		.type	encoder_value_sum_M1, %object
 741              		.size	encoder_value_sum_M1, 4
 742              	encoder_value_sum_M1:
 743 0008 00000000 		.space	4
 744              		.type	encoder_value_sum_M2, %object
 745              		.size	encoder_value_sum_M2, 4
 746              	encoder_value_sum_M2:
 747 000c 00000000 		.space	4
 748              		.type	distance_M1, %object
 749              		.size	distance_M1, 4
 750              	distance_M1:
 751 0010 00000000 		.space	4
 752              		.type	distance_M2, %object
 753              		.size	distance_M2, 4
 754              	distance_M2:
ARM GAS  C:\Users\umasu\AppData\Local\Temp\ccXwaREY.s 			page 19


 755 0014 00000000 		.space	4
 756              		.type	count, %object
 757              		.size	count, 4
 758              	count:
 759 0018 00000000 		.space	4
 760              		.type	isTurning, %object
 761              		.size	isTurning, 1
 762              	isTurning:
 763 001c 00       		.space	1
 764 001d 000000   		.space	3
 765              		.type	target_diatance, %object
 766              		.size	target_diatance, 4
 767              	target_diatance:
 768 0020 00000000 		.space	4
 769              		.type	speed_M2, %object
 770              		.size	speed_M2, 4
 771              	speed_M2:
 772 0024 00000000 		.space	4
 773              		.type	speed_M1, %object
 774              		.size	speed_M1, 4
 775              	speed_M1:
 776 0028 00000000 		.space	4
 777              		.type	current_distance_M2, %object
 778              		.size	current_distance_M2, 4
 779              	current_distance_M2:
 780 002c 00000000 		.space	4
 781              		.type	current_distance_M1, %object
 782              		.size	current_distance_M1, 4
 783              	current_distance_M1:
 784 0030 00000000 		.space	4
 785              		.text
 786              	.Letext0:
 787              		.file 2 "c:\\program files (x86)\\cypress\\psoc creator\\4.2\\psoc creator\\import\\gnu\\arm\\5.4.
 788              		.file 3 "c:\\program files (x86)\\cypress\\psoc creator\\4.2\\psoc creator\\import\\gnu\\arm\\5.4.
 789              		.file 4 "Generated_Source\\PSoC5/cytypes.h"
 790              		.file 5 "Generated_Source\\PSoC5/core_cm3.h"
 791              		.file 6 "Generated_Source\\PSoC5/QuadDec_M1.h"
 792              		.file 7 "Generated_Source\\PSoC5/QuadDec_M2.h"
 793              		.file 8 "Generated_Source\\PSoC5/Timer_1.h"
 794              		.file 9 "Generated_Source\\PSoC5/Comp_0.h"
 795              		.file 10 "Generated_Source\\PSoC5/Comp_1.h"
 796              		.file 11 "Generated_Source\\PSoC5/Comp_2.h"
 797              		.file 12 "Generated_Source\\PSoC5/Comp_3.h"
 798              		.file 13 "Generated_Source\\PSoC5/PWM_1.h"
 799              		.file 14 "Generated_Source\\PSoC5/PWM_2.h"
 800              		.file 15 "Generated_Source\\PSoC5/Sout_M1.h"
 801              		.file 16 "Generated_Source\\PSoC5/Sout_M2.h"
 802              		.file 17 "Generated_Source\\PSoC5/isr_1.h"
 803              		.file 18 "Generated_Source\\PSoC5/isr_3.h"
 804              		.file 19 "Generated_Source\\PSoC5/Clock_PWM.h"
 805              		.file 20 "Generated_Source\\PSoC5/Sout_L.h"
 806              		.file 21 "Generated_Source\\PSoC5/Sout_R.h"