ARM GAS  C:\Users\CALEBW~1\AppData\Local\Temp\cc5XhmVN.s 			page 1


   1              		.syntax unified
   2              		.cpu cortex-m3
   3              		.fpu softvfp
   4              		.eabi_attribute 20, 1
   5              		.eabi_attribute 21, 1
   6              		.eabi_attribute 23, 3
   7              		.eabi_attribute 24, 1
   8              		.eabi_attribute 25, 1
   9              		.eabi_attribute 26, 1
  10              		.eabi_attribute 30, 1
  11              		.eabi_attribute 34, 1
  12              		.eabi_attribute 18, 4
  13              		.thumb
  14              		.syntax unified
  15              		.file	"main.c"
  16              		.text
  17              	.Ltext0:
  18              		.cfi_sections	.debug_frame
  19              		.global	__aeabi_i2d
  20              		.global	__aeabi_dmul
  21              		.global	__aeabi_d2uiz
  22              		.section	.text.isr_TC_handler,"ax",%progbits
  23              		.align	2
  24              		.global	isr_TC_handler
  25              		.thumb
  26              		.thumb_func
  27              		.type	isr_TC_handler, %function
  28              	isr_TC_handler:
  29              	.LFB64:
  30              		.file 1 "main.c"
   1:main.c        **** /* ========================================
   2:main.c        ****  *
   3:main.c        ****  * Copyright YOUR COMPANY, THE YEAR
   4:main.c        ****  * All Rights Reserved
   5:main.c        ****  * UNPUBLISHED, LICENSED SOFTWARE.
   6:main.c        ****  *
   7:main.c        ****  * CONFIDENTIAL AND PROPRIETARY INFORMATION
   8:main.c        ****  * WHICH IS THE PROPERTY OF your company.
   9:main.c        ****  *
  10:main.c        ****  * ========================================
  11:main.c        **** */
  12:main.c        **** #include <stdio.h> 
  13:main.c        **** #include <stdlib.h>
  14:main.c        **** #include <math.h>
  15:main.c        **** 
  16:main.c        **** #include "project.h"
  17:main.c        **** #include "defines.h"
  18:main.c        **** 
  19:main.c        **** void usbPutString(char *s);
  20:main.c        **** uint8 ci = 0;
  21:main.c        **** uint8 i = 0;
  22:main.c        **** uint8 counter = 1;
  23:main.c        **** 
  24:main.c        **** uint16 speed = 0;
  25:main.c        **** uint8 ready_to_send = 0;
  26:main.c        **** char buffer[20];
  27:main.c        **** 
ARM GAS  C:\Users\CALEBW~1\AppData\Local\Temp\cc5XhmVN.s 			page 2


  28:main.c        **** CY_ISR(isr_TC_handler){
  31              		.loc 1 28 0
  32              		.cfi_startproc
  33              		@ args = 0, pretend = 0, frame = 0
  34              		@ frame_needed = 0, uses_anonymous_args = 0
  35 0000 38B5     		push	{r3, r4, r5, lr}
  36              		.cfi_def_cfa_offset 16
  37              		.cfi_offset 3, -16
  38              		.cfi_offset 4, -12
  39              		.cfi_offset 5, -8
  40              		.cfi_offset 14, -4
  29:main.c        ****     if (counter != 10){
  41              		.loc 1 29 0
  42 0002 154B     		ldr	r3, .L5+8
  43 0004 1B78     		ldrb	r3, [r3]	@ zero_extendqisi2
  44 0006 0A2B     		cmp	r3, #10
  45 0008 03D0     		beq	.L2
  30:main.c        ****      counter++;
  46              		.loc 1 30 0
  47 000a 0133     		adds	r3, r3, #1
  48 000c 124A     		ldr	r2, .L5+8
  49 000e 1370     		strb	r3, [r2]
  50 0010 38BD     		pop	{r3, r4, r5, pc}
  51              	.L2:
  31:main.c        ****     }else{
  32:main.c        ****         // 2.731ms *10
  33:main.c        ****         ci = QuadDec_M1_GetCounter();
  52              		.loc 1 33 0
  53 0012 FFF7FEFF 		bl	QuadDec_M1_GetCounter
  54              	.LVL0:
  55 0016 C0B2     		uxtb	r0, r0
  56 0018 104C     		ldr	r4, .L5+12
  57 001a 2070     		strb	r0, [r4]
  34:main.c        ****         speed = ci * 8.13;
  58              		.loc 1 34 0
  59 001c FFF7FEFF 		bl	__aeabi_i2d
  60              	.LVL1:
  61 0020 0BA3     		adr	r3, .L5
  62 0022 D3E90023 		ldrd	r2, [r3]
  63 0026 FFF7FEFF 		bl	__aeabi_dmul
  64              	.LVL2:
  65 002a FFF7FEFF 		bl	__aeabi_d2uiz
  66              	.LVL3:
  67 002e 82B2     		uxth	r2, r0
  68 0030 6280     		strh	r2, [r4, #2]	@ movhi
  35:main.c        ****         counter = 1;
  69              		.loc 1 35 0
  70 0032 0125     		movs	r5, #1
  71 0034 084B     		ldr	r3, .L5+8
  72 0036 1D70     		strb	r5, [r3]
  36:main.c        ****         sprintf(buffer, "%d", speed);
  73              		.loc 1 36 0
  74 0038 0949     		ldr	r1, .L5+16
  75 003a 0A48     		ldr	r0, .L5+20
  76 003c FFF7FEFF 		bl	sprintf
  77              	.LVL4:
  37:main.c        ****         ready_to_send = 1;
ARM GAS  C:\Users\CALEBW~1\AppData\Local\Temp\cc5XhmVN.s 			page 3


  78              		.loc 1 37 0
  79 0040 2571     		strb	r5, [r4, #4]
  38:main.c        ****         QuadDec_M1_SetCounter(0);
  80              		.loc 1 38 0
  81 0042 0020     		movs	r0, #0
  82 0044 FFF7FEFF 		bl	QuadDec_M1_SetCounter
  83              	.LVL5:
  84 0048 38BD     		pop	{r3, r4, r5, pc}
  85              	.L6:
  86 004a 00BFAFF3 		.align	3
  86      0080
  87              	.L5:
  88 0050 C3F5285C 		.word	1546188227
  89 0054 8F422040 		.word	1075856015
  90 0058 00000000 		.word	.LANCHOR0
  91 005c 00000000 		.word	.LANCHOR1
  92 0060 00000000 		.word	.LC0
  93 0064 00000000 		.word	buffer
  94              		.cfi_endproc
  95              	.LFE64:
  96              		.size	isr_TC_handler, .-isr_TC_handler
  97              		.section	.text.usbPutString,"ax",%progbits
  98              		.align	2
  99              		.global	usbPutString
 100              		.thumb
 101              		.thumb_func
 102              		.type	usbPutString, %function
 103              	usbPutString:
 104              	.LFB66:
  39:main.c        ****     }
  40:main.c        ****     
  41:main.c        ****     
  42:main.c        **** }
  43:main.c        ****  
  44:main.c        **** int main(void)
  45:main.c        **** {
  46:main.c        ****     CyGlobalIntEnable; /* Enable global interrupts. */
  47:main.c        ****     /*Start PWM Clk*/
  48:main.c        ****     Clock_PWM_Start(); 
  49:main.c        ****     //Start PWM
  50:main.c        ****     PWM_1_Start();
  51:main.c        ****     PWM_2_Start();
  52:main.c        ****     // write comparision int for MC33926 duty cycle must me larger than 10% and less than 90%
  53:main.c        ****     PWM_2_WriteCompare(50);
  54:main.c        ****     PWM_1_WriteCompare(50);
  55:main.c        ****     PWM_1_WritePeriod(100);
  56:main.c        ****     PWM_2_WritePeriod(100);
  57:main.c        ****     USBUART_1_Start(0, USBUART_1_5V_OPERATION);
  58:main.c        ****     while (USBUART_1_GetConfiguration()==0){};
  59:main.c        ****     QuadDec_M1_Start();
  60:main.c        ****     Timer_1_Start();
  61:main.c        ****     isr_1_StartEx(isr_TC_handler);
  62:main.c        ****     
  63:main.c        **** //    usbPutString(itoa(ci,buffer,10));
  64:main.c        ****     
  65:main.c        **** 
  66:main.c        ****     /* Place your initialization/startup code here (e.g. MyInst_Start()) */
ARM GAS  C:\Users\CALEBW~1\AppData\Local\Temp\cc5XhmVN.s 			page 4


  67:main.c        **** 
  68:main.c        ****     for(;;)
  69:main.c        ****     {
  70:main.c        ****         if (ready_to_send == 1){
  71:main.c        ****             usbPutString(buffer);
  72:main.c        ****             //USBUART_1_PutString(buffer);
  73:main.c        ****             ready_to_send = 0;
  74:main.c        ****         }
  75:main.c        ****         
  76:main.c        ****         /* Place your application code here. */
  77:main.c        ****     }
  78:main.c        **** }
  79:main.c        **** 
  80:main.c        **** 
  81:main.c        **** void usbPutString(char *s)
  82:main.c        **** {
 105              		.loc 1 82 0
 106              		.cfi_startproc
 107              		@ args = 0, pretend = 0, frame = 0
 108              		@ frame_needed = 0, uses_anonymous_args = 0
 109              	.LVL6:
 110 0000 10B5     		push	{r4, lr}
 111              		.cfi_def_cfa_offset 8
 112              		.cfi_offset 4, -8
 113              		.cfi_offset 14, -4
 114 0002 0446     		mov	r4, r0
 115              	.LVL7:
 116              	.L8:
  83:main.c        **** // !! Assumes that *s is a string with allocated space >=64 chars     
  84:main.c        **** //  Since USB implementation retricts data packets to 64 chars, this function truncates the
  85:main.c        **** //  length to 62 char (63rd char is a '!')
  86:main.c        **** 
  87:main.c        **** #ifdef USE_USB     
  88:main.c        ****     while (USBUART_1_CDCIsReady() == 0);
 117              		.loc 1 88 0 discriminator 1
 118 0004 FFF7FEFF 		bl	USBUART_1_CDCIsReady
 119              	.LVL8:
 120 0008 0028     		cmp	r0, #0
 121 000a FBD0     		beq	.L8
  89:main.c        ****     s[63]='\0';
 122              		.loc 1 89 0
 123 000c 0023     		movs	r3, #0
 124 000e 84F83F30 		strb	r3, [r4, #63]
  90:main.c        ****     s[62]='!';
 125              		.loc 1 90 0
 126 0012 2123     		movs	r3, #33
 127 0014 84F83E30 		strb	r3, [r4, #62]
  91:main.c        ****     USBUART_1_PutData((uint8*)s,strlen(s));
 128              		.loc 1 91 0
 129 0018 2046     		mov	r0, r4
 130 001a FFF7FEFF 		bl	strlen
 131              	.LVL9:
 132 001e 81B2     		uxth	r1, r0
 133 0020 2046     		mov	r0, r4
 134 0022 FFF7FEFF 		bl	USBUART_1_PutData
 135              	.LVL10:
 136 0026 10BD     		pop	{r4, pc}
ARM GAS  C:\Users\CALEBW~1\AppData\Local\Temp\cc5XhmVN.s 			page 5


 137              		.cfi_endproc
 138              	.LFE66:
 139              		.size	usbPutString, .-usbPutString
 140              		.section	.text.main,"ax",%progbits
 141              		.align	2
 142              		.global	main
 143              		.thumb
 144              		.thumb_func
 145              		.type	main, %function
 146              	main:
 147              	.LFB65:
  45:main.c        ****     CyGlobalIntEnable; /* Enable global interrupts. */
 148              		.loc 1 45 0
 149              		.cfi_startproc
 150              		@ Volatile: function does not return.
 151              		@ args = 0, pretend = 0, frame = 0
 152              		@ frame_needed = 0, uses_anonymous_args = 0
 153 0000 08B5     		push	{r3, lr}
 154              		.cfi_def_cfa_offset 8
 155              		.cfi_offset 3, -8
 156              		.cfi_offset 14, -4
  46:main.c        ****     /*Start PWM Clk*/
 157              		.loc 1 46 0
 158              		.syntax unified
 159              	@ 46 "main.c" 1
 160 0002 62B6     		CPSIE   i
 161              	@ 0 "" 2
  48:main.c        ****     //Start PWM
 162              		.loc 1 48 0
 163              		.thumb
 164              		.syntax unified
 165 0004 FFF7FEFF 		bl	Clock_PWM_Start
 166              	.LVL11:
  50:main.c        ****     PWM_2_Start();
 167              		.loc 1 50 0
 168 0008 FFF7FEFF 		bl	PWM_1_Start
 169              	.LVL12:
  51:main.c        ****     // write comparision int for MC33926 duty cycle must me larger than 10% and less than 90%
 170              		.loc 1 51 0
 171 000c FFF7FEFF 		bl	PWM_2_Start
 172              	.LVL13:
  53:main.c        ****     PWM_1_WriteCompare(50);
 173              		.loc 1 53 0
 174 0010 3220     		movs	r0, #50
 175 0012 FFF7FEFF 		bl	PWM_2_WriteCompare
 176              	.LVL14:
  54:main.c        ****     PWM_1_WritePeriod(100);
 177              		.loc 1 54 0
 178 0016 3220     		movs	r0, #50
 179 0018 FFF7FEFF 		bl	PWM_1_WriteCompare
 180              	.LVL15:
  55:main.c        ****     PWM_2_WritePeriod(100);
 181              		.loc 1 55 0
 182 001c 6420     		movs	r0, #100
 183 001e FFF7FEFF 		bl	PWM_1_WritePeriod
 184              	.LVL16:
  56:main.c        ****     USBUART_1_Start(0, USBUART_1_5V_OPERATION);
ARM GAS  C:\Users\CALEBW~1\AppData\Local\Temp\cc5XhmVN.s 			page 6


 185              		.loc 1 56 0
 186 0022 6420     		movs	r0, #100
 187 0024 FFF7FEFF 		bl	PWM_2_WritePeriod
 188              	.LVL17:
  57:main.c        ****     while (USBUART_1_GetConfiguration()==0){};
 189              		.loc 1 57 0
 190 0028 0121     		movs	r1, #1
 191 002a 0020     		movs	r0, #0
 192 002c FFF7FEFF 		bl	USBUART_1_Start
 193              	.LVL18:
 194              	.L11:
  58:main.c        ****     QuadDec_M1_Start();
 195              		.loc 1 58 0 discriminator 1
 196 0030 FFF7FEFF 		bl	USBUART_1_GetConfiguration
 197              	.LVL19:
 198 0034 0028     		cmp	r0, #0
 199 0036 FBD0     		beq	.L11
  59:main.c        ****     Timer_1_Start();
 200              		.loc 1 59 0
 201 0038 FFF7FEFF 		bl	QuadDec_M1_Start
 202              	.LVL20:
  60:main.c        ****     isr_1_StartEx(isr_TC_handler);
 203              		.loc 1 60 0
 204 003c FFF7FEFF 		bl	Timer_1_Start
 205              	.LVL21:
  61:main.c        ****     
 206              		.loc 1 61 0
 207 0040 0648     		ldr	r0, .L15
 208 0042 FFF7FEFF 		bl	isr_1_StartEx
 209              	.LVL22:
 210              	.L12:
  70:main.c        ****             usbPutString(buffer);
 211              		.loc 1 70 0
 212 0046 064B     		ldr	r3, .L15+4
 213 0048 1B79     		ldrb	r3, [r3, #4]	@ zero_extendqisi2
 214 004a 012B     		cmp	r3, #1
 215 004c FBD1     		bne	.L12
  71:main.c        ****             //USBUART_1_PutString(buffer);
 216              		.loc 1 71 0
 217 004e 0548     		ldr	r0, .L15+8
 218 0050 FFF7FEFF 		bl	usbPutString
 219              	.LVL23:
  73:main.c        ****         }
 220              		.loc 1 73 0
 221 0054 0022     		movs	r2, #0
 222 0056 024B     		ldr	r3, .L15+4
 223 0058 1A71     		strb	r2, [r3, #4]
 224 005a F4E7     		b	.L12
 225              	.L16:
 226              		.align	2
 227              	.L15:
 228 005c 00000000 		.word	isr_TC_handler
 229 0060 00000000 		.word	.LANCHOR1
 230 0064 00000000 		.word	buffer
 231              		.cfi_endproc
 232              	.LFE65:
 233              		.size	main, .-main
ARM GAS  C:\Users\CALEBW~1\AppData\Local\Temp\cc5XhmVN.s 			page 7


 234              		.section	.text.usbPutChar,"ax",%progbits
 235              		.align	2
 236              		.global	usbPutChar
 237              		.thumb
 238              		.thumb_func
 239              		.type	usbPutChar, %function
 240              	usbPutChar:
 241              	.LFB67:
  92:main.c        **** #endif
  93:main.c        **** }
  94:main.c        **** //* ========================================
  95:main.c        **** void usbPutChar(char c)
  96:main.c        **** {
 242              		.loc 1 96 0
 243              		.cfi_startproc
 244              		@ args = 0, pretend = 0, frame = 0
 245              		@ frame_needed = 0, uses_anonymous_args = 0
 246              	.LVL24:
 247 0000 10B5     		push	{r4, lr}
 248              		.cfi_def_cfa_offset 8
 249              		.cfi_offset 4, -8
 250              		.cfi_offset 14, -4
 251 0002 0446     		mov	r4, r0
 252              	.LVL25:
 253              	.L18:
  97:main.c        **** #ifdef USE_USB     
  98:main.c        ****     while (USBUART_1_CDCIsReady() == 0);
 254              		.loc 1 98 0 discriminator 1
 255 0004 FFF7FEFF 		bl	USBUART_1_CDCIsReady
 256              	.LVL26:
 257 0008 0028     		cmp	r0, #0
 258 000a FBD0     		beq	.L18
  99:main.c        ****     USBUART_1_PutChar(c);
 259              		.loc 1 99 0
 260 000c 2046     		mov	r0, r4
 261 000e FFF7FEFF 		bl	USBUART_1_PutChar
 262              	.LVL27:
 263 0012 10BD     		pop	{r4, pc}
 264              		.cfi_endproc
 265              	.LFE67:
 266              		.size	usbPutChar, .-usbPutChar
 267              		.comm	buffer,20,4
 268              		.global	ready_to_send
 269              		.global	speed
 270              		.global	counter
 271              		.global	i
 272              		.global	ci
 273              		.data
 274              		.set	.LANCHOR0,. + 0
 275              		.type	counter, %object
 276              		.size	counter, 1
 277              	counter:
 278 0000 01       		.byte	1
 279              		.section	.rodata.str1.4,"aMS",%progbits,1
 280              		.align	2
 281              	.LC0:
 282 0000 256400   		.ascii	"%d\000"
ARM GAS  C:\Users\CALEBW~1\AppData\Local\Temp\cc5XhmVN.s 			page 8


 283              		.bss
 284              		.align	1
 285              		.set	.LANCHOR1,. + 0
 286              		.type	ci, %object
 287              		.size	ci, 1
 288              	ci:
 289 0000 00       		.space	1
 290 0001 00       		.space	1
 291              		.type	speed, %object
 292              		.size	speed, 2
 293              	speed:
 294 0002 0000     		.space	2
 295              		.type	ready_to_send, %object
 296              		.size	ready_to_send, 1
 297              	ready_to_send:
 298 0004 00       		.space	1
 299              		.type	i, %object
 300              		.size	i, 1
 301              	i:
 302 0005 00       		.space	1
 303              		.text
 304              	.Letext0:
 305              		.file 2 "c:\\program files (x86)\\cypress\\psoc creator\\4.4\\psoc creator\\import\\gnu\\arm\\5.4.
 306              		.file 3 "c:\\program files (x86)\\cypress\\psoc creator\\4.4\\psoc creator\\import\\gnu\\arm\\5.4.
 307              		.file 4 "Generated_Source\\PSoC5/cytypes.h"
 308              		.file 5 "Generated_Source\\PSoC5/core_cm3.h"
 309              		.file 6 "Generated_Source\\PSoC5/QuadDec_M1.h"
 310              		.file 7 "c:\\program files (x86)\\cypress\\psoc creator\\4.4\\psoc creator\\import\\gnu\\arm\\5.4.
 311              		.file 8 "Generated_Source\\PSoC5/USBUART_1_cdc.h"
 312              		.file 9 "c:\\program files (x86)\\cypress\\psoc creator\\4.4\\psoc creator\\import\\gnu\\arm\\5.4.
 313              		.file 10 "Generated_Source\\PSoC5/Clock_PWM.h"
 314              		.file 11 "Generated_Source\\PSoC5/PWM_1.h"
 315              		.file 12 "Generated_Source\\PSoC5/PWM_2.h"
 316              		.file 13 "Generated_Source\\PSoC5/USBUART_1.h"
 317              		.file 14 "Generated_Source\\PSoC5/Timer_1.h"
 318              		.file 15 "Generated_Source\\PSoC5/isr_1.h"