ARM GAS  C:\Users\dulan\AppData\Local\Temp\ccCXPLF8.s 			page 1


   1              		.syntax unified
   2              		.cpu cortex-m3
   3              		.fpu softvfp
   4              		.eabi_attribute 20, 1
   5              		.eabi_attribute 21, 1
   6              		.eabi_attribute 23, 3
   7              		.eabi_attribute 24, 1
   8              		.eabi_attribute 25, 1
   9              		.eabi_attribute 26, 1
  10              		.eabi_attribute 30, 1
  11              		.eabi_attribute 34, 1
  12              		.eabi_attribute 18, 4
  13              		.thumb
  14              		.syntax unified
  15              		.file	"main.c"
  16              		.text
  17              	.Ltext0:
  18              		.cfi_sections	.debug_frame
  19              		.global	__aeabi_i2f
  20              		.global	__aeabi_fmul
  21              		.section	.text.isr_3_handler,"ax",%progbits
  22              		.align	2
  23              		.global	isr_3_handler
  24              		.thumb
  25              		.thumb_func
  26              		.type	isr_3_handler, %function
  27              	isr_3_handler:
  28              	.LFB64:
  29              		.file 1 "main.c"
   1:main.c        **** /* ========================================
   2:main.c        ****  *
   3:main.c        ****  * Copyright YOUR COMPANY, THE YEAR
   4:main.c        ****  * All Rights Reserved
   5:main.c        ****  * UNPUBLISHED, LICENSED SOFTWARE.
   6:main.c        ****  *
   7:main.c        ****  * CONFIDENTIAL AND PROPRIETARY INFORMATION
   8:main.c        ****  * WHICH IS THE PROPERTY OF your company.
   9:main.c        ****  *
  10:main.c        ****  * ========================================
  11:main.c        **** */
  12:main.c        **** /* ========================================
  13:main.c        ****  * Fully working code: 
  14:main.c        ****  * PWM      : 
  15:main.c        ****  * Encoder  : 
  16:main.c        ****  * ADC      :
  17:main.c        ****  * USB      : port displays speed and position.
  18:main.c        ****  * CMD: "PW xx"
  19:main.c        ****  * Copyright Univ of Auckland, 2016
  20:main.c        ****  * All Rights Reserved
  21:main.c        ****  * UNPUBLISHED, LICENSED SOFTWARE.
  22:main.c        ****  *
  23:main.c        ****  * CONFIDENTIAL AND PROPRIETARY INFORMATION
  24:main.c        ****  * WHICH IS THE PROPERTY OF Univ of Auckland.
  25:main.c        ****  *
  26:main.c        ****  * ========================================
  27:main.c        **** */
  28:main.c        **** #include <stdio.h>
ARM GAS  C:\Users\dulan\AppData\Local\Temp\ccCXPLF8.s 			page 2


  29:main.c        **** #include <string.h>
  30:main.c        **** #include <stdlib.h>
  31:main.c        **** #include <project.h>
  32:main.c        **** #include <stdbool.h>
  33:main.c        **** #include <math.h>
  34:main.c        **** #include "project.h"
  35:main.c        **** #include <cytypes.h> // Include the appropriate header for your platform
  36:main.c        **** 
  37:main.c        **** //distance calculation paras
  38:main.c        **** int32 encoderCounts_M1 = 0;  
  39:main.c        **** int32 encoderCounts_M2 = 0;  
  40:main.c        **** int32 CPR = 228;  // Adjusted for 4x resolution(228/4)
  41:main.c        **** float wheelCircumference_cm = (M_PI*64.46)/10;// wheel circumference wheelDiameter_mm = 64.46)
  42:main.c        **** double timeInterval_s = 10.924;  // Effective time interval( (timer period )2.731*4)
  43:main.c        **** float32  distance_M1 = 0;
  44:main.c        **** float32  distance_M2 = 0;
  45:main.c        **** float32  current_distance_M1 = 0;
  46:main.c        **** float32  current_distance_M2 = 0;
  47:main.c        **** float32 target_diatance = 0;//cm
  48:main.c        **** float32 speed_M1 = 0;
  49:main.c        **** float32 speed_M2 = 0;
  50:main.c        **** int32 encoder_value_sum_M1 = 0;
  51:main.c        **** int32 encoder_value_sum_M2 = 0;
  52:main.c        **** uint8 counter = 1;
  53:main.c        **** 
  54:main.c        **** // Define states for the state machine
  55:main.c        **** typedef enum {
  56:main.c        ****     GO_STRAIGHT,
  57:main.c        ****     TURN_LEFT,
  58:main.c        ****     TURN_RIGHT,
  59:main.c        ****     RIGHT_ADJUST,
  60:main.c        ****     LEFT_ADJUST,
  61:main.c        ****     STOP,
  62:main.c        **** } RobotState;
  63:main.c        **** 
  64:main.c        **** RobotState current_state = STOP;// intialse state
  65:main.c        **** 
  66:main.c        **** uint32 count = 0;
  67:main.c        **** bool isTurning=false;
  68:main.c        **** 
  69:main.c        **** uint8 comp0_sum;
  70:main.c        **** uint8 comp1_sum;
  71:main.c        **** uint8 comp2_sum;
  72:main.c        **** uint8 comp3_sum;
  73:main.c        **** 
  74:main.c        **** uint8 PWM_R;
  75:main.c        **** uint8 PWM_L;
  76:main.c        **** 
  77:main.c        **** 
  78:main.c        **** 
  79:main.c        **** CY_ISR(isr_3_handler) {
  30              		.loc 1 79 0
  31              		.cfi_startproc
  32              		@ args = 0, pretend = 0, frame = 0
  33              		@ frame_needed = 0, uses_anonymous_args = 0
  34 0000 F8B5     		push	{r3, r4, r5, r6, r7, lr}
  35              		.cfi_def_cfa_offset 24
ARM GAS  C:\Users\dulan\AppData\Local\Temp\ccCXPLF8.s 			page 3


  36              		.cfi_offset 3, -24
  37              		.cfi_offset 4, -20
  38              		.cfi_offset 5, -16
  39              		.cfi_offset 6, -12
  40              		.cfi_offset 7, -8
  41              		.cfi_offset 14, -4
  80:main.c        ****     if (counter < 20){
  42              		.loc 1 80 0
  43 0002 1A4B     		ldr	r3, .L5
  44 0004 1B78     		ldrb	r3, [r3]	@ zero_extendqisi2
  45 0006 132B     		cmp	r3, #19
  46 0008 03D8     		bhi	.L2
  81:main.c        ****         counter++;
  47              		.loc 1 81 0
  48 000a 0133     		adds	r3, r3, #1
  49 000c 174A     		ldr	r2, .L5
  50 000e 1370     		strb	r3, [r2]
  51 0010 28E0     		b	.L3
  52              	.L2:
  82:main.c        ****     }else{
  83:main.c        ****         counter = 1;
  53              		.loc 1 83 0
  54 0012 164E     		ldr	r6, .L5
  55 0014 0123     		movs	r3, #1
  56 0016 3370     		strb	r3, [r6]
  84:main.c        ****         // Encoder counts (negative due to counterclockwise rotation)
  85:main.c        ****         encoderCounts_M1 = abs(QuadDec_M1_GetCounter());//QuadDec_M1_GetCounter();
  57              		.loc 1 85 0
  58 0018 FFF7FEFF 		bl	QuadDec_M1_GetCounter
  59              	.LVL0:
  60 001c 0028     		cmp	r0, #0
  61 001e B8BF     		it	lt
  62 0020 4042     		rsblt	r0, r0, #0
  63 0022 134C     		ldr	r4, .L5+4
  64 0024 2060     		str	r0, [r4]
  86:main.c        ****         encoderCounts_M2 = abs(QuadDec_M2_GetCounter());
  65              		.loc 1 86 0
  66 0026 FFF7FEFF 		bl	QuadDec_M2_GetCounter
  67              	.LVL1:
  68 002a 0028     		cmp	r0, #0
  69 002c B8BF     		it	lt
  70 002e 4042     		rsblt	r0, r0, #0
  71 0030 6060     		str	r0, [r4, #4]
  87:main.c        ****         
  88:main.c        ****         // sum of encodercounts
  89:main.c        ****         encoder_value_sum_M1 += encoderCounts_M1;
  72              		.loc 1 89 0
  73 0032 A268     		ldr	r2, [r4, #8]
  74 0034 2368     		ldr	r3, [r4]
  75 0036 1A44     		add	r2, r2, r3
  76 0038 A260     		str	r2, [r4, #8]
  90:main.c        ****         encoder_value_sum_M2 += encoderCounts_M2;
  77              		.loc 1 90 0
  78 003a E368     		ldr	r3, [r4, #12]
  79 003c C518     		adds	r5, r0, r3
  80 003e E560     		str	r5, [r4, #12]
  91:main.c        ****         
ARM GAS  C:\Users\dulan\AppData\Local\Temp\ccCXPLF8.s 			page 4


  92:main.c        ****         // distance calculations 
  93:main.c        ****         distance_M1 = (encoder_value_sum_M1/CPR) * wheelCircumference_cm;
  81              		.loc 1 93 0
  82 0040 7768     		ldr	r7, [r6, #4]
  83 0042 B668     		ldr	r6, [r6, #8]	@ float
  84 0044 92FBF7F0 		sdiv	r0, r2, r7
  85 0048 FFF7FEFF 		bl	__aeabi_i2f
  86              	.LVL2:
  87 004c 3146     		mov	r1, r6
  88 004e FFF7FEFF 		bl	__aeabi_fmul
  89              	.LVL3:
  90 0052 2061     		str	r0, [r4, #16]	@ float
  94:main.c        ****         distance_M2 = (encoder_value_sum_M2/CPR) * wheelCircumference_cm;
  91              		.loc 1 94 0
  92 0054 95FBF7F0 		sdiv	r0, r5, r7
  93 0058 FFF7FEFF 		bl	__aeabi_i2f
  94              	.LVL4:
  95 005c 3146     		mov	r1, r6
  96 005e FFF7FEFF 		bl	__aeabi_fmul
  97              	.LVL5:
  98 0062 6061     		str	r0, [r4, #20]	@ float
  99              	.L3:
  95:main.c        ****         
  96:main.c        **** 
  97:main.c        **** //        //reset the encoder counters 
  98:main.c        **** //        QuadDec_M1_SetCounter(0);
  99:main.c        **** //        QuadDec_M2_SetCounter(0);     
 100:main.c        ****     }
 101:main.c        ****         Timer_1_ReadStatusRegister();
 100              		.loc 1 101 0
 101 0064 FFF7FEFF 		bl	Timer_1_ReadStatusRegister
 102              	.LVL6:
 103 0068 F8BD     		pop	{r3, r4, r5, r6, r7, pc}
 104              	.L6:
 105 006a 00BF     		.align	2
 106              	.L5:
 107 006c 00000000 		.word	.LANCHOR0
 108 0070 00000000 		.word	.LANCHOR1
 109              		.cfi_endproc
 110              	.LFE64:
 111              		.size	isr_3_handler, .-isr_3_handler
 112              		.section	.text.isr_1_handler,"ax",%progbits
 113              		.align	2
 114              		.global	isr_1_handler
 115              		.thumb
 116              		.thumb_func
 117              		.type	isr_1_handler, %function
 118              	isr_1_handler:
 119              	.LFB65:
 102:main.c        **** }
 103:main.c        **** 
 104:main.c        **** 
 105:main.c        **** 
 106:main.c        **** CY_ISR(isr_1_handler) {
 120              		.loc 1 106 0
 121              		.cfi_startproc
 122              		@ args = 0, pretend = 0, frame = 0
ARM GAS  C:\Users\dulan\AppData\Local\Temp\ccCXPLF8.s 			page 5


 123              		@ frame_needed = 0, uses_anonymous_args = 0
 124 0000 08B5     		push	{r3, lr}
 125              		.cfi_def_cfa_offset 8
 126              		.cfi_offset 3, -8
 127              		.cfi_offset 14, -4
 107:main.c        ****     //every 1ms 
 108:main.c        ****     
 109:main.c        ****     //sum up comp values every 1ms
 110:main.c        ****     comp0_sum+=Comp_0_GetCompare();
 128              		.loc 1 110 0
 129 0002 FFF7FEFF 		bl	Comp_0_GetCompare
 130              	.LVL7:
 131 0006 164A     		ldr	r2, .L10
 132 0008 1378     		ldrb	r3, [r2]	@ zero_extendqisi2
 133 000a 1844     		add	r0, r0, r3
 134 000c 1070     		strb	r0, [r2]
 111:main.c        ****     comp1_sum+=Comp_1_GetCompare();
 135              		.loc 1 111 0
 136 000e FFF7FEFF 		bl	Comp_1_GetCompare
 137              	.LVL8:
 138 0012 144A     		ldr	r2, .L10+4
 139 0014 1378     		ldrb	r3, [r2]	@ zero_extendqisi2
 140 0016 1844     		add	r0, r0, r3
 141 0018 1070     		strb	r0, [r2]
 112:main.c        ****     comp2_sum+=Comp_2_GetCompare();
 142              		.loc 1 112 0
 143 001a FFF7FEFF 		bl	Comp_2_GetCompare
 144              	.LVL9:
 145 001e 124A     		ldr	r2, .L10+8
 146 0020 1378     		ldrb	r3, [r2]	@ zero_extendqisi2
 147 0022 1844     		add	r0, r0, r3
 148 0024 1070     		strb	r0, [r2]
 113:main.c        ****     comp3_sum+=Comp_3_GetCompare();
 149              		.loc 1 113 0
 150 0026 FFF7FEFF 		bl	Comp_3_GetCompare
 151              	.LVL10:
 152 002a 104A     		ldr	r2, .L10+12
 153 002c 1378     		ldrb	r3, [r2]	@ zero_extendqisi2
 154 002e 1844     		add	r0, r0, r3
 155 0030 1070     		strb	r0, [r2]
 114:main.c        ****     
 115:main.c        ****     
 116:main.c        ****     if(count==8){
 156              		.loc 1 116 0
 157 0032 0F4B     		ldr	r3, .L10+16
 158 0034 9B69     		ldr	r3, [r3, #24]
 159 0036 082B     		cmp	r3, #8
 160 0038 0AD1     		bne	.L8
 117:main.c        ****         
 118:main.c        **** 
 119:main.c        ****         //reset to check again every 8ms
 120:main.c        ****         comp0_sum=0;
 161              		.loc 1 120 0
 162 003a 0023     		movs	r3, #0
 163 003c 084A     		ldr	r2, .L10
 164 003e 1370     		strb	r3, [r2]
 121:main.c        ****         comp1_sum=0;
ARM GAS  C:\Users\dulan\AppData\Local\Temp\ccCXPLF8.s 			page 6


 165              		.loc 1 121 0
 166 0040 084A     		ldr	r2, .L10+4
 167 0042 1370     		strb	r3, [r2]
 122:main.c        ****         comp2_sum=0;
 168              		.loc 1 122 0
 169 0044 084A     		ldr	r2, .L10+8
 170 0046 1370     		strb	r3, [r2]
 123:main.c        ****         comp3_sum=0;
 171              		.loc 1 123 0
 172 0048 084A     		ldr	r2, .L10+12
 173 004a 1370     		strb	r3, [r2]
 124:main.c        ****         count=0;
 174              		.loc 1 124 0
 175 004c 084A     		ldr	r2, .L10+16
 176 004e 9361     		str	r3, [r2, #24]
 177              	.L8:
 125:main.c        ****     }
 126:main.c        ****    
 127:main.c        **** 
 128:main.c        ****     count++;
 178              		.loc 1 128 0
 179 0050 074A     		ldr	r2, .L10+16
 180 0052 9369     		ldr	r3, [r2, #24]
 181 0054 0133     		adds	r3, r3, #1
 182 0056 9361     		str	r3, [r2, #24]
 129:main.c        ****     Timer_1_ReadStatusRegister();
 183              		.loc 1 129 0
 184 0058 FFF7FEFF 		bl	Timer_1_ReadStatusRegister
 185              	.LVL11:
 186 005c 08BD     		pop	{r3, pc}
 187              	.L11:
 188 005e 00BF     		.align	2
 189              	.L10:
 190 0060 00000000 		.word	comp0_sum
 191 0064 00000000 		.word	comp1_sum
 192 0068 00000000 		.word	comp2_sum
 193 006c 00000000 		.word	comp3_sum
 194 0070 00000000 		.word	.LANCHOR1
 195              		.cfi_endproc
 196              	.LFE65:
 197              		.size	isr_1_handler, .-isr_1_handler
 198              		.section	.text.stop,"ax",%progbits
 199              		.align	2
 200              		.global	stop
 201              		.thumb
 202              		.thumb_func
 203              		.type	stop, %function
 204              	stop:
 205              	.LFB66:
 130:main.c        **** }
 131:main.c        **** 
 132:main.c        **** void stop(){
 206              		.loc 1 132 0
 207              		.cfi_startproc
 208              		@ args = 0, pretend = 0, frame = 0
 209              		@ frame_needed = 0, uses_anonymous_args = 0
 210 0000 08B5     		push	{r3, lr}
ARM GAS  C:\Users\dulan\AppData\Local\Temp\ccCXPLF8.s 			page 7


 211              		.cfi_def_cfa_offset 8
 212              		.cfi_offset 3, -8
 213              		.cfi_offset 14, -4
 133:main.c        ****     PWM_1_WriteCompare(50);
 214              		.loc 1 133 0
 215 0002 3220     		movs	r0, #50
 216 0004 FFF7FEFF 		bl	PWM_1_WriteCompare
 217              	.LVL12:
 134:main.c        ****     PWM_2_WriteCompare(50);
 218              		.loc 1 134 0
 219 0008 3220     		movs	r0, #50
 220 000a FFF7FEFF 		bl	PWM_2_WriteCompare
 221              	.LVL13:
 222 000e 08BD     		pop	{r3, pc}
 223              		.cfi_endproc
 224              	.LFE66:
 225              		.size	stop, .-stop
 226              		.section	.text.turnLeft,"ax",%progbits
 227              		.align	2
 228              		.global	turnLeft
 229              		.thumb
 230              		.thumb_func
 231              		.type	turnLeft, %function
 232              	turnLeft:
 233              	.LFB67:
 135:main.c        **** }
 136:main.c        **** void turnLeft(){
 234              		.loc 1 136 0
 235              		.cfi_startproc
 236              		@ args = 0, pretend = 0, frame = 0
 237              		@ frame_needed = 0, uses_anonymous_args = 0
 238 0000 08B5     		push	{r3, lr}
 239              		.cfi_def_cfa_offset 8
 240              		.cfi_offset 3, -8
 241              		.cfi_offset 14, -4
 137:main.c        ****     PWM_1_WriteCompare(70);
 242              		.loc 1 137 0
 243 0002 4620     		movs	r0, #70
 244 0004 FFF7FEFF 		bl	PWM_1_WriteCompare
 245              	.LVL14:
 138:main.c        ****     PWM_2_WriteCompare(30);
 246              		.loc 1 138 0
 247 0008 1E20     		movs	r0, #30
 248 000a FFF7FEFF 		bl	PWM_2_WriteCompare
 249              	.LVL15:
 139:main.c        ****     if(abs(QuadDec_M1_GetCounter())>70){
 250              		.loc 1 139 0
 251 000e FFF7FEFF 		bl	QuadDec_M1_GetCounter
 252              	.LVL16:
 253 0012 0028     		cmp	r0, #0
 254 0014 B8BF     		it	lt
 255 0016 4042     		rsblt	r0, r0, #0
 256 0018 4628     		cmp	r0, #70
 257 001a 04DD     		ble	.L14
 140:main.c        ****        isTurning=false;
 258              		.loc 1 140 0
 259 001c 0023     		movs	r3, #0
ARM GAS  C:\Users\dulan\AppData\Local\Temp\ccCXPLF8.s 			page 8


 260 001e 024A     		ldr	r2, .L17
 261 0020 1377     		strb	r3, [r2, #28]
 141:main.c        ****        current_state=GO_STRAIGHT;
 262              		.loc 1 141 0
 263 0022 024A     		ldr	r2, .L17+4
 264 0024 1373     		strb	r3, [r2, #12]
 265              	.L14:
 266 0026 08BD     		pop	{r3, pc}
 267              	.L18:
 268              		.align	2
 269              	.L17:
 270 0028 00000000 		.word	.LANCHOR1
 271 002c 00000000 		.word	.LANCHOR0
 272              		.cfi_endproc
 273              	.LFE67:
 274              		.size	turnLeft, .-turnLeft
 275              		.section	.text.turnRight,"ax",%progbits
 276              		.align	2
 277              		.global	turnRight
 278              		.thumb
 279              		.thumb_func
 280              		.type	turnRight, %function
 281              	turnRight:
 282              	.LFB68:
 142:main.c        ****     }
 143:main.c        ****     
 144:main.c        **** }
 145:main.c        **** void turnRight(){
 283              		.loc 1 145 0
 284              		.cfi_startproc
 285              		@ args = 0, pretend = 0, frame = 0
 286              		@ frame_needed = 0, uses_anonymous_args = 0
 287 0000 08B5     		push	{r3, lr}
 288              		.cfi_def_cfa_offset 8
 289              		.cfi_offset 3, -8
 290              		.cfi_offset 14, -4
 146:main.c        ****     PWM_1_WriteCompare(30);
 291              		.loc 1 146 0
 292 0002 1E20     		movs	r0, #30
 293 0004 FFF7FEFF 		bl	PWM_1_WriteCompare
 294              	.LVL17:
 147:main.c        ****     PWM_2_WriteCompare(70);
 295              		.loc 1 147 0
 296 0008 4620     		movs	r0, #70
 297 000a FFF7FEFF 		bl	PWM_2_WriteCompare
 298              	.LVL18:
 148:main.c        ****     if(abs(QuadDec_M1_GetCounter())>70){
 299              		.loc 1 148 0
 300 000e FFF7FEFF 		bl	QuadDec_M1_GetCounter
 301              	.LVL19:
 302 0012 0028     		cmp	r0, #0
 303 0014 B8BF     		it	lt
 304 0016 4042     		rsblt	r0, r0, #0
 305 0018 4628     		cmp	r0, #70
 306 001a 04DD     		ble	.L19
 149:main.c        ****        isTurning=false;
 307              		.loc 1 149 0
ARM GAS  C:\Users\dulan\AppData\Local\Temp\ccCXPLF8.s 			page 9


 308 001c 0023     		movs	r3, #0
 309 001e 024A     		ldr	r2, .L22
 310 0020 1377     		strb	r3, [r2, #28]
 150:main.c        ****        current_state=GO_STRAIGHT;
 311              		.loc 1 150 0
 312 0022 024A     		ldr	r2, .L22+4
 313 0024 1373     		strb	r3, [r2, #12]
 314              	.L19:
 315 0026 08BD     		pop	{r3, pc}
 316              	.L23:
 317              		.align	2
 318              	.L22:
 319 0028 00000000 		.word	.LANCHOR1
 320 002c 00000000 		.word	.LANCHOR0
 321              		.cfi_endproc
 322              	.LFE68:
 323              		.size	turnRight, .-turnRight
 324              		.section	.text.goStraight,"ax",%progbits
 325              		.align	2
 326              		.global	goStraight
 327              		.thumb
 328              		.thumb_func
 329              		.type	goStraight, %function
 330              	goStraight:
 331              	.LFB69:
 151:main.c        ****     }
 152:main.c        **** }
 153:main.c        ****     
 154:main.c        **** 
 155:main.c        **** 
 156:main.c        **** void goStraight(){
 332              		.loc 1 156 0
 333              		.cfi_startproc
 334              		@ args = 0, pretend = 0, frame = 0
 335              		@ frame_needed = 0, uses_anonymous_args = 0
 336 0000 08B5     		push	{r3, lr}
 337              		.cfi_def_cfa_offset 8
 338              		.cfi_offset 3, -8
 339              		.cfi_offset 14, -4
 157:main.c        ****     
 158:main.c        ****     //comp0==>middle left comp1==>middle right
 159:main.c        ****     if(comp0_sum>0 && comp1_sum==0){//s_ML out of line
 340              		.loc 1 159 0
 341 0002 114B     		ldr	r3, .L29
 342 0004 1B78     		ldrb	r3, [r3]	@ zero_extendqisi2
 343 0006 4BB1     		cbz	r3, .L25
 344              		.loc 1 159 0 is_stmt 0 discriminator 1
 345 0008 104A     		ldr	r2, .L29+4
 346 000a 1278     		ldrb	r2, [r2]	@ zero_extendqisi2
 347 000c 32B9     		cbnz	r2, .L25
 160:main.c        ****         PWM_2_WriteCompare(PWM_2_ReadCompare() +1);
 348              		.loc 1 160 0 is_stmt 1
 349 000e FFF7FEFF 		bl	PWM_2_ReadCompare
 350              	.LVL20:
 351 0012 0130     		adds	r0, r0, #1
 352 0014 C0B2     		uxtb	r0, r0
 353 0016 FFF7FEFF 		bl	PWM_2_WriteCompare
ARM GAS  C:\Users\dulan\AppData\Local\Temp\ccCXPLF8.s 			page 10


 354              	.LVL21:
 355 001a 08BD     		pop	{r3, pc}
 356              	.L25:
 161:main.c        ****     }else if(comp0_sum==0 && comp1_sum>0){//s_MR out of line
 357              		.loc 1 161 0
 358 001c 4BB9     		cbnz	r3, .L27
 359              		.loc 1 161 0 is_stmt 0 discriminator 1
 360 001e 0B4A     		ldr	r2, .L29+4
 361 0020 1278     		ldrb	r2, [r2]	@ zero_extendqisi2
 362 0022 32B1     		cbz	r2, .L27
 162:main.c        ****         PWM_1_WriteCompare(PWM_1_ReadCompare() +1);
 363              		.loc 1 162 0 is_stmt 1
 364 0024 FFF7FEFF 		bl	PWM_1_ReadCompare
 365              	.LVL22:
 366 0028 0130     		adds	r0, r0, #1
 367 002a C0B2     		uxtb	r0, r0
 368 002c FFF7FEFF 		bl	PWM_1_WriteCompare
 369              	.LVL23:
 370 0030 08BD     		pop	{r3, pc}
 371              	.L27:
 163:main.c        ****         
 164:main.c        ****     }else if(comp1_sum==0 && comp0_sum==0){
 372              		.loc 1 164 0
 373 0032 064A     		ldr	r2, .L29+4
 374 0034 1278     		ldrb	r2, [r2]	@ zero_extendqisi2
 375 0036 32B9     		cbnz	r2, .L24
 376              		.loc 1 164 0 is_stmt 0 discriminator 1
 377 0038 2BB9     		cbnz	r3, .L24
 165:main.c        ****         PWM_1_WriteCompare(70);
 378              		.loc 1 165 0 is_stmt 1
 379 003a 4620     		movs	r0, #70
 380 003c FFF7FEFF 		bl	PWM_1_WriteCompare
 381              	.LVL24:
 166:main.c        ****         PWM_2_WriteCompare(71);
 382              		.loc 1 166 0
 383 0040 4720     		movs	r0, #71
 384 0042 FFF7FEFF 		bl	PWM_2_WriteCompare
 385              	.LVL25:
 386              	.L24:
 387 0046 08BD     		pop	{r3, pc}
 388              	.L30:
 389              		.align	2
 390              	.L29:
 391 0048 00000000 		.word	comp0_sum
 392 004c 00000000 		.word	comp1_sum
 393              		.cfi_endproc
 394              	.LFE69:
 395              		.size	goStraight, .-goStraight
 396              		.section	.text.go_distance,"ax",%progbits
 397              		.align	2
 398              		.global	go_distance
 399              		.thumb
 400              		.thumb_func
 401              		.type	go_distance, %function
 402              	go_distance:
 403              	.LFB70:
 167:main.c        ****     }
ARM GAS  C:\Users\dulan\AppData\Local\Temp\ccCXPLF8.s 			page 11


 168:main.c        ****      
 169:main.c        **** }
 170:main.c        **** void go_distance(float32 distance){
 404              		.loc 1 170 0
 405              		.cfi_startproc
 406              		@ args = 0, pretend = 0, frame = 0
 407              		@ frame_needed = 0, uses_anonymous_args = 0
 408              		@ link register save eliminated.
 409              	.LVL26:
 171:main.c        ****     distance_M1=0;
 410              		.loc 1 171 0
 411 0000 024B     		ldr	r3, .L32
 412 0002 0022     		movs	r2, #0
 413 0004 1A61     		str	r2, [r3, #16]	@ float
 172:main.c        ****     target_diatance=distance;
 414              		.loc 1 172 0
 415 0006 1862     		str	r0, [r3, #32]	@ float
 416 0008 7047     		bx	lr
 417              	.L33:
 418 000a 00BF     		.align	2
 419              	.L32:
 420 000c 00000000 		.word	.LANCHOR1
 421              		.cfi_endproc
 422              	.LFE70:
 423              		.size	go_distance, .-go_distance
 424              		.section	.text.main,"ax",%progbits
 425              		.align	2
 426              		.global	main
 427              		.thumb
 428              		.thumb_func
 429              		.type	main, %function
 430              	main:
 431              	.LFB71:
 173:main.c        **** }
 174:main.c        **** 
 175:main.c        **** 
 176:main.c        **** 
 177:main.c        **** 
 178:main.c        **** int main(void)
 179:main.c        **** {
 432              		.loc 1 179 0
 433              		.cfi_startproc
 434              		@ Volatile: function does not return.
 435              		@ args = 0, pretend = 0, frame = 0
 436              		@ frame_needed = 0, uses_anonymous_args = 0
 437 0000 08B5     		push	{r3, lr}
 438              		.cfi_def_cfa_offset 8
 439              		.cfi_offset 3, -8
 440              		.cfi_offset 14, -4
 180:main.c        ****     CyGlobalIntEnable; /* Enable global interrupts. */
 441              		.loc 1 180 0
 442              		.syntax unified
 443              	@ 180 "main.c" 1
 444 0002 62B6     		CPSIE   i
 445              	@ 0 "" 2
 181:main.c        **** 
 182:main.c        ****     /* Place your initialization/startup code here (e.g. MyInst_Start()) */
ARM GAS  C:\Users\dulan\AppData\Local\Temp\ccCXPLF8.s 			page 12


 183:main.c        ****     Timer_1_Start();
 446              		.loc 1 183 0
 447              		.thumb
 448              		.syntax unified
 449 0004 FFF7FEFF 		bl	Timer_1_Start
 450              	.LVL27:
 184:main.c        ****     
 185:main.c        ****     isr_1_StartEx(isr_1_handler);
 451              		.loc 1 185 0
 452 0008 4048     		ldr	r0, .L53
 453 000a FFF7FEFF 		bl	isr_1_StartEx
 454              	.LVL28:
 186:main.c        ****     isr_3_StartEx(isr_3_handler);
 455              		.loc 1 186 0
 456 000e 4048     		ldr	r0, .L53+4
 457 0010 FFF7FEFF 		bl	isr_3_StartEx
 458              	.LVL29:
 187:main.c        ****     
 188:main.c        ****     //start comparators
 189:main.c        ****     Comp_0_Start();
 459              		.loc 1 189 0
 460 0014 FFF7FEFF 		bl	Comp_0_Start
 461              	.LVL30:
 190:main.c        ****     Comp_1_Start();
 462              		.loc 1 190 0
 463 0018 FFF7FEFF 		bl	Comp_1_Start
 464              	.LVL31:
 191:main.c        ****     Comp_2_Start();
 465              		.loc 1 191 0
 466 001c FFF7FEFF 		bl	Comp_2_Start
 467              	.LVL32:
 192:main.c        ****     Comp_3_Start();
 468              		.loc 1 192 0
 469 0020 FFF7FEFF 		bl	Comp_3_Start
 470              	.LVL33:
 193:main.c        ****     
 194:main.c        ****     /*Start PWM Clk*/
 195:main.c        ****     Clock_PWM_Start(); 
 471              		.loc 1 195 0
 472 0024 FFF7FEFF 		bl	Clock_PWM_Start
 473              	.LVL34:
 196:main.c        ****     //Start PWM
 197:main.c        ****     PWM_1_Start();
 474              		.loc 1 197 0
 475 0028 FFF7FEFF 		bl	PWM_1_Start
 476              	.LVL35:
 198:main.c        ****     PWM_2_Start();
 477              		.loc 1 198 0
 478 002c FFF7FEFF 		bl	PWM_2_Start
 479              	.LVL36:
 199:main.c        ****     
 200:main.c        ****     // write comparision int for MC33926 duty cycle must me larger than 10% and less than 90%
 201:main.c        **** 
 202:main.c        ****     
 203:main.c        ****     PWM_1_WritePeriod(100);
 480              		.loc 1 203 0
 481 0030 6420     		movs	r0, #100
ARM GAS  C:\Users\dulan\AppData\Local\Temp\ccCXPLF8.s 			page 13


 482 0032 FFF7FEFF 		bl	PWM_1_WritePeriod
 483              	.LVL37:
 204:main.c        ****     PWM_2_WritePeriod(100);
 484              		.loc 1 204 0
 485 0036 6420     		movs	r0, #100
 486 0038 FFF7FEFF 		bl	PWM_2_WritePeriod
 487              	.LVL38:
 205:main.c        ****     
 206:main.c        ****     PWM_1_WriteCompare(70);
 488              		.loc 1 206 0
 489 003c 4620     		movs	r0, #70
 490 003e FFF7FEFF 		bl	PWM_1_WriteCompare
 491              	.LVL39:
 207:main.c        ****     PWM_2_WriteCompare(30);
 492              		.loc 1 207 0
 493 0042 1E20     		movs	r0, #30
 494 0044 FFF7FEFF 		bl	PWM_2_WriteCompare
 495              	.LVL40:
 208:main.c        ****     QuadDec_M1_Start();
 496              		.loc 1 208 0
 497 0048 FFF7FEFF 		bl	QuadDec_M1_Start
 498              	.LVL41:
 209:main.c        ****     QuadDec_M2_Start();
 499              		.loc 1 209 0
 500 004c FFF7FEFF 		bl	QuadDec_M2_Start
 501              	.LVL42:
 502              	.L36:
 210:main.c        ****     
 211:main.c        ****     
 212:main.c        ****     
 213:main.c        ****     for(;;)
 214:main.c        ****     {
 215:main.c        ****           //comp0 and comp1 =0  => straight
 216:main.c        ****            //comp2=0 => left
 217:main.c        ****            //comp3=0 => right
 218:main.c        ****            /* Place your application code here. */
 219:main.c        ****         
 220:main.c        **** //        
 221:main.c        ****         if(!isTurning ){//if not turning check the sensors
 503              		.loc 1 221 0
 504 0050 304B     		ldr	r3, .L53+8
 505 0052 1B7F     		ldrb	r3, [r3, #28]	@ zero_extendqisi2
 506 0054 2BBB     		cbnz	r3, .L37
 222:main.c        ****             if(comp1_sum==0 || comp0_sum==0){
 507              		.loc 1 222 0
 508 0056 304B     		ldr	r3, .L53+12
 509 0058 1B78     		ldrb	r3, [r3]	@ zero_extendqisi2
 510 005a 13B1     		cbz	r3, .L38
 511              		.loc 1 222 0 is_stmt 0 discriminator 1
 512 005c 2F4B     		ldr	r3, .L53+16
 513 005e 1B78     		ldrb	r3, [r3]	@ zero_extendqisi2
 514 0060 1BB9     		cbnz	r3, .L39
 515              	.L38:
 223:main.c        ****                     current_state = GO_STRAIGHT;
 516              		.loc 1 223 0 is_stmt 1
 517 0062 0022     		movs	r2, #0
 518 0064 2E4B     		ldr	r3, .L53+20
ARM GAS  C:\Users\dulan\AppData\Local\Temp\ccCXPLF8.s 			page 14


 519 0066 1A73     		strb	r2, [r3, #12]
 520 0068 1BE0     		b	.L37
 521              	.L39:
 224:main.c        ****             }else if(comp2_sum == 0) {//left on
 522              		.loc 1 224 0
 523 006a 2E4B     		ldr	r3, .L53+24
 524 006c 1B78     		ldrb	r3, [r3]	@ zero_extendqisi2
 525 006e 43B9     		cbnz	r3, .L40
 225:main.c        ****                     current_state = TURN_LEFT;
 526              		.loc 1 225 0
 527 0070 0124     		movs	r4, #1
 528 0072 2B4B     		ldr	r3, .L53+20
 529 0074 1C73     		strb	r4, [r3, #12]
 226:main.c        ****                     QuadDec_M1_SetCounter(0);
 530              		.loc 1 226 0
 531 0076 0020     		movs	r0, #0
 532 0078 FFF7FEFF 		bl	QuadDec_M1_SetCounter
 533              	.LVL43:
 227:main.c        ****                     isTurning=true;
 534              		.loc 1 227 0
 535 007c 254B     		ldr	r3, .L53+8
 536 007e 1C77     		strb	r4, [r3, #28]
 537 0080 0FE0     		b	.L37
 538              	.L40:
 228:main.c        ****             }else if(comp3_sum==0){//right on
 539              		.loc 1 228 0
 540 0082 294B     		ldr	r3, .L53+28
 541 0084 1B78     		ldrb	r3, [r3]	@ zero_extendqisi2
 542 0086 4BB9     		cbnz	r3, .L41
 229:main.c        ****                     current_state = TURN_RIGHT;
 543              		.loc 1 229 0
 544 0088 0222     		movs	r2, #2
 545 008a 254B     		ldr	r3, .L53+20
 546 008c 1A73     		strb	r2, [r3, #12]
 230:main.c        ****                     QuadDec_M2_SetCounter(0);//reset 
 547              		.loc 1 230 0
 548 008e 0020     		movs	r0, #0
 549 0090 FFF7FEFF 		bl	QuadDec_M2_SetCounter
 550              	.LVL44:
 231:main.c        ****                     isTurning=true;
 551              		.loc 1 231 0
 552 0094 0122     		movs	r2, #1
 553 0096 1F4B     		ldr	r3, .L53+8
 554 0098 1A77     		strb	r2, [r3, #28]
 555 009a 02E0     		b	.L37
 556              	.L41:
 232:main.c        ****             }else {
 233:main.c        ****                     current_state = STOP;
 557              		.loc 1 233 0
 558 009c 0522     		movs	r2, #5
 559 009e 204B     		ldr	r3, .L53+20
 560 00a0 1A73     		strb	r2, [r3, #12]
 561              	.L37:
 234:main.c        ****             }
 235:main.c        ****         }
 236:main.c        **** //        else if(comp0_sum>0 && comp1_sum==0){//s_ML out of line
 237:main.c        **** //                current_state = LEFT_ADJUST;
ARM GAS  C:\Users\dulan\AppData\Local\Temp\ccCXPLF8.s 			page 15


 238:main.c        **** //        }else if(comp0_sum==0 && comp1_sum>0){//s_MR out of line
 239:main.c        **** //                current_state = RIGHT_ADJUST;
 240:main.c        **** //        }
 241:main.c        ****      
 242:main.c        **** 
 243:main.c        ****         
 244:main.c        ****         switch (current_state) {
 562              		.loc 1 244 0
 563 00a2 1F4B     		ldr	r3, .L53+20
 564 00a4 1B7B     		ldrb	r3, [r3, #12]	@ zero_extendqisi2
 565 00a6 052B     		cmp	r3, #5
 566 00a8 D2D8     		bhi	.L36
 567 00aa DFE803F0 		tbb	[pc, r3]
 568              	.L43:
 569 00ae 03       		.byte	(.L42-.L43)/2
 570 00af 08       		.byte	(.L44-.L43)/2
 571 00b0 12       		.byte	(.L45-.L43)/2
 572 00b1 28       		.byte	(.L46-.L43)/2
 573 00b2 21       		.byte	(.L47-.L43)/2
 574 00b3 1A       		.byte	(.L48-.L43)/2
 575              		.p2align 1
 576              	.L42:
 245:main.c        ****             case GO_STRAIGHT:
 246:main.c        ****                 goStraight();
 577              		.loc 1 246 0
 578 00b4 FFF7FEFF 		bl	goStraight
 579              	.LVL45:
 247:main.c        ****                 break;
 580              		.loc 1 247 0
 581 00b8 CAE7     		b	.L36
 582              	.L50:
 248:main.c        ****             case TURN_LEFT:
 249:main.c        ****                 while(isTurning){//keep turning until QuadDec value reached
 250:main.c        ****                     turnLeft();
 583              		.loc 1 250 0
 584 00ba FFF7FEFF 		bl	turnLeft
 585              	.LVL46:
 586              	.L44:
 249:main.c        ****                     turnLeft();
 587              		.loc 1 249 0
 588 00be 154B     		ldr	r3, .L53+8
 589 00c0 1B7F     		ldrb	r3, [r3, #28]	@ zero_extendqisi2
 590 00c2 002B     		cmp	r3, #0
 591 00c4 F9D1     		bne	.L50
 251:main.c        ****                 };
 252:main.c        ****                 current_state=STOP;
 592              		.loc 1 252 0
 593 00c6 0522     		movs	r2, #5
 594 00c8 154B     		ldr	r3, .L53+20
 595 00ca 1A73     		strb	r2, [r3, #12]
 253:main.c        ****                 break;    
 596              		.loc 1 253 0
 597 00cc C0E7     		b	.L36
 598              	.L51:
 254:main.c        ****             case TURN_RIGHT:
 255:main.c        ****                 while(isTurning){
 256:main.c        ****                     turnRight();
ARM GAS  C:\Users\dulan\AppData\Local\Temp\ccCXPLF8.s 			page 16


 599              		.loc 1 256 0
 600 00ce FFF7FEFF 		bl	turnRight
 601              	.LVL47:
 602              	.L45:
 255:main.c        ****                     turnRight();
 603              		.loc 1 255 0
 604 00d2 104B     		ldr	r3, .L53+8
 605 00d4 1B7F     		ldrb	r3, [r3, #28]	@ zero_extendqisi2
 606 00d6 002B     		cmp	r3, #0
 607 00d8 F9D1     		bne	.L51
 257:main.c        ****                 };
 258:main.c        ****                 current_state=STOP;
 608              		.loc 1 258 0
 609 00da 0522     		movs	r2, #5
 610 00dc 104B     		ldr	r3, .L53+20
 611 00de 1A73     		strb	r2, [r3, #12]
 259:main.c        ****                 break;  
 612              		.loc 1 259 0
 613 00e0 B6E7     		b	.L36
 614              	.L48:
 260:main.c        ****             case STOP:
 261:main.c        ****                 PWM_1_WriteCompare(50);
 615              		.loc 1 261 0
 616 00e2 3220     		movs	r0, #50
 617 00e4 FFF7FEFF 		bl	PWM_1_WriteCompare
 618              	.LVL48:
 262:main.c        ****                 PWM_2_WriteCompare(50);
 619              		.loc 1 262 0
 620 00e8 3220     		movs	r0, #50
 621 00ea FFF7FEFF 		bl	PWM_2_WriteCompare
 622              	.LVL49:
 263:main.c        ****                 break;
 623              		.loc 1 263 0
 624 00ee AFE7     		b	.L36
 625              	.L47:
 264:main.c        ****          //LEFT_ADJUST & RIGHT_ADJUST states not used    
 265:main.c        ****             case LEFT_ADJUST:
 266:main.c        ****                 PWM_2_WriteCompare(PWM_2_ReadCompare()+1);//increase left wheel speed
 626              		.loc 1 266 0
 627 00f0 FFF7FEFF 		bl	PWM_2_ReadCompare
 628              	.LVL50:
 629 00f4 0130     		adds	r0, r0, #1
 630 00f6 C0B2     		uxtb	r0, r0
 631 00f8 FFF7FEFF 		bl	PWM_2_WriteCompare
 632              	.LVL51:
 267:main.c        ****                 break; 
 633              		.loc 1 267 0
 634 00fc A8E7     		b	.L36
 635              	.L46:
 268:main.c        ****             case RIGHT_ADJUST:
 269:main.c        ****                 PWM_1_WriteCompare(PWM_1_ReadCompare()+1);//increase right wheel speed
 636              		.loc 1 269 0
 637 00fe FFF7FEFF 		bl	PWM_1_ReadCompare
 638              	.LVL52:
 639 0102 0130     		adds	r0, r0, #1
 640 0104 C0B2     		uxtb	r0, r0
 641 0106 FFF7FEFF 		bl	PWM_1_WriteCompare
ARM GAS  C:\Users\dulan\AppData\Local\Temp\ccCXPLF8.s 			page 17


 642              	.LVL53:
 270:main.c        ****                 break; 
 643              		.loc 1 270 0
 644 010a A1E7     		b	.L36
 645              	.L54:
 646              		.align	2
 647              	.L53:
 648 010c 00000000 		.word	isr_1_handler
 649 0110 00000000 		.word	isr_3_handler
 650 0114 00000000 		.word	.LANCHOR1
 651 0118 00000000 		.word	comp1_sum
 652 011c 00000000 		.word	comp0_sum
 653 0120 00000000 		.word	.LANCHOR0
 654 0124 00000000 		.word	comp2_sum
 655 0128 00000000 		.word	comp3_sum
 656              		.cfi_endproc
 657              	.LFE71:
 658              		.size	main, .-main
 659              		.comm	PWM_L,1,1
 660              		.comm	PWM_R,1,1
 661              		.comm	comp3_sum,1,1
 662              		.comm	comp2_sum,1,1
 663              		.comm	comp1_sum,1,1
 664              		.comm	comp0_sum,1,1
 665              		.global	isTurning
 666              		.global	count
 667              		.global	current_state
 668              		.global	counter
 669              		.global	encoder_value_sum_M2
 670              		.global	encoder_value_sum_M1
 671              		.global	speed_M2
 672              		.global	speed_M1
 673              		.global	target_diatance
 674              		.global	current_distance_M2
 675              		.global	current_distance_M1
 676              		.global	distance_M2
 677              		.global	distance_M1
 678              		.global	timeInterval_s
 679              		.global	wheelCircumference_cm
 680              		.global	CPR
 681              		.global	encoderCounts_M2
 682              		.global	encoderCounts_M1
 683              		.data
 684              		.align	3
 685              		.set	.LANCHOR0,. + 0
 686              		.type	counter, %object
 687              		.size	counter, 1
 688              	counter:
 689 0000 01       		.byte	1
 690 0001 000000   		.space	3
 691              		.type	CPR, %object
 692              		.size	CPR, 4
 693              	CPR:
 694 0004 E4000000 		.word	228
 695              		.type	wheelCircumference_cm, %object
 696              		.size	wheelCircumference_cm, 4
 697              	wheelCircumference_cm:
ARM GAS  C:\Users\dulan\AppData\Local\Temp\ccCXPLF8.s 			page 18


 698 0008 7201A241 		.word	1101136242
 699              		.type	current_state, %object
 700              		.size	current_state, 1
 701              	current_state:
 702 000c 05       		.byte	5
 703 000d 000000   		.space	3
 704              		.type	timeInterval_s, %object
 705              		.size	timeInterval_s, 8
 706              	timeInterval_s:
 707 0010 0C022B87 		.word	-2027224564
 708 0014 16D92540 		.word	1076222230
 709              		.bss
 710              		.align	2
 711              		.set	.LANCHOR1,. + 0
 712              		.type	encoderCounts_M1, %object
 713              		.size	encoderCounts_M1, 4
 714              	encoderCounts_M1:
 715 0000 00000000 		.space	4
 716              		.type	encoderCounts_M2, %object
 717              		.size	encoderCounts_M2, 4
 718              	encoderCounts_M2:
 719 0004 00000000 		.space	4
 720              		.type	encoder_value_sum_M1, %object
 721              		.size	encoder_value_sum_M1, 4
 722              	encoder_value_sum_M1:
 723 0008 00000000 		.space	4
 724              		.type	encoder_value_sum_M2, %object
 725              		.size	encoder_value_sum_M2, 4
 726              	encoder_value_sum_M2:
 727 000c 00000000 		.space	4
 728              		.type	distance_M1, %object
 729              		.size	distance_M1, 4
 730              	distance_M1:
 731 0010 00000000 		.space	4
 732              		.type	distance_M2, %object
 733              		.size	distance_M2, 4
 734              	distance_M2:
 735 0014 00000000 		.space	4
 736              		.type	count, %object
 737              		.size	count, 4
 738              	count:
 739 0018 00000000 		.space	4
 740              		.type	isTurning, %object
 741              		.size	isTurning, 1
 742              	isTurning:
 743 001c 00       		.space	1
 744 001d 000000   		.space	3
 745              		.type	target_diatance, %object
 746              		.size	target_diatance, 4
 747              	target_diatance:
 748 0020 00000000 		.space	4
 749              		.type	speed_M2, %object
 750              		.size	speed_M2, 4
 751              	speed_M2:
 752 0024 00000000 		.space	4
 753              		.type	speed_M1, %object
 754              		.size	speed_M1, 4
ARM GAS  C:\Users\dulan\AppData\Local\Temp\ccCXPLF8.s 			page 19


 755              	speed_M1:
 756 0028 00000000 		.space	4
 757              		.type	current_distance_M2, %object
 758              		.size	current_distance_M2, 4
 759              	current_distance_M2:
 760 002c 00000000 		.space	4
 761              		.type	current_distance_M1, %object
 762              		.size	current_distance_M1, 4
 763              	current_distance_M1:
 764 0030 00000000 		.space	4
 765              		.text
 766              	.Letext0:
 767              		.file 2 "c:\\program files (x86)\\cypress\\psoc creator\\4.4\\psoc creator\\import\\gnu\\arm\\5.4.
 768              		.file 3 "c:\\program files (x86)\\cypress\\psoc creator\\4.4\\psoc creator\\import\\gnu\\arm\\5.4.
 769              		.file 4 "Generated_Source\\PSoC5/cytypes.h"
 770              		.file 5 "Generated_Source\\PSoC5/core_cm3.h"
 771              		.file 6 "Generated_Source\\PSoC5/QuadDec_M1.h"
 772              		.file 7 "Generated_Source\\PSoC5/QuadDec_M2.h"
 773              		.file 8 "Generated_Source\\PSoC5/Timer_1.h"
 774              		.file 9 "Generated_Source\\PSoC5/Comp_0.h"
 775              		.file 10 "Generated_Source\\PSoC5/Comp_1.h"
 776              		.file 11 "Generated_Source\\PSoC5/Comp_2.h"
 777              		.file 12 "Generated_Source\\PSoC5/Comp_3.h"
 778              		.file 13 "Generated_Source\\PSoC5/PWM_1.h"
 779              		.file 14 "Generated_Source\\PSoC5/PWM_2.h"
 780              		.file 15 "Generated_Source\\PSoC5/isr_1.h"
 781              		.file 16 "Generated_Source\\PSoC5/isr_3.h"
 782              		.file 17 "Generated_Source\\PSoC5/Clock_PWM.h"