ARM GAS  C:\Users\umasu\AppData\Local\Temp\ccJqabaB.s 			page 1


   1              		.syntax unified
   2              		.cpu cortex-m3
   3              		.fpu softvfp
   4              		.eabi_attribute 20, 1
   5              		.eabi_attribute 21, 1
   6              		.eabi_attribute 23, 3
   7              		.eabi_attribute 24, 1
   8              		.eabi_attribute 25, 1
   9              		.eabi_attribute 26, 1
  10              		.eabi_attribute 30, 1
  11              		.eabi_attribute 34, 1
  12              		.eabi_attribute 18, 4
  13              		.thumb
  14              		.syntax unified
  15              		.file	"main.c"
  16              		.text
  17              	.Ltext0:
  18              		.cfi_sections	.debug_frame
  19              		.section	.text.isr_2_handler,"ax",%progbits
  20              		.align	2
  21              		.global	isr_2_handler
  22              		.thumb
  23              		.thumb_func
  24              		.type	isr_2_handler, %function
  25              	isr_2_handler:
  26              	.LFB65:
  27              		.file 1 "main.c"
   1:main.c        **** /* ========================================
   2:main.c        ****  *
   3:main.c        ****  * Copyright YOUR COMPANY, THE YEAR
   4:main.c        ****  * All Rights Reserved
   5:main.c        ****  * UNPUBLISHED, LICENSED SOFTWARE.
   6:main.c        ****  *
   7:main.c        ****  * CONFIDENTIAL AND PROPRIETARY INFORMATION
   8:main.c        ****  * WHICH IS THE PROPERTY OF your company.
   9:main.c        ****  *
  10:main.c        ****  * ========================================
  11:main.c        **** */
  12:main.c        **** /* ========================================
  13:main.c        ****  * Fully working code: 
  14:main.c        ****  * PWM      : 
  15:main.c        ****  * Encoder  : 
  16:main.c        ****  * ADC      :
  17:main.c        ****  * USB      : port displays speed and position.
  18:main.c        ****  * CMD: "PW xx"
  19:main.c        ****  * Copyright Univ of Auckland, 2016
  20:main.c        ****  * All Rights Reserved
  21:main.c        ****  * UNPUBLISHED, LICENSED SOFTWARE.
  22:main.c        ****  *
  23:main.c        ****  * CONFIDENTIAL AND PROPRIETARY INFORMATION
  24:main.c        ****  * WHICH IS THE PROPERTY OF Univ of Auckland.
  25:main.c        ****  *
  26:main.c        ****  * ========================================
  27:main.c        **** */
  28:main.c        **** #include <stdio.h>
  29:main.c        **** #include <string.h>
  30:main.c        **** #include <stdlib.h>
ARM GAS  C:\Users\umasu\AppData\Local\Temp\ccJqabaB.s 			page 2


  31:main.c        **** #include <project.h>
  32:main.c        **** #include <stdbool.h>
  33:main.c        **** #include <math.h>
  34:main.c        **** #include "project.h"
  35:main.c        **** #define TURN_ANGLE 90 // Desired turn angle in degrees
  36:main.c        **** 
  37:main.c        **** 
  38:main.c        **** // Define states for the state machine
  39:main.c        **** typedef enum {
  40:main.c        ****     GO_STRAIGHT,
  41:main.c        ****     TURN_LEFT,
  42:main.c        ****     TURN_RIGHT,
  43:main.c        ****     RIGHT_ADJUST,
  44:main.c        ****     LEFT_ADJUST,
  45:main.c        ****     STOP,
  46:main.c        **** } RobotState;
  47:main.c        **** 
  48:main.c        **** //distance calculation paras
  49:main.c        **** int32 encoderCounts_M1 = 0;  
  50:main.c        **** int32 encoderCounts_M2 = 0;  
  51:main.c        **** int32 CPR = 228;  // Adjusted for 4x resolution(228/4)
  52:main.c        **** float wheelCircumference_cm = (M_PI*64.46)/10;// wheel circumference wheelDiameter_mm = 64.46)
  53:main.c        **** double timeInterval_s = 10.924;  // Effective time interval( (timer period )2.731*4)
  54:main.c        **** float32  distance_M1 = 0;
  55:main.c        **** float32  distance_M2 = 0;
  56:main.c        **** float32  current_distance_M1 = 0;
  57:main.c        **** float32  current_distance_M2 = 0;
  58:main.c        **** float32 target_diatance = 0;//cm
  59:main.c        **** float32 turn_back_diatance = 10.125;//cm
  60:main.c        **** 
  61:main.c        **** float32 speed_M1 = 0;
  62:main.c        **** float32 speed_M2 = 0;
  63:main.c        **** int32 encoder_value_sum_M1 = 0;
  64:main.c        **** int32 encoder_value_sum_M2 = 0;
  65:main.c        **** uint8 counter = 1;
  66:main.c        **** float current_distance = 0;
  67:main.c        **** int32 prev_encoder_value_M1 = 0;
  68:main.c        **** int32 prev_encoder_value_M2 = 0;
  69:main.c        **** bool turn_start = false;
  70:main.c        **** 
  71:main.c        **** uint32 count = 0;
  72:main.c        **** uint32 turn_counter = 0;
  73:main.c        **** bool left_on=false;
  74:main.c        **** bool right_on;
  75:main.c        **** bool middle_on;
  76:main.c        **** bool turn_complete;
  77:main.c        **** 
  78:main.c        **** uint8 comp0_sum;
  79:main.c        **** uint8 comp1_sum;
  80:main.c        **** uint8 comp2_sum;
  81:main.c        **** uint8 comp3_sum;
  82:main.c        **** 
  83:main.c        **** uint8 PWM_R=80;
  84:main.c        **** uint8 PWM_L=81;
  85:main.c        **** 
  86:main.c        **** RobotState current_state = GO_STRAIGHT;// intialse state
  87:main.c        **** 
ARM GAS  C:\Users\umasu\AppData\Local\Temp\ccJqabaB.s 			page 3


  88:main.c        **** CY_ISR(isr_3_handler) {
  89:main.c        ****     if (counter < 10){
  90:main.c        ****         counter++;
  91:main.c        ****     }else{
  92:main.c        ****         counter = 1;
  93:main.c        ****         // Encoder counts (negative due to counterclockwise rotation)
  94:main.c        ****         encoderCounts_M1 = abs(QuadDec_M1_GetCounter());//QuadDec_M1_GetCounter();
  95:main.c        ****         encoderCounts_M2 = abs(QuadDec_M2_GetCounter());
  96:main.c        ****             
  97:main.c        ****         
  98:main.c        ****         // sum of encodercounts
  99:main.c        ****         encoder_value_sum_M1 += encoderCounts_M1 - prev_encoder_value_M1;
 100:main.c        ****         encoder_value_sum_M2 += encoderCounts_M2 - prev_encoder_value_M2;
 101:main.c        ****         
 102:main.c        ****         current_distance_M1 = ((encoderCounts_M1 - prev_encoder_value_M1)/CPR)*wheelCircumference_c
 103:main.c        ****         
 104:main.c        ****         // distance calculations 
 105:main.c        ****         distance_M1 = (encoder_value_sum_M1/CPR) * wheelCircumference_cm;
 106:main.c        ****         distance_M2 = (encoder_value_sum_M2/CPR) * wheelCircumference_cm;
 107:main.c        **** 
 108:main.c        ****         
 109:main.c        ****         //update prev encoder value
 110:main.c        ****         prev_encoder_value_M1 = encoderCounts_M1;
 111:main.c        ****         prev_encoder_value_M2 = encoderCounts_M2;
 112:main.c        ****         
 113:main.c        ****         
 114:main.c        ****         //reset the encoder counters 
 115:main.c        ****         QuadDec_M1_SetCounter(0);
 116:main.c        ****         QuadDec_M2_SetCounter(0);     
 117:main.c        ****     }
 118:main.c        ****         Timer_1_ReadStatusRegister();
 119:main.c        **** }
 120:main.c        **** 
 121:main.c        **** CY_ISR(isr_2_handler) {
  28              		.loc 1 121 0
  29              		.cfi_startproc
  30              		@ args = 0, pretend = 0, frame = 0
  31              		@ frame_needed = 0, uses_anonymous_args = 0
  32              		@ link register save eliminated.
 122:main.c        ****     //every 1ms 
 123:main.c        ****     if(left_on==true){
  33              		.loc 1 123 0
  34 0000 0D4B     		ldr	r3, .L4
  35 0002 1B78     		ldrb	r3, [r3]	@ zero_extendqisi2
  36 0004 B3B1     		cbz	r3, .L1
 124:main.c        ****         if(turn_counter==0){
  37              		.loc 1 124 0
  38 0006 0C4B     		ldr	r3, .L4
  39 0008 5B68     		ldr	r3, [r3, #4]
  40 000a 23B9     		cbnz	r3, .L3
 125:main.c        ****             PWM_L=50;
  41              		.loc 1 125 0
  42 000c 0B4A     		ldr	r2, .L4+4
  43 000e 3221     		movs	r1, #50
  44 0010 1170     		strb	r1, [r2]
 126:main.c        ****             PWM_R=80; 
  45              		.loc 1 126 0
ARM GAS  C:\Users\umasu\AppData\Local\Temp\ccJqabaB.s 			page 4


  46 0012 5021     		movs	r1, #80
  47 0014 5170     		strb	r1, [r2, #1]
  48              	.L3:
 127:main.c        ****            // LED_1_Write(1);
 128:main.c        ****         }
 129:main.c        ****         turn_counter++;
  49              		.loc 1 129 0
  50 0016 0133     		adds	r3, r3, #1
  51 0018 074A     		ldr	r2, .L4
  52 001a 5360     		str	r3, [r2, #4]
 130:main.c        ****         if(turn_counter==650){
  53              		.loc 1 130 0
  54 001c 40F28A22 		movw	r2, #650
  55 0020 9342     		cmp	r3, r2
  56 0022 07D1     		bne	.L1
 131:main.c        ****             left_on=false;
  57              		.loc 1 131 0
  58 0024 044B     		ldr	r3, .L4
  59 0026 0022     		movs	r2, #0
  60 0028 1A70     		strb	r2, [r3]
 132:main.c        ****             PWM_L=50;
  61              		.loc 1 132 0
  62 002a 0449     		ldr	r1, .L4+4
  63 002c 3220     		movs	r0, #50
  64 002e 0870     		strb	r0, [r1]
 133:main.c        ****             PWM_R=50;
  65              		.loc 1 133 0
  66 0030 4870     		strb	r0, [r1, #1]
 134:main.c        ****             turn_counter=0;
  67              		.loc 1 134 0
  68 0032 5A60     		str	r2, [r3, #4]
  69              	.L1:
  70 0034 7047     		bx	lr
  71              	.L5:
  72 0036 00BF     		.align	2
  73              	.L4:
  74 0038 00000000 		.word	.LANCHOR0
  75 003c 00000000 		.word	.LANCHOR1
  76              		.cfi_endproc
  77              	.LFE65:
  78              		.size	isr_2_handler, .-isr_2_handler
  79              		.global	__aeabi_i2f
  80              		.global	__aeabi_fmul
  81              		.section	.text.isr_3_handler,"ax",%progbits
  82              		.align	2
  83              		.global	isr_3_handler
  84              		.thumb
  85              		.thumb_func
  86              		.type	isr_3_handler, %function
  87              	isr_3_handler:
  88              	.LFB64:
  88:main.c        ****     if (counter < 10){
  89              		.loc 1 88 0
  90              		.cfi_startproc
  91              		@ args = 0, pretend = 0, frame = 0
  92              		@ frame_needed = 0, uses_anonymous_args = 0
  93 0000 2DE9F047 		push	{r4, r5, r6, r7, r8, r9, r10, lr}
ARM GAS  C:\Users\umasu\AppData\Local\Temp\ccJqabaB.s 			page 5


  94              		.cfi_def_cfa_offset 32
  95              		.cfi_offset 4, -32
  96              		.cfi_offset 5, -28
  97              		.cfi_offset 6, -24
  98              		.cfi_offset 7, -20
  99              		.cfi_offset 8, -16
 100              		.cfi_offset 9, -12
 101              		.cfi_offset 10, -8
 102              		.cfi_offset 14, -4
  89:main.c        ****         counter++;
 103              		.loc 1 89 0
 104 0004 284B     		ldr	r3, .L10
 105 0006 9B78     		ldrb	r3, [r3, #2]	@ zero_extendqisi2
 106 0008 092B     		cmp	r3, #9
 107 000a 03D8     		bhi	.L7
  90:main.c        ****     }else{
 108              		.loc 1 90 0
 109 000c 0133     		adds	r3, r3, #1
 110 000e 264A     		ldr	r2, .L10
 111 0010 9370     		strb	r3, [r2, #2]
 112 0012 44E0     		b	.L8
 113              	.L7:
  92:main.c        ****         // Encoder counts (negative due to counterclockwise rotation)
 114              		.loc 1 92 0
 115 0014 DFF89080 		ldr	r8, .L10
 116 0018 0123     		movs	r3, #1
 117 001a 88F80230 		strb	r3, [r8, #2]
  94:main.c        ****         encoderCounts_M2 = abs(QuadDec_M2_GetCounter());
 118              		.loc 1 94 0
 119 001e FFF7FEFF 		bl	QuadDec_M1_GetCounter
 120              	.LVL0:
 121 0022 0028     		cmp	r0, #0
 122 0024 B8BF     		it	lt
 123 0026 4042     		rsblt	r0, r0, #0
 124 0028 204C     		ldr	r4, .L10+4
 125 002a A060     		str	r0, [r4, #8]
  95:main.c        ****             
 126              		.loc 1 95 0
 127 002c FFF7FEFF 		bl	QuadDec_M2_GetCounter
 128              	.LVL1:
 129 0030 80EAE077 		eor	r7, r0, r0, asr #31
 130 0034 A7EBE077 		sub	r7, r7, r0, asr #31
 131 0038 E760     		str	r7, [r4, #12]
  99:main.c        ****         encoder_value_sum_M2 += encoderCounts_M2 - prev_encoder_value_M2;
 132              		.loc 1 99 0
 133 003a D4F80890 		ldr	r9, [r4, #8]
 134 003e 2069     		ldr	r0, [r4, #16]
 135 0040 C0EB0900 		rsb	r0, r0, r9
 136 0044 6669     		ldr	r6, [r4, #20]
 137 0046 0644     		add	r6, r6, r0
 138 0048 6661     		str	r6, [r4, #20]
 100:main.c        ****         
 139              		.loc 1 100 0
 140 004a A569     		ldr	r5, [r4, #24]
 141 004c 7D1B     		subs	r5, r7, r5
 142 004e E369     		ldr	r3, [r4, #28]
 143 0050 1D44     		add	r5, r5, r3
ARM GAS  C:\Users\umasu\AppData\Local\Temp\ccJqabaB.s 			page 6


 144 0052 E561     		str	r5, [r4, #28]
 102:main.c        ****         
 145              		.loc 1 102 0
 146 0054 D8F804A0 		ldr	r10, [r8, #4]
 147 0058 D8F80880 		ldr	r8, [r8, #8]	@ float
 148 005c 90FBFAF0 		sdiv	r0, r0, r10
 149 0060 FFF7FEFF 		bl	__aeabi_i2f
 150              	.LVL2:
 151 0064 4146     		mov	r1, r8
 152 0066 FFF7FEFF 		bl	__aeabi_fmul
 153              	.LVL3:
 154 006a 2062     		str	r0, [r4, #32]	@ float
 105:main.c        ****         distance_M2 = (encoder_value_sum_M2/CPR) * wheelCircumference_cm;
 155              		.loc 1 105 0
 156 006c 96FBFAF0 		sdiv	r0, r6, r10
 157 0070 FFF7FEFF 		bl	__aeabi_i2f
 158              	.LVL4:
 159 0074 4146     		mov	r1, r8
 160 0076 FFF7FEFF 		bl	__aeabi_fmul
 161              	.LVL5:
 162 007a 6062     		str	r0, [r4, #36]	@ float
 106:main.c        **** 
 163              		.loc 1 106 0
 164 007c 95FBFAF0 		sdiv	r0, r5, r10
 165 0080 FFF7FEFF 		bl	__aeabi_i2f
 166              	.LVL6:
 167 0084 4146     		mov	r1, r8
 168 0086 FFF7FEFF 		bl	__aeabi_fmul
 169              	.LVL7:
 170 008a A062     		str	r0, [r4, #40]	@ float
 110:main.c        ****         prev_encoder_value_M2 = encoderCounts_M2;
 171              		.loc 1 110 0
 172 008c C4F81090 		str	r9, [r4, #16]
 111:main.c        ****         
 173              		.loc 1 111 0
 174 0090 A761     		str	r7, [r4, #24]
 115:main.c        ****         QuadDec_M2_SetCounter(0);     
 175              		.loc 1 115 0
 176 0092 0020     		movs	r0, #0
 177 0094 FFF7FEFF 		bl	QuadDec_M1_SetCounter
 178              	.LVL8:
 116:main.c        ****     }
 179              		.loc 1 116 0
 180 0098 0020     		movs	r0, #0
 181 009a FFF7FEFF 		bl	QuadDec_M2_SetCounter
 182              	.LVL9:
 183              	.L8:
 118:main.c        **** }
 184              		.loc 1 118 0
 185 009e FFF7FEFF 		bl	Timer_1_ReadStatusRegister
 186              	.LVL10:
 187 00a2 BDE8F087 		pop	{r4, r5, r6, r7, r8, r9, r10, pc}
 188              	.L11:
 189 00a6 00BF     		.align	2
 190              	.L10:
 191 00a8 00000000 		.word	.LANCHOR1
 192 00ac 00000000 		.word	.LANCHOR0
ARM GAS  C:\Users\umasu\AppData\Local\Temp\ccJqabaB.s 			page 7


 193              		.cfi_endproc
 194              	.LFE64:
 195              		.size	isr_3_handler, .-isr_3_handler
 196              		.section	.text.isr_1_handler,"ax",%progbits
 197              		.align	2
 198              		.global	isr_1_handler
 199              		.thumb
 200              		.thumb_func
 201              		.type	isr_1_handler, %function
 202              	isr_1_handler:
 203              	.LFB66:
 135:main.c        ****             //LED_1_Write(0);
 136:main.c        ****         }
 137:main.c        ****         
 138:main.c        ****     }
 139:main.c        **** }
 140:main.c        **** 
 141:main.c        **** 
 142:main.c        **** CY_ISR(isr_1_handler) {
 204              		.loc 1 142 0
 205              		.cfi_startproc
 206              		@ args = 0, pretend = 0, frame = 0
 207              		@ frame_needed = 0, uses_anonymous_args = 0
 208 0000 08B5     		push	{r3, lr}
 209              		.cfi_def_cfa_offset 8
 210              		.cfi_offset 3, -8
 211              		.cfi_offset 14, -4
 143:main.c        ****     //every 1ms   
 144:main.c        ****     //sum up comp values every 1ms
 145:main.c        ****     comp0_sum+=Comp_0_GetCompare();
 212              		.loc 1 145 0
 213 0002 FFF7FEFF 		bl	Comp_0_GetCompare
 214              	.LVL11:
 215 0006 164A     		ldr	r2, .L15
 216 0008 1378     		ldrb	r3, [r2]	@ zero_extendqisi2
 217 000a 1844     		add	r0, r0, r3
 218 000c 1070     		strb	r0, [r2]
 146:main.c        ****     comp1_sum+=Comp_1_GetCompare();
 219              		.loc 1 146 0
 220 000e FFF7FEFF 		bl	Comp_1_GetCompare
 221              	.LVL12:
 222 0012 144A     		ldr	r2, .L15+4
 223 0014 1378     		ldrb	r3, [r2]	@ zero_extendqisi2
 224 0016 1844     		add	r0, r0, r3
 225 0018 1070     		strb	r0, [r2]
 147:main.c        ****     comp2_sum+=Comp_2_GetCompare();
 226              		.loc 1 147 0
 227 001a FFF7FEFF 		bl	Comp_2_GetCompare
 228              	.LVL13:
 229 001e 124A     		ldr	r2, .L15+8
 230 0020 1378     		ldrb	r3, [r2]	@ zero_extendqisi2
 231 0022 1844     		add	r0, r0, r3
 232 0024 1070     		strb	r0, [r2]
 148:main.c        ****     comp3_sum+=Comp_3_GetCompare();  
 233              		.loc 1 148 0
 234 0026 FFF7FEFF 		bl	Comp_3_GetCompare
 235              	.LVL14:
ARM GAS  C:\Users\umasu\AppData\Local\Temp\ccJqabaB.s 			page 8


 236 002a 104A     		ldr	r2, .L15+12
 237 002c 1378     		ldrb	r3, [r2]	@ zero_extendqisi2
 238 002e 1844     		add	r0, r0, r3
 239 0030 1070     		strb	r0, [r2]
 149:main.c        ****     
 150:main.c        ****     if(count==8){
 240              		.loc 1 150 0
 241 0032 0F4B     		ldr	r3, .L15+16
 242 0034 DB6A     		ldr	r3, [r3, #44]
 243 0036 082B     		cmp	r3, #8
 244 0038 0AD1     		bne	.L13
 151:main.c        ****         //reset to check again every 8ms
 152:main.c        ****         comp0_sum=0;
 245              		.loc 1 152 0
 246 003a 0023     		movs	r3, #0
 247 003c 084A     		ldr	r2, .L15
 248 003e 1370     		strb	r3, [r2]
 153:main.c        ****         comp1_sum=0;
 249              		.loc 1 153 0
 250 0040 084A     		ldr	r2, .L15+4
 251 0042 1370     		strb	r3, [r2]
 154:main.c        ****         comp2_sum=0;
 252              		.loc 1 154 0
 253 0044 084A     		ldr	r2, .L15+8
 254 0046 1370     		strb	r3, [r2]
 155:main.c        ****         comp3_sum=0;
 255              		.loc 1 155 0
 256 0048 084A     		ldr	r2, .L15+12
 257 004a 1370     		strb	r3, [r2]
 156:main.c        ****         count=0;
 258              		.loc 1 156 0
 259 004c 084A     		ldr	r2, .L15+16
 260 004e D362     		str	r3, [r2, #44]
 261              	.L13:
 157:main.c        ****     }
 158:main.c        ****     count++;
 262              		.loc 1 158 0
 263 0050 074A     		ldr	r2, .L15+16
 264 0052 D36A     		ldr	r3, [r2, #44]
 265 0054 0133     		adds	r3, r3, #1
 266 0056 D362     		str	r3, [r2, #44]
 159:main.c        ****     Timer_1_ReadStatusRegister();
 267              		.loc 1 159 0
 268 0058 FFF7FEFF 		bl	Timer_1_ReadStatusRegister
 269              	.LVL15:
 270 005c 08BD     		pop	{r3, pc}
 271              	.L16:
 272 005e 00BF     		.align	2
 273              	.L15:
 274 0060 00000000 		.word	comp0_sum
 275 0064 00000000 		.word	comp1_sum
 276 0068 00000000 		.word	comp2_sum
 277 006c 00000000 		.word	comp3_sum
 278 0070 00000000 		.word	.LANCHOR0
 279              		.cfi_endproc
 280              	.LFE66:
 281              		.size	isr_1_handler, .-isr_1_handler
ARM GAS  C:\Users\umasu\AppData\Local\Temp\ccJqabaB.s 			page 9


 282              		.section	.text.main,"ax",%progbits
 283              		.align	2
 284              		.global	main
 285              		.thumb
 286              		.thumb_func
 287              		.type	main, %function
 288              	main:
 289              	.LFB67:
 160:main.c        **** }
 161:main.c        **** 
 162:main.c        **** 
 163:main.c        **** 
 164:main.c        **** int main(void)
 165:main.c        **** {
 290              		.loc 1 165 0
 291              		.cfi_startproc
 292              		@ Volatile: function does not return.
 293              		@ args = 0, pretend = 0, frame = 0
 294              		@ frame_needed = 0, uses_anonymous_args = 0
 295 0000 08B5     		push	{r3, lr}
 296              		.cfi_def_cfa_offset 8
 297              		.cfi_offset 3, -8
 298              		.cfi_offset 14, -4
 166:main.c        ****     CyGlobalIntEnable; /* Enable global interrupts. */
 299              		.loc 1 166 0
 300              		.syntax unified
 301              	@ 166 "main.c" 1
 302 0002 62B6     		CPSIE   i
 303              	@ 0 "" 2
 167:main.c        **** 
 168:main.c        ****     /* Place your initialization/startup code here (e.g. MyInst_Start()) */
 169:main.c        ****     Timer_1_Start();
 304              		.loc 1 169 0
 305              		.thumb
 306              		.syntax unified
 307 0004 FFF7FEFF 		bl	Timer_1_Start
 308              	.LVL16:
 170:main.c        ****     
 171:main.c        ****     isr_1_StartEx(isr_1_handler);
 309              		.loc 1 171 0
 310 0008 5548     		ldr	r0, .L35
 311 000a FFF7FEFF 		bl	isr_1_StartEx
 312              	.LVL17:
 172:main.c        ****     isr_3_StartEx(isr_3_handler);
 313              		.loc 1 172 0
 314 000e 5548     		ldr	r0, .L35+4
 315 0010 FFF7FEFF 		bl	isr_3_StartEx
 316              	.LVL18:
 173:main.c        ****     isr_2_StartEx(isr_2_handler);
 317              		.loc 1 173 0
 318 0014 5448     		ldr	r0, .L35+8
 319 0016 FFF7FEFF 		bl	isr_2_StartEx
 320              	.LVL19:
 174:main.c        ****     
 175:main.c        ****     //start comparators
 176:main.c        ****     Comp_0_Start();
 321              		.loc 1 176 0
ARM GAS  C:\Users\umasu\AppData\Local\Temp\ccJqabaB.s 			page 10


 322 001a FFF7FEFF 		bl	Comp_0_Start
 323              	.LVL20:
 177:main.c        ****     Comp_1_Start();
 324              		.loc 1 177 0
 325 001e FFF7FEFF 		bl	Comp_1_Start
 326              	.LVL21:
 178:main.c        ****     Comp_2_Start();
 327              		.loc 1 178 0
 328 0022 FFF7FEFF 		bl	Comp_2_Start
 329              	.LVL22:
 179:main.c        ****     Comp_3_Start();
 330              		.loc 1 179 0
 331 0026 FFF7FEFF 		bl	Comp_3_Start
 332              	.LVL23:
 180:main.c        ****     
 181:main.c        ****     /*Start PWM Clk*/
 182:main.c        ****     Clock_PWM_Start(); 
 333              		.loc 1 182 0
 334 002a FFF7FEFF 		bl	Clock_PWM_Start
 335              	.LVL24:
 183:main.c        ****     //Start PWM
 184:main.c        ****     PWM_1_Start();
 336              		.loc 1 184 0
 337 002e FFF7FEFF 		bl	PWM_1_Start
 338              	.LVL25:
 185:main.c        ****     PWM_2_Start();
 339              		.loc 1 185 0
 340 0032 FFF7FEFF 		bl	PWM_2_Start
 341              	.LVL26:
 186:main.c        ****     
 187:main.c        ****     // write comparision int for MC33926 duty cycle must me larger than 10% and less than 90%
 188:main.c        ****     PWM_1_WritePeriod(100);
 342              		.loc 1 188 0
 343 0036 6420     		movs	r0, #100
 344 0038 FFF7FEFF 		bl	PWM_1_WritePeriod
 345              	.LVL27:
 189:main.c        ****     PWM_2_WritePeriod(100);
 346              		.loc 1 189 0
 347 003c 6420     		movs	r0, #100
 348 003e FFF7FEFF 		bl	PWM_2_WritePeriod
 349              	.LVL28:
 190:main.c        ****     
 191:main.c        ****     QuadDec_M1_Start();
 350              		.loc 1 191 0
 351 0042 FFF7FEFF 		bl	QuadDec_M1_Start
 352              	.LVL29:
 192:main.c        ****     QuadDec_M2_Start();
 353              		.loc 1 192 0
 354 0046 FFF7FEFF 		bl	QuadDec_M2_Start
 355              	.LVL30:
 356              	.L19:
 193:main.c        **** 
 194:main.c        ****     
 195:main.c        ****     for(;;)
 196:main.c        ****     {
 197:main.c        ****           //comp0 and comp1 =0  => straight
 198:main.c        ****            //comp2=0 => left
ARM GAS  C:\Users\umasu\AppData\Local\Temp\ccJqabaB.s 			page 11


 199:main.c        ****            //comp3=0 => right
 200:main.c        ****         if(turn_start== false){
 357              		.loc 1 200 0
 358 004a 484B     		ldr	r3, .L35+12
 359 004c 93F83030 		ldrb	r3, [r3, #48]	@ zero_extendqisi2
 360 0050 002B     		cmp	r3, #0
 361 0052 3CD1     		bne	.L20
 201:main.c        ****             if(comp1_sum==0 && comp0_sum==0){
 362              		.loc 1 201 0
 363 0054 464B     		ldr	r3, .L35+16
 364 0056 1B78     		ldrb	r3, [r3]	@ zero_extendqisi2
 365 0058 33B9     		cbnz	r3, .L21
 366              		.loc 1 201 0 is_stmt 0 discriminator 1
 367 005a 464A     		ldr	r2, .L35+20
 368 005c 1278     		ldrb	r2, [r2]	@ zero_extendqisi2
 369 005e 1AB9     		cbnz	r2, .L21
 202:main.c        ****                     current_state = GO_STRAIGHT;
 370              		.loc 1 202 0 is_stmt 1
 371 0060 424B     		ldr	r3, .L35+12
 372 0062 83F83120 		strb	r2, [r3, #49]
 373 0066 32E0     		b	.L20
 374              	.L21:
 203:main.c        ****             }else if(comp2_sum == 0) {
 375              		.loc 1 203 0
 376 0068 434A     		ldr	r2, .L35+24
 377 006a 1278     		ldrb	r2, [r2]	@ zero_extendqisi2
 378 006c 5AB9     		cbnz	r2, .L22
 204:main.c        ****                     QuadDec_M1_SetCounter(0);
 379              		.loc 1 204 0
 380 006e 0020     		movs	r0, #0
 381 0070 FFF7FEFF 		bl	QuadDec_M1_SetCounter
 382              	.LVL31:
 205:main.c        ****                     distance_M1 =0 ; // Reset the distance traveled
 383              		.loc 1 205 0
 384 0074 3D4B     		ldr	r3, .L35+12
 385 0076 0022     		movs	r2, #0
 386 0078 5A62     		str	r2, [r3, #36]	@ float
 206:main.c        ****                     turn_start= true;
 387              		.loc 1 206 0
 388 007a 0122     		movs	r2, #1
 389 007c 83F83020 		strb	r2, [r3, #48]
 207:main.c        ****                     current_state = TURN_LEFT;
 390              		.loc 1 207 0
 391 0080 83F83120 		strb	r2, [r3, #49]
 392 0084 23E0     		b	.L20
 393              	.L22:
 208:main.c        ****             }else if(comp3_sum==0){
 394              		.loc 1 208 0
 395 0086 3D49     		ldr	r1, .L35+28
 396 0088 0878     		ldrb	r0, [r1]	@ zero_extendqisi2
 397 008a 40B9     		cbnz	r0, .L23
 209:main.c        ****                     QuadDec_M2_SetCounter(0);
 398              		.loc 1 209 0
 399 008c FFF7FEFF 		bl	QuadDec_M2_SetCounter
 400              	.LVL32:
 210:main.c        ****                     distance_M2 =0 ; // Reset the distance traveled
 401              		.loc 1 210 0
ARM GAS  C:\Users\umasu\AppData\Local\Temp\ccJqabaB.s 			page 12


 402 0090 364B     		ldr	r3, .L35+12
 403 0092 0022     		movs	r2, #0
 404 0094 9A62     		str	r2, [r3, #40]	@ float
 211:main.c        ****                     current_state = TURN_RIGHT;
 405              		.loc 1 211 0
 406 0096 0222     		movs	r2, #2
 407 0098 83F83120 		strb	r2, [r3, #49]
 408 009c 17E0     		b	.L20
 409              	.L23:
 212:main.c        ****             }else if(comp0_sum>0 && comp1_sum>0 && comp2_sum>0 && comp3_sum>0){
 410              		.loc 1 212 0
 411 009e 3549     		ldr	r1, .L35+20
 412 00a0 0978     		ldrb	r1, [r1]	@ zero_extendqisi2
 413 00a2 39B1     		cbz	r1, .L24
 414              		.loc 1 212 0 is_stmt 0 discriminator 1
 415 00a4 33B1     		cbz	r3, .L24
 416              		.loc 1 212 0 discriminator 2
 417 00a6 2AB1     		cbz	r2, .L24
 418              		.loc 1 212 0 discriminator 3
 419 00a8 20B1     		cbz	r0, .L24
 213:main.c        ****                     current_state = STOP;
 420              		.loc 1 213 0 is_stmt 1
 421 00aa 0522     		movs	r2, #5
 422 00ac 2F4B     		ldr	r3, .L35+12
 423 00ae 83F83120 		strb	r2, [r3, #49]
 424 00b2 0CE0     		b	.L20
 425              	.L24:
 214:main.c        ****             }else if(comp0_sum>0 && comp1_sum==0){//s_ML out of line
 426              		.loc 1 214 0
 427 00b4 29B1     		cbz	r1, .L25
 428              		.loc 1 214 0 is_stmt 0 discriminator 1
 429 00b6 23B9     		cbnz	r3, .L25
 215:main.c        ****                     current_state = LEFT_ADJUST;
 430              		.loc 1 215 0 is_stmt 1
 431 00b8 0422     		movs	r2, #4
 432 00ba 2C4B     		ldr	r3, .L35+12
 433 00bc 83F83120 		strb	r2, [r3, #49]
 434 00c0 05E0     		b	.L20
 435              	.L25:
 216:main.c        ****             }else if(comp0_sum==0 && comp1_sum>0){//s_MR out of line
 436              		.loc 1 216 0
 437 00c2 21B9     		cbnz	r1, .L20
 438              		.loc 1 216 0 is_stmt 0 discriminator 1
 439 00c4 1BB1     		cbz	r3, .L20
 217:main.c        ****                     current_state = RIGHT_ADJUST;
 440              		.loc 1 217 0 is_stmt 1
 441 00c6 0322     		movs	r2, #3
 442 00c8 284B     		ldr	r3, .L35+12
 443 00ca 83F83120 		strb	r2, [r3, #49]
 444              	.L20:
 218:main.c        ****             }
 219:main.c        ****         }
 220:main.c        ****             
 221:main.c        ****             
 222:main.c        **** //            if(distance_M1>=(target_diatance/1.03) && target_diatance!=0){
 223:main.c        **** //                LED_1_Write(1);
 224:main.c        **** //                current_state = STOP;
ARM GAS  C:\Users\umasu\AppData\Local\Temp\ccJqabaB.s 			page 13


 225:main.c        **** //            }
 226:main.c        ****            
 227:main.c        **** 
 228:main.c        **** //          PWM_1_WriteCompare(PWM_R);
 229:main.c        **** //          PWM_2_WriteCompare(PWM_L);
 230:main.c        ****      
 231:main.c        ****         switch (current_state) {
 445              		.loc 1 231 0
 446 00ce 274B     		ldr	r3, .L35+12
 447 00d0 93F83130 		ldrb	r3, [r3, #49]	@ zero_extendqisi2
 448 00d4 052B     		cmp	r3, #5
 449 00d6 B8D8     		bhi	.L19
 450 00d8 01A2     		adr	r2, .L27
 451 00da 52F823F0 		ldr	pc, [r2, r3, lsl #2]
 452 00de 00BF     		.p2align 2
 453              	.L27:
 454 00e0 F9000000 		.word	.L26+1
 455 00e4 07010000 		.word	.L28+1
 456 00e8 4B000000 		.word	.L19+1
 457 00ec 2D010000 		.word	.L29+1
 458 00f0 3F010000 		.word	.L30+1
 459 00f4 51010000 		.word	.L31+1
 460              		.p2align 1
 461              	.L26:
 232:main.c        ****             case GO_STRAIGHT:
 233:main.c        ****                 PWM_1_WriteCompare(80);
 462              		.loc 1 233 0
 463 00f8 5020     		movs	r0, #80
 464 00fa FFF7FEFF 		bl	PWM_1_WriteCompare
 465              	.LVL33:
 234:main.c        ****                 PWM_2_WriteCompare(81);
 466              		.loc 1 234 0
 467 00fe 5120     		movs	r0, #81
 468 0100 FFF7FEFF 		bl	PWM_2_WriteCompare
 469              	.LVL34:
 235:main.c        ****                 break;
 470              		.loc 1 235 0
 471 0104 A1E7     		b	.L19
 472              	.L28:
 236:main.c        ****             case TURN_LEFT:
 237:main.c        **** //                while ( comp0_sum==0 || comp1_sum==0 ) {//turn_complete = true;
 238:main.c        ****                     if (((abs(QuadDec_M1_GetCounter())*(360/228))>= 90) ) {//|| (distance_M1 >= 40)
 473              		.loc 1 238 0
 474 0106 FFF7FEFF 		bl	QuadDec_M1_GetCounter
 475              	.LVL35:
 476 010a 0028     		cmp	r0, #0
 477 010c B8BF     		it	lt
 478 010e 4042     		rsblt	r0, r0, #0
 479 0110 5928     		cmp	r0, #89
 480 0112 04DD     		ble	.L33
 239:main.c        ****                             //current_state = GO_STRAIGHT;
 240:main.c        ****                             turn_start = false;
 481              		.loc 1 240 0
 482 0114 0022     		movs	r2, #0
 483 0116 154B     		ldr	r3, .L35+12
 484 0118 83F83020 		strb	r2, [r3, #48]
 485 011c 95E7     		b	.L19
ARM GAS  C:\Users\umasu\AppData\Local\Temp\ccJqabaB.s 			page 14


 486              	.L33:
 241:main.c        ****                     }else {
 242:main.c        **** //                        while ( comp0_sum==0||comp1_sum==0 ){
 243:main.c        ****                            PWM_1_WriteCompare(87);
 487              		.loc 1 243 0
 488 011e 5720     		movs	r0, #87
 489 0120 FFF7FEFF 		bl	PWM_1_WriteCompare
 490              	.LVL36:
 244:main.c        ****                            PWM_2_WriteCompare(10);
 491              		.loc 1 244 0
 492 0124 0A20     		movs	r0, #10
 493 0126 FFF7FEFF 		bl	PWM_2_WriteCompare
 494              	.LVL37:
 495 012a 8EE7     		b	.L19
 496              	.L29:
 245:main.c        **** //                        }
 246:main.c        ****                     } 
 247:main.c        **** //                }
 248:main.c        ****                 break;    
 249:main.c        ****             case TURN_RIGHT:
 250:main.c        **** //                while ( comp0_sum==0 || comp1_sum==0 ) {//turn_complete = true;
 251:main.c        **** //                    if (((abs(QuadDec_M2_GetCounter())*(360/228))>= 90) || (distance_M2 >= 40)) {
 252:main.c        **** //                            current_state = GO_STRAIGHT;
 253:main.c        **** //                    }else {
 254:main.c        **** //                        while ( comp0_sum==0||comp1_sum==0 ){
 255:main.c        **** //                           PWM_1_WriteCompare(0);
 256:main.c        **** //                           PWM_2_WriteCompare(87);
 257:main.c        **** //                        }
 258:main.c        **** //                    } 
 259:main.c        **** //                }
 260:main.c        ****                 break;  
 261:main.c        ****             
 262:main.c        ****             case RIGHT_ADJUST:
 263:main.c        ****                 PWM_R = PWM_1_ReadCompare();
 497              		.loc 1 263 0
 498 012c FFF7FEFF 		bl	PWM_1_ReadCompare
 499              	.LVL38:
 500 0130 134B     		ldr	r3, .L35+32
 501 0132 5870     		strb	r0, [r3, #1]
 264:main.c        ****                 PWM_1_WriteCompare(PWM_R+1);
 502              		.loc 1 264 0
 503 0134 0130     		adds	r0, r0, #1
 504 0136 C0B2     		uxtb	r0, r0
 505 0138 FFF7FEFF 		bl	PWM_1_WriteCompare
 506              	.LVL39:
 265:main.c        **** //                PWM_R = PWM_1_ReadCompare();
 266:main.c        **** //                PWM_1_WriteCompare(PWM_R+1);
 267:main.c        ****                 break; 
 507              		.loc 1 267 0
 508 013c 85E7     		b	.L19
 509              	.L30:
 268:main.c        ****                 
 269:main.c        ****                 
 270:main.c        ****             case LEFT_ADJUST:
 271:main.c        ****                 PWM_L = PWM_2_ReadCompare();
 510              		.loc 1 271 0
 511 013e FFF7FEFF 		bl	PWM_2_ReadCompare
ARM GAS  C:\Users\umasu\AppData\Local\Temp\ccJqabaB.s 			page 15


 512              	.LVL40:
 513 0142 0F4B     		ldr	r3, .L35+32
 514 0144 1870     		strb	r0, [r3]
 272:main.c        ****                 PWM_2_WriteCompare(PWM_L+1);//2+,1-
 515              		.loc 1 272 0
 516 0146 0130     		adds	r0, r0, #1
 517 0148 C0B2     		uxtb	r0, r0
 518 014a FFF7FEFF 		bl	PWM_2_WriteCompare
 519              	.LVL41:
 273:main.c        **** //                PWM_R = PWM_1_ReadCompare();
 274:main.c        **** //                PWM_1_WriteCompare(PWM_R-1);
 275:main.c        **** //                
 276:main.c        ****                 break; 
 520              		.loc 1 276 0
 521 014e 7CE7     		b	.L19
 522              	.L31:
 277:main.c        ****             case STOP:
 278:main.c        ****                 PWM_1_WriteCompare(50);
 523              		.loc 1 278 0
 524 0150 3220     		movs	r0, #50
 525 0152 FFF7FEFF 		bl	PWM_1_WriteCompare
 526              	.LVL42:
 279:main.c        ****                 PWM_2_WriteCompare(50);
 527              		.loc 1 279 0
 528 0156 3220     		movs	r0, #50
 529 0158 FFF7FEFF 		bl	PWM_2_WriteCompare
 530              	.LVL43:
 280:main.c        ****                 break;
 531              		.loc 1 280 0
 532 015c 75E7     		b	.L19
 533              	.L36:
 534 015e 00BF     		.align	2
 535              	.L35:
 536 0160 00000000 		.word	isr_1_handler
 537 0164 00000000 		.word	isr_3_handler
 538 0168 00000000 		.word	isr_2_handler
 539 016c 00000000 		.word	.LANCHOR0
 540 0170 00000000 		.word	comp1_sum
 541 0174 00000000 		.word	comp0_sum
 542 0178 00000000 		.word	comp2_sum
 543 017c 00000000 		.word	comp3_sum
 544 0180 00000000 		.word	.LANCHOR1
 545              		.cfi_endproc
 546              	.LFE67:
 547              		.size	main, .-main
 548              		.global	current_state
 549              		.global	PWM_L
 550              		.global	PWM_R
 551              		.comm	comp3_sum,1,1
 552              		.comm	comp2_sum,1,1
 553              		.comm	comp1_sum,1,1
 554              		.comm	comp0_sum,1,1
 555              		.comm	turn_complete,1,1
 556              		.comm	middle_on,1,1
 557              		.comm	right_on,1,1
 558              		.global	left_on
 559              		.global	turn_counter
ARM GAS  C:\Users\umasu\AppData\Local\Temp\ccJqabaB.s 			page 16


 560              		.global	count
 561              		.global	turn_start
 562              		.global	prev_encoder_value_M2
 563              		.global	prev_encoder_value_M1
 564              		.global	current_distance
 565              		.global	counter
 566              		.global	encoder_value_sum_M2
 567              		.global	encoder_value_sum_M1
 568              		.global	speed_M2
 569              		.global	speed_M1
 570              		.global	turn_back_diatance
 571              		.global	target_diatance
 572              		.global	current_distance_M2
 573              		.global	current_distance_M1
 574              		.global	distance_M2
 575              		.global	distance_M1
 576              		.global	timeInterval_s
 577              		.global	wheelCircumference_cm
 578              		.global	CPR
 579              		.global	encoderCounts_M2
 580              		.global	encoderCounts_M1
 581              		.data
 582              		.align	3
 583              		.set	.LANCHOR1,. + 0
 584              		.type	PWM_L, %object
 585              		.size	PWM_L, 1
 586              	PWM_L:
 587 0000 51       		.byte	81
 588              		.type	PWM_R, %object
 589              		.size	PWM_R, 1
 590              	PWM_R:
 591 0001 50       		.byte	80
 592              		.type	counter, %object
 593              		.size	counter, 1
 594              	counter:
 595 0002 01       		.byte	1
 596 0003 00       		.space	1
 597              		.type	CPR, %object
 598              		.size	CPR, 4
 599              	CPR:
 600 0004 E4000000 		.word	228
 601              		.type	wheelCircumference_cm, %object
 602              		.size	wheelCircumference_cm, 4
 603              	wheelCircumference_cm:
 604 0008 7201A241 		.word	1101136242
 605              		.type	turn_back_diatance, %object
 606              		.size	turn_back_diatance, 4
 607              	turn_back_diatance:
 608 000c 00002241 		.word	1092747264
 609              		.type	timeInterval_s, %object
 610              		.size	timeInterval_s, 8
 611              	timeInterval_s:
 612 0010 0C022B87 		.word	-2027224564
 613 0014 16D92540 		.word	1076222230
 614              		.bss
 615              		.align	2
 616              		.set	.LANCHOR0,. + 0
ARM GAS  C:\Users\umasu\AppData\Local\Temp\ccJqabaB.s 			page 17


 617              		.type	left_on, %object
 618              		.size	left_on, 1
 619              	left_on:
 620 0000 00       		.space	1
 621 0001 000000   		.space	3
 622              		.type	turn_counter, %object
 623              		.size	turn_counter, 4
 624              	turn_counter:
 625 0004 00000000 		.space	4
 626              		.type	encoderCounts_M1, %object
 627              		.size	encoderCounts_M1, 4
 628              	encoderCounts_M1:
 629 0008 00000000 		.space	4
 630              		.type	encoderCounts_M2, %object
 631              		.size	encoderCounts_M2, 4
 632              	encoderCounts_M2:
 633 000c 00000000 		.space	4
 634              		.type	prev_encoder_value_M1, %object
 635              		.size	prev_encoder_value_M1, 4
 636              	prev_encoder_value_M1:
 637 0010 00000000 		.space	4
 638              		.type	encoder_value_sum_M1, %object
 639              		.size	encoder_value_sum_M1, 4
 640              	encoder_value_sum_M1:
 641 0014 00000000 		.space	4
 642              		.type	prev_encoder_value_M2, %object
 643              		.size	prev_encoder_value_M2, 4
 644              	prev_encoder_value_M2:
 645 0018 00000000 		.space	4
 646              		.type	encoder_value_sum_M2, %object
 647              		.size	encoder_value_sum_M2, 4
 648              	encoder_value_sum_M2:
 649 001c 00000000 		.space	4
 650              		.type	current_distance_M1, %object
 651              		.size	current_distance_M1, 4
 652              	current_distance_M1:
 653 0020 00000000 		.space	4
 654              		.type	distance_M1, %object
 655              		.size	distance_M1, 4
 656              	distance_M1:
 657 0024 00000000 		.space	4
 658              		.type	distance_M2, %object
 659              		.size	distance_M2, 4
 660              	distance_M2:
 661 0028 00000000 		.space	4
 662              		.type	count, %object
 663              		.size	count, 4
 664              	count:
 665 002c 00000000 		.space	4
 666              		.type	turn_start, %object
 667              		.size	turn_start, 1
 668              	turn_start:
 669 0030 00       		.space	1
 670              		.type	current_state, %object
 671              		.size	current_state, 1
 672              	current_state:
 673 0031 00       		.space	1
ARM GAS  C:\Users\umasu\AppData\Local\Temp\ccJqabaB.s 			page 18


 674 0032 0000     		.space	2
 675              		.type	current_distance, %object
 676              		.size	current_distance, 4
 677              	current_distance:
 678 0034 00000000 		.space	4
 679              		.type	speed_M2, %object
 680              		.size	speed_M2, 4
 681              	speed_M2:
 682 0038 00000000 		.space	4
 683              		.type	speed_M1, %object
 684              		.size	speed_M1, 4
 685              	speed_M1:
 686 003c 00000000 		.space	4
 687              		.type	target_diatance, %object
 688              		.size	target_diatance, 4
 689              	target_diatance:
 690 0040 00000000 		.space	4
 691              		.type	current_distance_M2, %object
 692              		.size	current_distance_M2, 4
 693              	current_distance_M2:
 694 0044 00000000 		.space	4
 695              		.text
 696              	.Letext0:
 697              		.file 2 "c:\\program files (x86)\\cypress\\psoc creator\\4.2\\psoc creator\\import\\gnu\\arm\\5.4.
 698              		.file 3 "c:\\program files (x86)\\cypress\\psoc creator\\4.2\\psoc creator\\import\\gnu\\arm\\5.4.
 699              		.file 4 "Generated_Source\\PSoC5/cytypes.h"
 700              		.file 5 "Generated_Source\\PSoC5/core_cm3.h"
 701              		.file 6 "Generated_Source\\PSoC5/QuadDec_M1.h"
 702              		.file 7 "Generated_Source\\PSoC5/QuadDec_M2.h"
 703              		.file 8 "Generated_Source\\PSoC5/Timer_1.h"
 704              		.file 9 "Generated_Source\\PSoC5/Comp_0.h"
 705              		.file 10 "Generated_Source\\PSoC5/Comp_1.h"
 706              		.file 11 "Generated_Source\\PSoC5/Comp_2.h"
 707              		.file 12 "Generated_Source\\PSoC5/Comp_3.h"
 708              		.file 13 "Generated_Source\\PSoC5/isr_1.h"
 709              		.file 14 "Generated_Source\\PSoC5/isr_3.h"
 710              		.file 15 "Generated_Source\\PSoC5/isr_2.h"
 711              		.file 16 "Generated_Source\\PSoC5/Clock_PWM.h"
 712              		.file 17 "Generated_Source\\PSoC5/PWM_1.h"
 713              		.file 18 "Generated_Source\\PSoC5/PWM_2.h"