ARM GAS  C:\Users\umasu\AppData\Local\Temp\ccF2FLwb.s 			page 1


   1              		.syntax unified
   2              		.cpu cortex-m3
   3              		.fpu softvfp
   4              		.eabi_attribute 20, 1
   5              		.eabi_attribute 21, 1
   6              		.eabi_attribute 23, 3
   7              		.eabi_attribute 24, 1
   8              		.eabi_attribute 25, 1
   9              		.eabi_attribute 26, 1
  10              		.eabi_attribute 30, 1
  11              		.eabi_attribute 34, 1
  12              		.eabi_attribute 18, 4
  13              		.thumb
  14              		.syntax unified
  15              		.file	"main.c"
  16              		.text
  17              	.Ltext0:
  18              		.cfi_sections	.debug_frame
  19              		.section	.text.isr_2_handler,"ax",%progbits
  20              		.align	2
  21              		.global	isr_2_handler
  22              		.thumb
  23              		.thumb_func
  24              		.type	isr_2_handler, %function
  25              	isr_2_handler:
  26              	.LFB65:
  27              		.file 1 "main.c"
   1:main.c        **** /* ========================================
   2:main.c        ****  *
   3:main.c        ****  * Copyright YOUR COMPANY, THE YEAR
   4:main.c        ****  * All Rights Reserved
   5:main.c        ****  * UNPUBLISHED, LICENSED SOFTWARE.
   6:main.c        ****  *
   7:main.c        ****  * CONFIDENTIAL AND PROPRIETARY INFORMATION
   8:main.c        ****  * WHICH IS THE PROPERTY OF your company.
   9:main.c        ****  *
  10:main.c        ****  * ========================================
  11:main.c        **** */
  12:main.c        **** /* ========================================
  13:main.c        ****  * Fully working code: 
  14:main.c        ****  * PWM      : 
  15:main.c        ****  * Encoder  : 
  16:main.c        ****  * ADC      :
  17:main.c        ****  * USB      : port displays speed and position.
  18:main.c        ****  * CMD: "PW xx"
  19:main.c        ****  * Copyright Univ of Auckland, 2016
  20:main.c        ****  * All Rights Reserved
  21:main.c        ****  * UNPUBLISHED, LICENSED SOFTWARE.
  22:main.c        ****  *
  23:main.c        ****  * CONFIDENTIAL AND PROPRIETARY INFORMATION
  24:main.c        ****  * WHICH IS THE PROPERTY OF Univ of Auckland.
  25:main.c        ****  *
  26:main.c        ****  * ========================================
  27:main.c        **** */
  28:main.c        **** #include <stdio.h>
  29:main.c        **** #include <string.h>
  30:main.c        **** #include <stdlib.h>
ARM GAS  C:\Users\umasu\AppData\Local\Temp\ccF2FLwb.s 			page 2


  31:main.c        **** #include <project.h>
  32:main.c        **** #include <stdbool.h>
  33:main.c        **** #include <math.h>
  34:main.c        **** #include "project.h"
  35:main.c        **** #define TURN_ANGLE 90 // Desired turn angle in degrees
  36:main.c        **** 
  37:main.c        **** 
  38:main.c        **** // Define states for the state machine
  39:main.c        **** typedef enum {
  40:main.c        ****     GO_STRAIGHT,
  41:main.c        ****     TURN_LEFT,
  42:main.c        ****     TURN_RIGHT,
  43:main.c        ****     RIGHT_ADJUST,
  44:main.c        ****     LEFT_ADJUST,
  45:main.c        ****     STOP,
  46:main.c        **** } RobotState;
  47:main.c        **** 
  48:main.c        **** //distance calculation paras
  49:main.c        **** int32 encoderCounts_M1 = 0;  
  50:main.c        **** int32 encoderCounts_M2 = 0;  
  51:main.c        **** int32 CPR = 228;  // Adjusted for 4x resolution(228/4)
  52:main.c        **** float wheelCircumference_cm = (M_PI*64.46)/10;// wheel circumference wheelDiameter_mm = 64.46)
  53:main.c        **** double timeInterval_s = 10.924;  // Effective time interval( (timer period )2.731*4)
  54:main.c        **** float32  distance_M1 = 0;
  55:main.c        **** float32  distance_M2 = 0;
  56:main.c        **** float32  current_distance_M1 = 0;
  57:main.c        **** float32  current_distance_M2 = 0;
  58:main.c        **** float32 target_diatance = 0;//cm
  59:main.c        **** float32 turn_back_diatance = 10.125;//cm
  60:main.c        **** 
  61:main.c        **** float32 speed_M1 = 0;
  62:main.c        **** float32 speed_M2 = 0;
  63:main.c        **** int32 encoder_value_sum_M1 = 0;
  64:main.c        **** int32 encoder_value_sum_M2 = 0;
  65:main.c        **** uint8 counter = 1;
  66:main.c        **** float current_distance = 0;
  67:main.c        **** 
  68:main.c        **** 
  69:main.c        **** 
  70:main.c        **** 
  71:main.c        **** uint32 count = 0;
  72:main.c        **** uint32 turn_counter = 0;
  73:main.c        **** bool left_on=false;
  74:main.c        **** bool right_on;
  75:main.c        **** bool middle_on;
  76:main.c        **** bool turn_complete;
  77:main.c        **** 
  78:main.c        **** uint8 comp0_sum;
  79:main.c        **** uint8 comp1_sum;
  80:main.c        **** uint8 comp2_sum;
  81:main.c        **** uint8 comp3_sum;
  82:main.c        **** 
  83:main.c        **** uint8 PWM_R=80;
  84:main.c        **** uint8 PWM_L=81;
  85:main.c        **** 
  86:main.c        **** RobotState current_state = GO_STRAIGHT;// intialse state
  87:main.c        **** CY_ISR(isr_3_handler) {
ARM GAS  C:\Users\umasu\AppData\Local\Temp\ccF2FLwb.s 			page 3


  88:main.c        ****     if (counter < 10){
  89:main.c        ****         counter++;
  90:main.c        ****     }else{
  91:main.c        ****         counter = 1;
  92:main.c        ****         // Encoder counts (negative due to counterclockwise rotation)
  93:main.c        ****         encoderCounts_M1 = abs(QuadDec_M1_GetCounter());//QuadDec_M1_GetCounter();
  94:main.c        ****         encoderCounts_M2 = abs(QuadDec_M2_GetCounter());
  95:main.c        ****         
  96:main.c        ****         // sum of encodercounts
  97:main.c        ****         encoder_value_sum_M1 += encoderCounts_M1;
  98:main.c        ****         encoder_value_sum_M2 += encoderCounts_M2;
  99:main.c        ****         
 100:main.c        ****         // distance calculations 
 101:main.c        ****         distance_M1 = (encoder_value_sum_M1/CPR) * wheelCircumference_cm;
 102:main.c        ****         distance_M2 = (encoder_value_sum_M2/CPR) * wheelCircumference_cm;
 103:main.c        **** 
 104:main.c        ****         //reset the encoder counters 
 105:main.c        ****         QuadDec_M1_SetCounter(0);
 106:main.c        ****         QuadDec_M2_SetCounter(0);     
 107:main.c        ****     }
 108:main.c        ****         Timer_1_ReadStatusRegister();
 109:main.c        **** }
 110:main.c        **** 
 111:main.c        **** 
 112:main.c        **** CY_ISR(isr_2_handler) {
  28              		.loc 1 112 0
  29              		.cfi_startproc
  30              		@ args = 0, pretend = 0, frame = 0
  31              		@ frame_needed = 0, uses_anonymous_args = 0
  32              		@ link register save eliminated.
 113:main.c        ****     //every 1ms 
 114:main.c        ****     if(left_on==true){
  33              		.loc 1 114 0
  34 0000 0D4B     		ldr	r3, .L4
  35 0002 1B78     		ldrb	r3, [r3]	@ zero_extendqisi2
  36 0004 B3B1     		cbz	r3, .L1
 115:main.c        ****         if(turn_counter==0){
  37              		.loc 1 115 0
  38 0006 0C4B     		ldr	r3, .L4
  39 0008 5B68     		ldr	r3, [r3, #4]
  40 000a 23B9     		cbnz	r3, .L3
 116:main.c        ****             PWM_L=50;
  41              		.loc 1 116 0
  42 000c 0B4A     		ldr	r2, .L4+4
  43 000e 3221     		movs	r1, #50
  44 0010 1170     		strb	r1, [r2]
 117:main.c        ****             PWM_R=80; 
  45              		.loc 1 117 0
  46 0012 5021     		movs	r1, #80
  47 0014 5170     		strb	r1, [r2, #1]
  48              	.L3:
 118:main.c        ****            // LED_1_Write(1);
 119:main.c        ****         }
 120:main.c        ****         turn_counter++;
  49              		.loc 1 120 0
  50 0016 0133     		adds	r3, r3, #1
  51 0018 074A     		ldr	r2, .L4
ARM GAS  C:\Users\umasu\AppData\Local\Temp\ccF2FLwb.s 			page 4


  52 001a 5360     		str	r3, [r2, #4]
 121:main.c        ****         if(turn_counter==650){
  53              		.loc 1 121 0
  54 001c 40F28A22 		movw	r2, #650
  55 0020 9342     		cmp	r3, r2
  56 0022 07D1     		bne	.L1
 122:main.c        ****             left_on=false;
  57              		.loc 1 122 0
  58 0024 044B     		ldr	r3, .L4
  59 0026 0022     		movs	r2, #0
  60 0028 1A70     		strb	r2, [r3]
 123:main.c        ****             PWM_L=50;
  61              		.loc 1 123 0
  62 002a 0449     		ldr	r1, .L4+4
  63 002c 3220     		movs	r0, #50
  64 002e 0870     		strb	r0, [r1]
 124:main.c        ****             PWM_R=50;
  65              		.loc 1 124 0
  66 0030 4870     		strb	r0, [r1, #1]
 125:main.c        ****             turn_counter=0;
  67              		.loc 1 125 0
  68 0032 5A60     		str	r2, [r3, #4]
  69              	.L1:
  70 0034 7047     		bx	lr
  71              	.L5:
  72 0036 00BF     		.align	2
  73              	.L4:
  74 0038 00000000 		.word	.LANCHOR0
  75 003c 00000000 		.word	.LANCHOR1
  76              		.cfi_endproc
  77              	.LFE65:
  78              		.size	isr_2_handler, .-isr_2_handler
  79              		.global	__aeabi_i2f
  80              		.global	__aeabi_fmul
  81              		.section	.text.isr_3_handler,"ax",%progbits
  82              		.align	2
  83              		.global	isr_3_handler
  84              		.thumb
  85              		.thumb_func
  86              		.type	isr_3_handler, %function
  87              	isr_3_handler:
  88              	.LFB64:
  87:main.c        ****     if (counter < 10){
  89              		.loc 1 87 0
  90              		.cfi_startproc
  91              		@ args = 0, pretend = 0, frame = 0
  92              		@ frame_needed = 0, uses_anonymous_args = 0
  93 0000 F8B5     		push	{r3, r4, r5, r6, r7, lr}
  94              		.cfi_def_cfa_offset 24
  95              		.cfi_offset 3, -24
  96              		.cfi_offset 4, -20
  97              		.cfi_offset 5, -16
  98              		.cfi_offset 6, -12
  99              		.cfi_offset 7, -8
 100              		.cfi_offset 14, -4
  88:main.c        ****         counter++;
 101              		.loc 1 88 0
ARM GAS  C:\Users\umasu\AppData\Local\Temp\ccF2FLwb.s 			page 5


 102 0002 1D4B     		ldr	r3, .L10
 103 0004 9B78     		ldrb	r3, [r3, #2]	@ zero_extendqisi2
 104 0006 092B     		cmp	r3, #9
 105 0008 03D8     		bhi	.L7
  89:main.c        ****     }else{
 106              		.loc 1 89 0
 107 000a 0133     		adds	r3, r3, #1
 108 000c 1A4A     		ldr	r2, .L10
 109 000e 9370     		strb	r3, [r2, #2]
 110 0010 2EE0     		b	.L8
 111              	.L7:
  91:main.c        ****         // Encoder counts (negative due to counterclockwise rotation)
 112              		.loc 1 91 0
 113 0012 194E     		ldr	r6, .L10
 114 0014 0123     		movs	r3, #1
 115 0016 B370     		strb	r3, [r6, #2]
  93:main.c        ****         encoderCounts_M2 = abs(QuadDec_M2_GetCounter());
 116              		.loc 1 93 0
 117 0018 FFF7FEFF 		bl	QuadDec_M1_GetCounter
 118              	.LVL0:
 119 001c 0028     		cmp	r0, #0
 120 001e B8BF     		it	lt
 121 0020 4042     		rsblt	r0, r0, #0
 122 0022 164C     		ldr	r4, .L10+4
 123 0024 A060     		str	r0, [r4, #8]
  94:main.c        ****         
 124              		.loc 1 94 0
 125 0026 FFF7FEFF 		bl	QuadDec_M2_GetCounter
 126              	.LVL1:
 127 002a 0028     		cmp	r0, #0
 128 002c B8BF     		it	lt
 129 002e 4042     		rsblt	r0, r0, #0
 130 0030 E060     		str	r0, [r4, #12]
  97:main.c        ****         encoder_value_sum_M2 += encoderCounts_M2;
 131              		.loc 1 97 0
 132 0032 2269     		ldr	r2, [r4, #16]
 133 0034 A368     		ldr	r3, [r4, #8]
 134 0036 1A44     		add	r2, r2, r3
 135 0038 2261     		str	r2, [r4, #16]
  98:main.c        ****         
 136              		.loc 1 98 0
 137 003a 6369     		ldr	r3, [r4, #20]
 138 003c C518     		adds	r5, r0, r3
 139 003e 6561     		str	r5, [r4, #20]
 101:main.c        ****         distance_M2 = (encoder_value_sum_M2/CPR) * wheelCircumference_cm;
 140              		.loc 1 101 0
 141 0040 7768     		ldr	r7, [r6, #4]
 142 0042 B668     		ldr	r6, [r6, #8]	@ float
 143 0044 92FBF7F0 		sdiv	r0, r2, r7
 144 0048 FFF7FEFF 		bl	__aeabi_i2f
 145              	.LVL2:
 146 004c 3146     		mov	r1, r6
 147 004e FFF7FEFF 		bl	__aeabi_fmul
 148              	.LVL3:
 149 0052 A061     		str	r0, [r4, #24]	@ float
 102:main.c        **** 
 150              		.loc 1 102 0
ARM GAS  C:\Users\umasu\AppData\Local\Temp\ccF2FLwb.s 			page 6


 151 0054 95FBF7F0 		sdiv	r0, r5, r7
 152 0058 FFF7FEFF 		bl	__aeabi_i2f
 153              	.LVL4:
 154 005c 3146     		mov	r1, r6
 155 005e FFF7FEFF 		bl	__aeabi_fmul
 156              	.LVL5:
 157 0062 E061     		str	r0, [r4, #28]	@ float
 105:main.c        ****         QuadDec_M2_SetCounter(0);     
 158              		.loc 1 105 0
 159 0064 0020     		movs	r0, #0
 160 0066 FFF7FEFF 		bl	QuadDec_M1_SetCounter
 161              	.LVL6:
 106:main.c        ****     }
 162              		.loc 1 106 0
 163 006a 0020     		movs	r0, #0
 164 006c FFF7FEFF 		bl	QuadDec_M2_SetCounter
 165              	.LVL7:
 166              	.L8:
 108:main.c        **** }
 167              		.loc 1 108 0
 168 0070 FFF7FEFF 		bl	Timer_1_ReadStatusRegister
 169              	.LVL8:
 170 0074 F8BD     		pop	{r3, r4, r5, r6, r7, pc}
 171              	.L11:
 172 0076 00BF     		.align	2
 173              	.L10:
 174 0078 00000000 		.word	.LANCHOR1
 175 007c 00000000 		.word	.LANCHOR0
 176              		.cfi_endproc
 177              	.LFE64:
 178              		.size	isr_3_handler, .-isr_3_handler
 179              		.section	.text.isr_1_handler,"ax",%progbits
 180              		.align	2
 181              		.global	isr_1_handler
 182              		.thumb
 183              		.thumb_func
 184              		.type	isr_1_handler, %function
 185              	isr_1_handler:
 186              	.LFB66:
 126:main.c        ****             //LED_1_Write(0);
 127:main.c        ****         }
 128:main.c        ****         
 129:main.c        ****     }
 130:main.c        **** }
 131:main.c        **** 
 132:main.c        **** 
 133:main.c        **** CY_ISR(isr_1_handler) {
 187              		.loc 1 133 0
 188              		.cfi_startproc
 189              		@ args = 0, pretend = 0, frame = 0
 190              		@ frame_needed = 0, uses_anonymous_args = 0
 191 0000 08B5     		push	{r3, lr}
 192              		.cfi_def_cfa_offset 8
 193              		.cfi_offset 3, -8
 194              		.cfi_offset 14, -4
 134:main.c        ****     //every 1ms 
 135:main.c        ****     
ARM GAS  C:\Users\umasu\AppData\Local\Temp\ccF2FLwb.s 			page 7


 136:main.c        ****     //sum up comp values every 1ms
 137:main.c        ****     comp0_sum+=Comp_0_GetCompare();
 195              		.loc 1 137 0
 196 0002 FFF7FEFF 		bl	Comp_0_GetCompare
 197              	.LVL9:
 198 0006 164A     		ldr	r2, .L15
 199 0008 1378     		ldrb	r3, [r2]	@ zero_extendqisi2
 200 000a 1844     		add	r0, r0, r3
 201 000c 1070     		strb	r0, [r2]
 138:main.c        ****     comp1_sum+=Comp_1_GetCompare();
 202              		.loc 1 138 0
 203 000e FFF7FEFF 		bl	Comp_1_GetCompare
 204              	.LVL10:
 205 0012 144A     		ldr	r2, .L15+4
 206 0014 1378     		ldrb	r3, [r2]	@ zero_extendqisi2
 207 0016 1844     		add	r0, r0, r3
 208 0018 1070     		strb	r0, [r2]
 139:main.c        ****     comp2_sum+=Comp_2_GetCompare();
 209              		.loc 1 139 0
 210 001a FFF7FEFF 		bl	Comp_2_GetCompare
 211              	.LVL11:
 212 001e 124A     		ldr	r2, .L15+8
 213 0020 1378     		ldrb	r3, [r2]	@ zero_extendqisi2
 214 0022 1844     		add	r0, r0, r3
 215 0024 1070     		strb	r0, [r2]
 140:main.c        ****     comp3_sum+=Comp_3_GetCompare();
 216              		.loc 1 140 0
 217 0026 FFF7FEFF 		bl	Comp_3_GetCompare
 218              	.LVL12:
 219 002a 104A     		ldr	r2, .L15+12
 220 002c 1378     		ldrb	r3, [r2]	@ zero_extendqisi2
 221 002e 1844     		add	r0, r0, r3
 222 0030 1070     		strb	r0, [r2]
 141:main.c        ****     
 142:main.c        ****     
 143:main.c        ****     if(count==8){
 223              		.loc 1 143 0
 224 0032 0F4B     		ldr	r3, .L15+16
 225 0034 1B6A     		ldr	r3, [r3, #32]
 226 0036 082B     		cmp	r3, #8
 227 0038 0AD1     		bne	.L13
 144:main.c        ****         //reset to check again every 8ms
 145:main.c        ****         comp0_sum=0;
 228              		.loc 1 145 0
 229 003a 0023     		movs	r3, #0
 230 003c 084A     		ldr	r2, .L15
 231 003e 1370     		strb	r3, [r2]
 146:main.c        ****         comp1_sum=0;
 232              		.loc 1 146 0
 233 0040 084A     		ldr	r2, .L15+4
 234 0042 1370     		strb	r3, [r2]
 147:main.c        ****         comp2_sum=0;
 235              		.loc 1 147 0
 236 0044 084A     		ldr	r2, .L15+8
 237 0046 1370     		strb	r3, [r2]
 148:main.c        ****         comp3_sum=0;
 238              		.loc 1 148 0
ARM GAS  C:\Users\umasu\AppData\Local\Temp\ccF2FLwb.s 			page 8


 239 0048 084A     		ldr	r2, .L15+12
 240 004a 1370     		strb	r3, [r2]
 149:main.c        ****         count=0;
 241              		.loc 1 149 0
 242 004c 084A     		ldr	r2, .L15+16
 243 004e 1362     		str	r3, [r2, #32]
 244              	.L13:
 150:main.c        ****     }
 151:main.c        ****    
 152:main.c        **** 
 153:main.c        ****     count++;
 245              		.loc 1 153 0
 246 0050 074A     		ldr	r2, .L15+16
 247 0052 136A     		ldr	r3, [r2, #32]
 248 0054 0133     		adds	r3, r3, #1
 249 0056 1362     		str	r3, [r2, #32]
 154:main.c        ****     Timer_1_ReadStatusRegister();
 250              		.loc 1 154 0
 251 0058 FFF7FEFF 		bl	Timer_1_ReadStatusRegister
 252              	.LVL13:
 253 005c 08BD     		pop	{r3, pc}
 254              	.L16:
 255 005e 00BF     		.align	2
 256              	.L15:
 257 0060 00000000 		.word	comp0_sum
 258 0064 00000000 		.word	comp1_sum
 259 0068 00000000 		.word	comp2_sum
 260 006c 00000000 		.word	comp3_sum
 261 0070 00000000 		.word	.LANCHOR0
 262              		.cfi_endproc
 263              	.LFE66:
 264              		.size	isr_1_handler, .-isr_1_handler
 265              		.section	.text.stop,"ax",%progbits
 266              		.align	2
 267              		.global	stop
 268              		.thumb
 269              		.thumb_func
 270              		.type	stop, %function
 271              	stop:
 272              	.LFB67:
 155:main.c        **** }
 156:main.c        **** 
 157:main.c        **** void stop(){
 273              		.loc 1 157 0
 274              		.cfi_startproc
 275              		@ args = 0, pretend = 0, frame = 0
 276              		@ frame_needed = 0, uses_anonymous_args = 0
 277              		@ link register save eliminated.
 158:main.c        ****     PWM_R=50;
 278              		.loc 1 158 0
 279 0000 024B     		ldr	r3, .L18
 280 0002 3222     		movs	r2, #50
 281 0004 5A70     		strb	r2, [r3, #1]
 159:main.c        ****     PWM_L=50;
 282              		.loc 1 159 0
 283 0006 1A70     		strb	r2, [r3]
 284 0008 7047     		bx	lr
ARM GAS  C:\Users\umasu\AppData\Local\Temp\ccF2FLwb.s 			page 9


 285              	.L19:
 286 000a 00BF     		.align	2
 287              	.L18:
 288 000c 00000000 		.word	.LANCHOR1
 289              		.cfi_endproc
 290              	.LFE67:
 291              		.size	stop, .-stop
 292              		.section	.text.turnLeft,"ax",%progbits
 293              		.align	2
 294              		.global	turnLeft
 295              		.thumb
 296              		.thumb_func
 297              		.type	turnLeft, %function
 298              	turnLeft:
 299              	.LFB68:
 160:main.c        **** }
 161:main.c        **** void turnLeft(){
 300              		.loc 1 161 0
 301              		.cfi_startproc
 302              		@ args = 0, pretend = 0, frame = 0
 303              		@ frame_needed = 0, uses_anonymous_args = 0
 304              		@ link register save eliminated.
 162:main.c        ****     
 163:main.c        ****     if(turn_complete){
 305              		.loc 1 163 0
 306 0000 034B     		ldr	r3, .L22
 307 0002 1B78     		ldrb	r3, [r3]	@ zero_extendqisi2
 308 0004 13B1     		cbz	r3, .L20
 164:main.c        ****        left_on=false;
 309              		.loc 1 164 0
 310 0006 0022     		movs	r2, #0
 311 0008 024B     		ldr	r3, .L22+4
 312 000a 1A70     		strb	r2, [r3]
 313              	.L20:
 314 000c 7047     		bx	lr
 315              	.L23:
 316 000e 00BF     		.align	2
 317              	.L22:
 318 0010 00000000 		.word	turn_complete
 319 0014 00000000 		.word	.LANCHOR0
 320              		.cfi_endproc
 321              	.LFE68:
 322              		.size	turnLeft, .-turnLeft
 323              		.section	.text.goStraight,"ax",%progbits
 324              		.align	2
 325              		.global	goStraight
 326              		.thumb
 327              		.thumb_func
 328              		.type	goStraight, %function
 329              	goStraight:
 330              	.LFB69:
 165:main.c        ****     }
 166:main.c        ****     
 167:main.c        **** }
 168:main.c        **** 
 169:main.c        **** void goStraight(){
 331              		.loc 1 169 0
ARM GAS  C:\Users\umasu\AppData\Local\Temp\ccF2FLwb.s 			page 10


 332              		.cfi_startproc
 333              		@ args = 0, pretend = 0, frame = 0
 334              		@ frame_needed = 0, uses_anonymous_args = 0
 335              		@ link register save eliminated.
 170:main.c        ****     //comp0==>middle left comp1==>middle right
 171:main.c        **** //    if(comp0_sum>0 && comp1_sum==0){//s_ML out of line
 172:main.c        **** //        PWM_L=PWM_L+1;
 173:main.c        **** //    }else if(comp0_sum==0 && comp1_sum>0){//s_MR out of line
 174:main.c        **** //        PWM_R=PWM_R+1;
 175:main.c        **** //        
 176:main.c        **** //    }else 
 177:main.c        ****     if(comp1_sum==0 && comp0_sum==0){
 336              		.loc 1 177 0
 337 0000 054B     		ldr	r3, .L26
 338 0002 1B78     		ldrb	r3, [r3]	@ zero_extendqisi2
 339 0004 3BB9     		cbnz	r3, .L24
 340              		.loc 1 177 0 is_stmt 0 discriminator 1
 341 0006 054B     		ldr	r3, .L26+4
 342 0008 1B78     		ldrb	r3, [r3]	@ zero_extendqisi2
 343 000a 23B9     		cbnz	r3, .L24
 178:main.c        ****         PWM_R=80;
 344              		.loc 1 178 0 is_stmt 1
 345 000c 044B     		ldr	r3, .L26+8
 346 000e 5022     		movs	r2, #80
 347 0010 5A70     		strb	r2, [r3, #1]
 179:main.c        ****         PWM_L=81;
 348              		.loc 1 179 0
 349 0012 5122     		movs	r2, #81
 350 0014 1A70     		strb	r2, [r3]
 351              	.L24:
 352 0016 7047     		bx	lr
 353              	.L27:
 354              		.align	2
 355              	.L26:
 356 0018 00000000 		.word	comp1_sum
 357 001c 00000000 		.word	comp0_sum
 358 0020 00000000 		.word	.LANCHOR1
 359              		.cfi_endproc
 360              	.LFE69:
 361              		.size	goStraight, .-goStraight
 362              		.section	.text.go_distance,"ax",%progbits
 363              		.align	2
 364              		.global	go_distance
 365              		.thumb
 366              		.thumb_func
 367              		.type	go_distance, %function
 368              	go_distance:
 369              	.LFB70:
 180:main.c        ****     }
 181:main.c        ****      
 182:main.c        **** }
 183:main.c        **** void go_distance(float32 distance){
 370              		.loc 1 183 0
 371              		.cfi_startproc
 372              		@ args = 0, pretend = 0, frame = 0
 373              		@ frame_needed = 0, uses_anonymous_args = 0
 374              		@ link register save eliminated.
ARM GAS  C:\Users\umasu\AppData\Local\Temp\ccF2FLwb.s 			page 11


 375              	.LVL14:
 184:main.c        ****     distance_M1=0;
 376              		.loc 1 184 0
 377 0000 024B     		ldr	r3, .L29
 378 0002 0022     		movs	r2, #0
 379 0004 9A61     		str	r2, [r3, #24]	@ float
 185:main.c        ****     target_diatance=distance;
 380              		.loc 1 185 0
 381 0006 5862     		str	r0, [r3, #36]	@ float
 382 0008 7047     		bx	lr
 383              	.L30:
 384 000a 00BF     		.align	2
 385              	.L29:
 386 000c 00000000 		.word	.LANCHOR0
 387              		.cfi_endproc
 388              	.LFE70:
 389              		.size	go_distance, .-go_distance
 390              		.section	.text.main,"ax",%progbits
 391              		.align	2
 392              		.global	main
 393              		.thumb
 394              		.thumb_func
 395              		.type	main, %function
 396              	main:
 397              	.LFB71:
 186:main.c        **** }
 187:main.c        **** 
 188:main.c        **** 
 189:main.c        **** 
 190:main.c        **** 
 191:main.c        **** int main(void)
 192:main.c        **** {
 398              		.loc 1 192 0
 399              		.cfi_startproc
 400              		@ Volatile: function does not return.
 401              		@ args = 0, pretend = 0, frame = 0
 402              		@ frame_needed = 0, uses_anonymous_args = 0
 403 0000 08B5     		push	{r3, lr}
 404              		.cfi_def_cfa_offset 8
 405              		.cfi_offset 3, -8
 406              		.cfi_offset 14, -4
 193:main.c        ****     CyGlobalIntEnable; /* Enable global interrupts. */
 407              		.loc 1 193 0
 408              		.syntax unified
 409              	@ 193 "main.c" 1
 410 0002 62B6     		CPSIE   i
 411              	@ 0 "" 2
 194:main.c        **** 
 195:main.c        ****     /* Place your initialization/startup code here (e.g. MyInst_Start()) */
 196:main.c        ****     Timer_1_Start();
 412              		.loc 1 196 0
 413              		.thumb
 414              		.syntax unified
 415 0004 FFF7FEFF 		bl	Timer_1_Start
 416              	.LVL15:
 197:main.c        ****     
 198:main.c        ****     isr_1_StartEx(isr_1_handler);
ARM GAS  C:\Users\umasu\AppData\Local\Temp\ccF2FLwb.s 			page 12


 417              		.loc 1 198 0
 418 0008 4848     		ldr	r0, .L49
 419 000a FFF7FEFF 		bl	isr_1_StartEx
 420              	.LVL16:
 199:main.c        ****     isr_3_StartEx(isr_3_handler);
 421              		.loc 1 199 0
 422 000e 4848     		ldr	r0, .L49+4
 423 0010 FFF7FEFF 		bl	isr_3_StartEx
 424              	.LVL17:
 200:main.c        ****     isr_2_StartEx(isr_2_handler);
 425              		.loc 1 200 0
 426 0014 4748     		ldr	r0, .L49+8
 427 0016 FFF7FEFF 		bl	isr_2_StartEx
 428              	.LVL18:
 201:main.c        ****     
 202:main.c        ****     //start comparators
 203:main.c        ****     Comp_0_Start();
 429              		.loc 1 203 0
 430 001a FFF7FEFF 		bl	Comp_0_Start
 431              	.LVL19:
 204:main.c        ****     Comp_1_Start();
 432              		.loc 1 204 0
 433 001e FFF7FEFF 		bl	Comp_1_Start
 434              	.LVL20:
 205:main.c        ****     Comp_2_Start();
 435              		.loc 1 205 0
 436 0022 FFF7FEFF 		bl	Comp_2_Start
 437              	.LVL21:
 206:main.c        ****     Comp_3_Start();
 438              		.loc 1 206 0
 439 0026 FFF7FEFF 		bl	Comp_3_Start
 440              	.LVL22:
 207:main.c        ****     
 208:main.c        ****     /*Start PWM Clk*/
 209:main.c        ****     Clock_PWM_Start(); 
 441              		.loc 1 209 0
 442 002a FFF7FEFF 		bl	Clock_PWM_Start
 443              	.LVL23:
 210:main.c        ****     //Start PWM
 211:main.c        ****     PWM_1_Start();
 444              		.loc 1 211 0
 445 002e FFF7FEFF 		bl	PWM_1_Start
 446              	.LVL24:
 212:main.c        ****     PWM_2_Start();
 447              		.loc 1 212 0
 448 0032 FFF7FEFF 		bl	PWM_2_Start
 449              	.LVL25:
 213:main.c        ****     
 214:main.c        ****     // write comparision int for MC33926 duty cycle must me larger than 10% and less than 90%
 215:main.c        **** 
 216:main.c        ****     
 217:main.c        ****     PWM_1_WritePeriod(100);
 450              		.loc 1 217 0
 451 0036 6420     		movs	r0, #100
 452 0038 FFF7FEFF 		bl	PWM_1_WritePeriod
 453              	.LVL26:
 218:main.c        ****     PWM_2_WritePeriod(100);
ARM GAS  C:\Users\umasu\AppData\Local\Temp\ccF2FLwb.s 			page 13


 454              		.loc 1 218 0
 455 003c 6420     		movs	r0, #100
 456 003e FFF7FEFF 		bl	PWM_2_WritePeriod
 457              	.LVL27:
 219:main.c        ****     
 220:main.c        ****     QuadDec_M1_Start();
 458              		.loc 1 220 0
 459 0042 FFF7FEFF 		bl	QuadDec_M1_Start
 460              	.LVL28:
 221:main.c        ****     QuadDec_M2_Start();
 461              		.loc 1 221 0
 462 0046 FFF7FEFF 		bl	QuadDec_M2_Start
 463              	.LVL29:
 464              	.L33:
 222:main.c        ****     
 223:main.c        ****     //go_distance(0);
 224:main.c        ****     
 225:main.c        ****     for(;;)
 226:main.c        ****     {
 227:main.c        ****           //comp0 and comp1 =0  => straight
 228:main.c        ****            //comp2=0 => left
 229:main.c        ****            //comp3=0 => right
 230:main.c        ****            /* Place your application code here. */
 231:main.c        ****         
 232:main.c        ****             if (comp2_sum == 0) {
 465              		.loc 1 232 0
 466 004a 3B4B     		ldr	r3, .L49+12
 467 004c 1B78     		ldrb	r3, [r3]	@ zero_extendqisi2
 468 004e 53B9     		cbnz	r3, .L34
 233:main.c        ****                 go_distance(0); // Reset the distance traveled
 469              		.loc 1 233 0
 470 0050 0020     		movs	r0, #0
 471 0052 FFF7FEFF 		bl	go_distance
 472              	.LVL30:
 234:main.c        ****                 turn_complete = false;
 473              		.loc 1 234 0
 474 0056 0022     		movs	r2, #0
 475 0058 384B     		ldr	r3, .L49+16
 476 005a 1A70     		strb	r2, [r3]
 235:main.c        ****                 current_state = TURN_LEFT;
 477              		.loc 1 235 0
 478 005c 0122     		movs	r2, #1
 479 005e 384B     		ldr	r3, .L49+20
 480 0060 83F82820 		strb	r2, [r3, #40]
 481 0064 2AE0     		b	.L35
 482              	.L34:
 236:main.c        ****             }else if(comp3_sum==0){
 483              		.loc 1 236 0
 484 0066 374A     		ldr	r2, .L49+24
 485 0068 1278     		ldrb	r2, [r2]	@ zero_extendqisi2
 486 006a 22B9     		cbnz	r2, .L36
 237:main.c        ****                 current_state = TURN_RIGHT;
 487              		.loc 1 237 0
 488 006c 0222     		movs	r2, #2
 489 006e 344B     		ldr	r3, .L49+20
 490 0070 83F82820 		strb	r2, [r3, #40]
 491 0074 22E0     		b	.L35
ARM GAS  C:\Users\umasu\AppData\Local\Temp\ccF2FLwb.s 			page 14


 492              	.L36:
 238:main.c        ****             }else if(comp1_sum==0 && comp0_sum==0){
 493              		.loc 1 238 0
 494 0076 3449     		ldr	r1, .L49+28
 495 0078 0978     		ldrb	r1, [r1]	@ zero_extendqisi2
 496 007a 39B9     		cbnz	r1, .L37
 497              		.loc 1 238 0 is_stmt 0 discriminator 1
 498 007c 3348     		ldr	r0, .L49+32
 499 007e 0078     		ldrb	r0, [r0]	@ zero_extendqisi2
 500 0080 20B9     		cbnz	r0, .L37
 239:main.c        ****                 current_state = GO_STRAIGHT;
 501              		.loc 1 239 0 is_stmt 1
 502 0082 0022     		movs	r2, #0
 503 0084 2E4B     		ldr	r3, .L49+20
 504 0086 83F82820 		strb	r2, [r3, #40]
 505 008a 17E0     		b	.L35
 506              	.L37:
 240:main.c        ****             }else if(comp0_sum>0 && comp1_sum>0 && comp2_sum>0 && comp3_sum>0){
 507              		.loc 1 240 0
 508 008c 2F48     		ldr	r0, .L49+32
 509 008e 0078     		ldrb	r0, [r0]	@ zero_extendqisi2
 510 0090 38B1     		cbz	r0, .L38
 511              		.loc 1 240 0 is_stmt 0 discriminator 1
 512 0092 31B1     		cbz	r1, .L38
 513              		.loc 1 240 0 discriminator 2
 514 0094 2BB1     		cbz	r3, .L38
 515              		.loc 1 240 0 discriminator 3
 516 0096 22B1     		cbz	r2, .L38
 241:main.c        ****                 current_state = STOP;
 517              		.loc 1 241 0 is_stmt 1
 518 0098 0522     		movs	r2, #5
 519 009a 294B     		ldr	r3, .L49+20
 520 009c 83F82820 		strb	r2, [r3, #40]
 521 00a0 0CE0     		b	.L35
 522              	.L38:
 242:main.c        ****             }else if(comp0_sum>0 && comp1_sum==0){//s_ML out of line
 523              		.loc 1 242 0
 524 00a2 28B1     		cbz	r0, .L39
 525              		.loc 1 242 0 is_stmt 0 discriminator 1
 526 00a4 21B9     		cbnz	r1, .L39
 243:main.c        ****                 current_state = LEFT_ADJUST;
 527              		.loc 1 243 0 is_stmt 1
 528 00a6 0422     		movs	r2, #4
 529 00a8 254B     		ldr	r3, .L49+20
 530 00aa 83F82820 		strb	r2, [r3, #40]
 531 00ae 05E0     		b	.L35
 532              	.L39:
 244:main.c        ****             }else if(comp0_sum==0 && comp1_sum>0){//s_MR out of line
 533              		.loc 1 244 0
 534 00b0 20B9     		cbnz	r0, .L35
 535              		.loc 1 244 0 is_stmt 0 discriminator 1
 536 00b2 19B1     		cbz	r1, .L35
 245:main.c        ****                 current_state = RIGHT_ADJUST;
 537              		.loc 1 245 0 is_stmt 1
 538 00b4 0322     		movs	r2, #3
 539 00b6 224B     		ldr	r3, .L49+20
 540 00b8 83F82820 		strb	r2, [r3, #40]
ARM GAS  C:\Users\umasu\AppData\Local\Temp\ccF2FLwb.s 			page 15


 541              	.L35:
 246:main.c        ****             }
 247:main.c        ****             
 248:main.c        ****             
 249:main.c        **** //            if(distance_M1>=(target_diatance/1.03) && target_diatance!=0){
 250:main.c        **** //                LED_1_Write(1);
 251:main.c        **** //                current_state = STOP;
 252:main.c        **** //            }
 253:main.c        ****            
 254:main.c        **** 
 255:main.c        **** //          PWM_1_WriteCompare(PWM_R);
 256:main.c        **** //          PWM_2_WriteCompare(PWM_L);
 257:main.c        ****      
 258:main.c        ****         switch (current_state) {
 542              		.loc 1 258 0
 543 00bc 204B     		ldr	r3, .L49+20
 544 00be 93F82830 		ldrb	r3, [r3, #40]	@ zero_extendqisi2
 545 00c2 052B     		cmp	r3, #5
 546 00c4 C1D8     		bhi	.L33
 547 00c6 DFE803F0 		tbb	[pc, r3]
 548              	.L41:
 549 00ca 03       		.byte	(.L40-.L41)/2
 550 00cb 0A       		.byte	(.L42-.L41)/2
 551 00cc 11       		.byte	(.L43-.L41)/2
 552 00cd 21       		.byte	(.L44-.L41)/2
 553 00ce 18       		.byte	(.L45-.L41)/2
 554 00cf 2A       		.byte	(.L46-.L41)/2
 555              		.p2align 1
 556              	.L40:
 259:main.c        ****             case GO_STRAIGHT:
 260:main.c        ****                 PWM_1_WriteCompare(80);
 557              		.loc 1 260 0
 558 00d0 5020     		movs	r0, #80
 559 00d2 FFF7FEFF 		bl	PWM_1_WriteCompare
 560              	.LVL31:
 261:main.c        ****                 PWM_2_WriteCompare(81);
 561              		.loc 1 261 0
 562 00d6 5120     		movs	r0, #81
 563 00d8 FFF7FEFF 		bl	PWM_2_WriteCompare
 564              	.LVL32:
 262:main.c        ****                 break;
 565              		.loc 1 262 0
 566 00dc B5E7     		b	.L33
 567              	.L42:
 263:main.c        ****             case TURN_LEFT:
 264:main.c        **** //                while (!turn_complete) {
 265:main.c        **** //                    if (distance_M1 >= turn_back_diatance) {
 266:main.c        **** //                        turn_complete = true;
 267:main.c        **** //                        current_state = GO_STRAIGHT;
 268:main.c        **** //                    } else {
 269:main.c        **** //                         Implement right turn logic
 270:main.c        ****                         PWM_1_WriteCompare(30);
 568              		.loc 1 270 0
 569 00de 1E20     		movs	r0, #30
 570 00e0 FFF7FEFF 		bl	PWM_1_WriteCompare
 571              	.LVL33:
 271:main.c        ****                         PWM_2_WriteCompare(70);
ARM GAS  C:\Users\umasu\AppData\Local\Temp\ccF2FLwb.s 			page 16


 572              		.loc 1 271 0
 573 00e4 4620     		movs	r0, #70
 574 00e6 FFF7FEFF 		bl	PWM_2_WriteCompare
 575              	.LVL34:
 272:main.c        **** //                    }
 273:main.c        **** //                }
 274:main.c        ****                 break;    
 576              		.loc 1 274 0
 577 00ea AEE7     		b	.L33
 578              	.L43:
 275:main.c        ****             case TURN_RIGHT:
 276:main.c        ****                 PWM_1_WriteCompare(11);
 579              		.loc 1 276 0
 580 00ec 0B20     		movs	r0, #11
 581 00ee FFF7FEFF 		bl	PWM_1_WriteCompare
 582              	.LVL35:
 277:main.c        ****                 PWM_2_WriteCompare(70);
 583              		.loc 1 277 0
 584 00f2 4620     		movs	r0, #70
 585 00f4 FFF7FEFF 		bl	PWM_2_WriteCompare
 586              	.LVL36:
 278:main.c        ****                 break;  
 587              		.loc 1 278 0
 588 00f8 A7E7     		b	.L33
 589              	.L45:
 279:main.c        ****             case LEFT_ADJUST:
 280:main.c        ****                 PWM_L = PWM_1_ReadCompare();
 590              		.loc 1 280 0
 591 00fa FFF7FEFF 		bl	PWM_1_ReadCompare
 592              	.LVL37:
 593 00fe 144B     		ldr	r3, .L49+36
 594 0100 1870     		strb	r0, [r3]
 281:main.c        ****                 PWM_1_WriteCompare(PWM_L+1);
 595              		.loc 1 281 0
 596 0102 0130     		adds	r0, r0, #1
 597 0104 C0B2     		uxtb	r0, r0
 598 0106 FFF7FEFF 		bl	PWM_1_WriteCompare
 599              	.LVL38:
 282:main.c        ****                 break; 
 600              		.loc 1 282 0
 601 010a 9EE7     		b	.L33
 602              	.L44:
 283:main.c        ****             case RIGHT_ADJUST:
 284:main.c        ****                 PWM_R = PWM_2_ReadCompare();
 603              		.loc 1 284 0
 604 010c FFF7FEFF 		bl	PWM_2_ReadCompare
 605              	.LVL39:
 606 0110 0F4B     		ldr	r3, .L49+36
 607 0112 5870     		strb	r0, [r3, #1]
 285:main.c        ****                 PWM_2_WriteCompare(PWM_R+1);
 608              		.loc 1 285 0
 609 0114 0130     		adds	r0, r0, #1
 610 0116 C0B2     		uxtb	r0, r0
 611 0118 FFF7FEFF 		bl	PWM_2_WriteCompare
 612              	.LVL40:
 286:main.c        ****                 break; 
 613              		.loc 1 286 0
ARM GAS  C:\Users\umasu\AppData\Local\Temp\ccF2FLwb.s 			page 17


 614 011c 95E7     		b	.L33
 615              	.L46:
 287:main.c        ****             case STOP:
 288:main.c        ****                 PWM_1_WriteCompare(50);
 616              		.loc 1 288 0
 617 011e 3220     		movs	r0, #50
 618 0120 FFF7FEFF 		bl	PWM_1_WriteCompare
 619              	.LVL41:
 289:main.c        ****                 PWM_2_WriteCompare(50);
 620              		.loc 1 289 0
 621 0124 3220     		movs	r0, #50
 622 0126 FFF7FEFF 		bl	PWM_2_WriteCompare
 623              	.LVL42:
 290:main.c        ****                 break;
 624              		.loc 1 290 0
 625 012a 8EE7     		b	.L33
 626              	.L50:
 627              		.align	2
 628              	.L49:
 629 012c 00000000 		.word	isr_1_handler
 630 0130 00000000 		.word	isr_3_handler
 631 0134 00000000 		.word	isr_2_handler
 632 0138 00000000 		.word	comp2_sum
 633 013c 00000000 		.word	turn_complete
 634 0140 00000000 		.word	.LANCHOR0
 635 0144 00000000 		.word	comp3_sum
 636 0148 00000000 		.word	comp1_sum
 637 014c 00000000 		.word	comp0_sum
 638 0150 00000000 		.word	.LANCHOR1
 639              		.cfi_endproc
 640              	.LFE71:
 641              		.size	main, .-main
 642              		.global	current_state
 643              		.global	PWM_L
 644              		.global	PWM_R
 645              		.comm	comp3_sum,1,1
 646              		.comm	comp2_sum,1,1
 647              		.comm	comp1_sum,1,1
 648              		.comm	comp0_sum,1,1
 649              		.comm	turn_complete,1,1
 650              		.comm	middle_on,1,1
 651              		.comm	right_on,1,1
 652              		.global	left_on
 653              		.global	turn_counter
 654              		.global	count
 655              		.global	current_distance
 656              		.global	counter
 657              		.global	encoder_value_sum_M2
 658              		.global	encoder_value_sum_M1
 659              		.global	speed_M2
 660              		.global	speed_M1
 661              		.global	turn_back_diatance
 662              		.global	target_diatance
 663              		.global	current_distance_M2
 664              		.global	current_distance_M1
 665              		.global	distance_M2
 666              		.global	distance_M1
ARM GAS  C:\Users\umasu\AppData\Local\Temp\ccF2FLwb.s 			page 18


 667              		.global	timeInterval_s
 668              		.global	wheelCircumference_cm
 669              		.global	CPR
 670              		.global	encoderCounts_M2
 671              		.global	encoderCounts_M1
 672              		.data
 673              		.align	3
 674              		.set	.LANCHOR1,. + 0
 675              		.type	PWM_L, %object
 676              		.size	PWM_L, 1
 677              	PWM_L:
 678 0000 51       		.byte	81
 679              		.type	PWM_R, %object
 680              		.size	PWM_R, 1
 681              	PWM_R:
 682 0001 50       		.byte	80
 683              		.type	counter, %object
 684              		.size	counter, 1
 685              	counter:
 686 0002 01       		.byte	1
 687 0003 00       		.space	1
 688              		.type	CPR, %object
 689              		.size	CPR, 4
 690              	CPR:
 691 0004 E4000000 		.word	228
 692              		.type	wheelCircumference_cm, %object
 693              		.size	wheelCircumference_cm, 4
 694              	wheelCircumference_cm:
 695 0008 7201A241 		.word	1101136242
 696              		.type	turn_back_diatance, %object
 697              		.size	turn_back_diatance, 4
 698              	turn_back_diatance:
 699 000c 00002241 		.word	1092747264
 700              		.type	timeInterval_s, %object
 701              		.size	timeInterval_s, 8
 702              	timeInterval_s:
 703 0010 0C022B87 		.word	-2027224564
 704 0014 16D92540 		.word	1076222230
 705              		.bss
 706              		.align	2
 707              		.set	.LANCHOR0,. + 0
 708              		.type	left_on, %object
 709              		.size	left_on, 1
 710              	left_on:
 711 0000 00       		.space	1
 712 0001 000000   		.space	3
 713              		.type	turn_counter, %object
 714              		.size	turn_counter, 4
 715              	turn_counter:
 716 0004 00000000 		.space	4
 717              		.type	encoderCounts_M1, %object
 718              		.size	encoderCounts_M1, 4
 719              	encoderCounts_M1:
 720 0008 00000000 		.space	4
 721              		.type	encoderCounts_M2, %object
 722              		.size	encoderCounts_M2, 4
 723              	encoderCounts_M2:
ARM GAS  C:\Users\umasu\AppData\Local\Temp\ccF2FLwb.s 			page 19


 724 000c 00000000 		.space	4
 725              		.type	encoder_value_sum_M1, %object
 726              		.size	encoder_value_sum_M1, 4
 727              	encoder_value_sum_M1:
 728 0010 00000000 		.space	4
 729              		.type	encoder_value_sum_M2, %object
 730              		.size	encoder_value_sum_M2, 4
 731              	encoder_value_sum_M2:
 732 0014 00000000 		.space	4
 733              		.type	distance_M1, %object
 734              		.size	distance_M1, 4
 735              	distance_M1:
 736 0018 00000000 		.space	4
 737              		.type	distance_M2, %object
 738              		.size	distance_M2, 4
 739              	distance_M2:
 740 001c 00000000 		.space	4
 741              		.type	count, %object
 742              		.size	count, 4
 743              	count:
 744 0020 00000000 		.space	4
 745              		.type	target_diatance, %object
 746              		.size	target_diatance, 4
 747              	target_diatance:
 748 0024 00000000 		.space	4
 749              		.type	current_state, %object
 750              		.size	current_state, 1
 751              	current_state:
 752 0028 00       		.space	1
 753 0029 000000   		.space	3
 754              		.type	current_distance, %object
 755              		.size	current_distance, 4
 756              	current_distance:
 757 002c 00000000 		.space	4
 758              		.type	speed_M2, %object
 759              		.size	speed_M2, 4
 760              	speed_M2:
 761 0030 00000000 		.space	4
 762              		.type	speed_M1, %object
 763              		.size	speed_M1, 4
 764              	speed_M1:
 765 0034 00000000 		.space	4
 766              		.type	current_distance_M2, %object
 767              		.size	current_distance_M2, 4
 768              	current_distance_M2:
 769 0038 00000000 		.space	4
 770              		.type	current_distance_M1, %object
 771              		.size	current_distance_M1, 4
 772              	current_distance_M1:
 773 003c 00000000 		.space	4
 774              		.text
 775              	.Letext0:
 776              		.file 2 "c:\\program files (x86)\\cypress\\psoc creator\\4.2\\psoc creator\\import\\gnu\\arm\\5.4.
 777              		.file 3 "c:\\program files (x86)\\cypress\\psoc creator\\4.2\\psoc creator\\import\\gnu\\arm\\5.4.
 778              		.file 4 "Generated_Source\\PSoC5/cytypes.h"
 779              		.file 5 "Generated_Source\\PSoC5/core_cm3.h"
 780              		.file 6 "Generated_Source\\PSoC5/QuadDec_M1.h"
ARM GAS  C:\Users\umasu\AppData\Local\Temp\ccF2FLwb.s 			page 20


 781              		.file 7 "Generated_Source\\PSoC5/QuadDec_M2.h"
 782              		.file 8 "Generated_Source\\PSoC5/Timer_1.h"
 783              		.file 9 "Generated_Source\\PSoC5/Comp_0.h"
 784              		.file 10 "Generated_Source\\PSoC5/Comp_1.h"
 785              		.file 11 "Generated_Source\\PSoC5/Comp_2.h"
 786              		.file 12 "Generated_Source\\PSoC5/Comp_3.h"
 787              		.file 13 "Generated_Source\\PSoC5/isr_1.h"
 788              		.file 14 "Generated_Source\\PSoC5/isr_3.h"
 789              		.file 15 "Generated_Source\\PSoC5/isr_2.h"
 790              		.file 16 "Generated_Source\\PSoC5/Clock_PWM.h"
 791              		.file 17 "Generated_Source\\PSoC5/PWM_1.h"
 792              		.file 18 "Generated_Source\\PSoC5/PWM_2.h"