ARM GAS  C:\Users\dwit264\AppData\Local\Temp\ccfaPwFj.s 			page 1


   1              		.syntax unified
   2              		.cpu cortex-m3
   3              		.fpu softvfp
   4              		.eabi_attribute 20, 1
   5              		.eabi_attribute 21, 1
   6              		.eabi_attribute 23, 3
   7              		.eabi_attribute 24, 1
   8              		.eabi_attribute 25, 1
   9              		.eabi_attribute 26, 1
  10              		.eabi_attribute 30, 1
  11              		.eabi_attribute 34, 1
  12              		.eabi_attribute 18, 4
  13              		.thumb
  14              		.syntax unified
  15              		.file	"main.c"
  16              		.text
  17              	.Ltext0:
  18              		.cfi_sections	.debug_frame
  19              		.section	.text.eoc,"ax",%progbits
  20              		.align	2
  21              		.global	eoc
  22              		.thumb
  23              		.thumb_func
  24              		.type	eoc, %function
  25              	eoc:
  26              	.LFB64:
  27              		.file 1 "main.c"
   1:main.c        **** /* ========================================
   2:main.c        ****  *
   3:main.c        ****  * Copyright YOUR COMPANY, THE YEAR
   4:main.c        ****  * All Rights Reserved
   5:main.c        ****  * UNPUBLISHED, LICENSED SOFTWARE.
   6:main.c        ****  *
   7:main.c        ****  * CONFIDENTIAL AND PROPRIETARY INFORMATION
   8:main.c        ****  * WHICH IS THE PROPERTY OF your company.
   9:main.c        ****  *
  10:main.c        ****  * ========================================
  11:main.c        **** */
  12:main.c        **** /* ========================================
  13:main.c        ****  * Fully working code: 
  14:main.c        ****  * PWM      : 
  15:main.c        ****  * Encoder  : 
  16:main.c        ****  * ADC      :
  17:main.c        ****  * USB      : port displays speed and position.
  18:main.c        ****  * CMD: "PW xx"
  19:main.c        ****  * Copyright Univ of Auckland, 2016
  20:main.c        ****  * All Rights Reserved
  21:main.c        ****  * UNPUBLISHED, LICENSED SOFTWARE.
  22:main.c        ****  *
  23:main.c        ****  * CONFIDENTIAL AND PROPRIETARY INFORMATION
  24:main.c        ****  * WHICH IS THE PROPERTY OF Univ of Auckland.
  25:main.c        ****  *
  26:main.c        ****  * ========================================
  27:main.c        **** */
  28:main.c        **** #include <stdio.h>
  29:main.c        **** #include <string.h>
  30:main.c        **** #include <stdlib.h>
ARM GAS  C:\Users\dwit264\AppData\Local\Temp\ccfaPwFj.s 			page 2


  31:main.c        **** #include <project.h>
  32:main.c        **** 
  33:main.c        **** 
  34:main.c        **** #include "project.h"
  35:main.c        **** 
  36:main.c        **** CY_ISR(eoc) {
  28              		.loc 1 36 0
  29              		.cfi_startproc
  30              		@ args = 0, pretend = 0, frame = 0
  31              		@ frame_needed = 0, uses_anonymous_args = 0
  32 0000 08B5     		push	{r3, lr}
  33              		.cfi_def_cfa_offset 8
  34              		.cfi_offset 3, -8
  35              		.cfi_offset 14, -4
  37:main.c        ****     VDAC8_1_SetValue(ADC_SAR_1_GetResult16() >> 4);
  36              		.loc 1 37 0
  37 0002 FFF7FEFF 		bl	ADC_SAR_1_GetResult16
  38              	.LVL0:
  39 0006 C0F30710 		ubfx	r0, r0, #4, #8
  40 000a FFF7FEFF 		bl	VDAC8_1_SetValue
  41              	.LVL1:
  42 000e 08BD     		pop	{r3, pc}
  43              		.cfi_endproc
  44              	.LFE64:
  45              		.size	eoc, .-eoc
  46              		.section	.text.main,"ax",%progbits
  47              		.align	2
  48              		.global	main
  49              		.thumb
  50              		.thumb_func
  51              		.type	main, %function
  52              	main:
  53              	.LFB65:
  38:main.c        **** }
  39:main.c        **** 
  40:main.c        **** int main(void)
  41:main.c        **** {
  54              		.loc 1 41 0
  55              		.cfi_startproc
  56              		@ Volatile: function does not return.
  57              		@ args = 0, pretend = 0, frame = 0
  58              		@ frame_needed = 0, uses_anonymous_args = 0
  59 0000 08B5     		push	{r3, lr}
  60              		.cfi_def_cfa_offset 8
  61              		.cfi_offset 3, -8
  62              		.cfi_offset 14, -4
  42:main.c        ****     CyGlobalIntEnable; /* Enable global interrupts. */
  63              		.loc 1 42 0
  64              		.syntax unified
  65              	@ 42 "main.c" 1
  66 0002 62B6     		CPSIE   i
  67              	@ 0 "" 2
  43:main.c        **** 
  44:main.c        ****     /* Place your initialization/startup code here (e.g. MyInst_Start()) */
  45:main.c        ****     Timer_1_Start();
  68              		.loc 1 45 0
  69              		.thumb
ARM GAS  C:\Users\dwit264\AppData\Local\Temp\ccfaPwFj.s 			page 3


  70              		.syntax unified
  71 0004 FFF7FEFF 		bl	Timer_1_Start
  72              	.LVL2:
  46:main.c        ****     ADC_SAR_1_Start();
  73              		.loc 1 46 0
  74 0008 FFF7FEFF 		bl	ADC_SAR_1_Start
  75              	.LVL3:
  47:main.c        ****     VDAC8_1_Start();
  76              		.loc 1 47 0
  77 000c FFF7FEFF 		bl	VDAC8_1_Start
  78              	.LVL4:
  48:main.c        ****     isr_1_StartEx(eoc);
  79              		.loc 1 48 0
  80 0010 0148     		ldr	r0, .L6
  81 0012 FFF7FEFF 		bl	isr_1_StartEx
  82              	.LVL5:
  83              	.L4:
  84 0016 FEE7     		b	.L4
  85              	.L7:
  86              		.align	2
  87              	.L6:
  88 0018 00000000 		.word	eoc
  89              		.cfi_endproc
  90              	.LFE65:
  91              		.size	main, .-main
  92              		.text
  93              	.Letext0:
  94              		.file 2 "c:\\program files (x86)\\cypress\\psoc creator\\4.2\\psoc creator\\import\\gnu\\arm\\5.4.
  95              		.file 3 "c:\\program files (x86)\\cypress\\psoc creator\\4.2\\psoc creator\\import\\gnu\\arm\\5.4.
  96              		.file 4 "Generated_Source\\PSoC5/ADC_SAR_1.h"
  97              		.file 5 "Generated_Source\\PSoC5/VDAC8_1.h"
  98              		.file 6 "Generated_Source\\PSoC5/Timer_1.h"
  99              		.file 7 "Generated_Source\\PSoC5/isr_1.h"
 100              		.file 8 "Generated_Source\\PSoC5/core_cm3.h"